 CourseworkBase2020

 Timestamp is 5eb5abaa (Fri May  8 19:57:46 2020)

 Preferred load address is 00400000

 Start         Length     Name                   Class
 0001:00000000 00008eb0H .text$di                CODE
 0001:00008eb0 00050dc0H .text$mn                CODE
 0001:00059c70 000060f0H .text$x                 CODE
 0001:0005fd60 00001012H .text$yd                CODE
 0002:00000000 00000104H .CRT$XCA                DATA
 0002:00000104 00000104H .CRT$XCAA               DATA
 0002:00000208 00000104H .CRT$XCL                DATA
 0002:0000030c 00000104H .CRT$XCU                DATA
 0002:00000410 00000104H .CRT$XCZ                DATA
 0002:00000514 00000104H .CRT$XIA                DATA
 0002:00000618 00000104H .CRT$XIAA               DATA
 0002:0000071c 00000104H .CRT$XIAC               DATA
 0002:00000820 00000104H .CRT$XIZ                DATA
 0002:00000924 00000104H .CRT$XPA                DATA
 0002:00000a28 00000104H .CRT$XPZ                DATA
 0002:00000b2c 00000104H .CRT$XTA                DATA
 0002:00000c30 00000110H .CRT$XTZ                DATA
 0002:00000d40 00016078H .rdata                  DATA
 0002:00016db8 000029b8H .rdata$r                DATA
 0002:00019770 000006b0H .rdata$sxdata           DATA
 0002:00019e20 000001acH .rdata$zzzdbg           DATA
 0002:00019fcc 00000104H .rtc$IAA                DATA
 0002:0001a0d0 00000104H .rtc$IZZ                DATA
 0002:0001a1d4 00000104H .rtc$TAA                DATA
 0002:0001a2d8 00000108H .rtc$TZZ                DATA
 0002:0001a3e0 00004d89H .xdata$x                DATA
 0002:0001f169 00000000H .edata                  DATA
 0003:00000000 00000130H .data                   DATA
 0003:00000130 000016f0H .data$r                 DATA
 0003:00001820 00000460H .bss                    DATA
 0004:00000000 00000544H .idata$5                DATA
 0004:00000544 000000a0H .idata$2                DATA
 0004:000005e4 00000014H .idata$3                DATA
 0004:000005f8 00000544H .idata$4                DATA
 0004:00000b3c 00001c2eH .idata$6                DATA
 0005:00000000 00000104H .00cfg                  DATA
 0006:00000000 00000170H .rsrc$01                DATA
 0006:00000170 000002ccH .rsrc$02                DATA

  Address         Publics by Value              Rva+Base       Lib:Object

 0000:00000000       ___guard_longjmp_count     00000000     <absolute>
 0000:00000000       ___guard_iat_count         00000000     <absolute>
 0000:00000000       ___hybrid_auxiliary_iat    00000000     <absolute>
 0000:00000000       ___dynamic_value_reloc_table 00000000     <absolute>
 0000:00000000       ___guard_fids_count        00000000     <absolute>
 0000:00000000       ___guard_longjmp_table     00000000     <absolute>
 0000:00000000       ___hybrid_code_map_count   00000000     <absolute>
 0000:00000000       ___guard_iat_table         00000000     <absolute>
 0000:00000000       ___enclave_config          00000000     <absolute>
 0000:00000000       ___AbsoluteZero            00000000     <absolute>
 0000:00000000       ___hybrid_code_map         00000000     <absolute>
 0000:00000000       ___guard_fids_table        00000000     <absolute>
 0000:00000000       ___volatile_metadata       00000000     <absolute>
 0000:00000100       ___guard_flags             00000100     <absolute>
 0000:0000012f       ___safe_se_handler_count   0000012f     <absolute>
 0000:00000000       ___ImageBase               00400000     <linker-defined>
 0001:00008eb0       ??0AnimatedObject@@QAE@HHPAVBaseEngine@@HH_N@Z 00409eb0 f   AnimatedObject.obj
 0001:00008f80       ??1AnimatedObject@@UAE@XZ  00409f80 f   AnimatedObject.obj
 0001:00008fb0       ?virtDraw@AnimatedObject@@UAEXXZ 00409fb0 f   AnimatedObject.obj
 0001:00009020       ?animate@AnimatedObject@@UAEXHHHHHHH@Z 0040a020 f   AnimatedObject.obj
 0001:00009120       ?resetAnim@AnimatedObject@@QAEXXZ 0040a120 f   AnimatedObject.obj
 0001:00009135       ??6?$basic_ostream@DU?$char_traits@D@std@@@std@@QAEAAV01@N@Z 0040a135 f   msvcprtd:MSVCP140D.dll
 0001:00009140       ??$pow@HHX@@YANHH@Z        0040a140 f i ProjectileObject.obj
 0001:00009167       _pow                       0040a167 f   ucrtd:ucrtbased.dll
 0001:00009170       ?setRotation@CoordinateMappingRotateTransparent@@QAEXN@Z 0040a170 f i ProjectileObject.obj
 0001:0000918a       _fabs                      0040a18a f   ucrtd:ucrtbased.dll
 0001:00009190       _atan2                     0040a190 f   ucrtd:ucrtbased.dll
 0001:000091e0       ??$?CVRawImageData@@$0A@@?$shared_ptr@VRawImageData@@@std@@QBEPAVRawImageData@@XZ 0040a1e0 f i AnimatedObject.obj
 0001:00009200       ??0CoordinateMapping@@QAE@XZ 0040a200 f i AnimatedObject.obj
 0001:00009220       ??0CoordinateMappingFlipSheet@@QAE@XZ 0040a220 f i AnimatedObject.obj
 0001:00009250       ??1?$shared_ptr@VRawImageData@@@std@@QAE@XZ 0040a250 f i AnimatedObject.obj
 0001:00009270       ??1SimpleImage@@QAE@XZ     0040a270 f i AnimatedObject.obj
 0001:000092c0       ??_GAnimatedObject@@UAEPAXI@Z 0040a2c0 f i AnimatedObject.obj
 0001:000092c0       ??_EAnimatedObject@@UAEPAXI@Z 0040a2c0 f i AnimatedObject.obj
 0001:00009300       ?_Decref@?$_Ptr_base@VRawImageData@@@std@@IAEXXZ 0040a300 f i AnimatedObject.obj
 0001:00009330       ?_Decref@_Ref_count_base@std@@QAEXXZ 0040a330 f i AnimatedObject.obj
 0001:00009370       ?_Decwref@_Ref_count_base@std@@QAEXXZ 0040a370 f i AnimatedObject.obj
 0001:000093b0       ?__empty_global_delete@@YAXPAX@Z 0040a3b0 f i AnimatedObject.obj
 0001:000093c0       ?__global_delete@@YAXPAXI@Z 0040a3c0 f i AnimatedObject.obj
 0001:000093c0       ?__empty_global_delete@@YAXPAXI@Z 0040a3c0 f i AnimatedObject.obj
 0001:000093d0       ?changePixelColour@CoordinateMapping@@UAE_NHHAAHPAVDrawingSurface@@@Z 0040a3d0 f i AnimatedObject.obj
 0001:000093f0       ?deleteOnRemoval@DisplayableObject@@UBE_NXZ 0040a3f0 f i AnimatedObject.obj
 0001:00009410       ?get@?$_Ptr_base@VRawImageData@@@std@@IBEPAVRawImageData@@XZ 0040a410 f i AnimatedObject.obj
 0001:00009430       ?getEngine@DisplayableObject@@QBEPAVBaseEngine@@XZ 0040a430 f i AnimatedObject.obj
 0001:00009450       ?getForegroundSurface@BaseEngine@@QAEPAVDrawingSurface@@XZ 0040a450 f i AnimatedObject.obj
 0001:00009470       ?getHeight@RawImageData@@QBEHXZ 0040a470 f i AnimatedObject.obj
 0001:00009490       ?getHeight@SimpleImage@@QBEHXZ 0040a490 f i AnimatedObject.obj
 0001:000094c0       ?getPixelColour@SimpleImage@@QBEHHH@Z 0040a4c0 f i AnimatedObject.obj
 0001:000094f0       ?getRawPixelColour@RawImageData@@QBEHHH@Z 0040a4f0 f i AnimatedObject.obj
 0001:00009540       ?getTheData@SimpleImage@@QBEABV?$shared_ptr@VRawImageData@@@std@@XZ 0040a540 f i AnimatedObject.obj
 0001:00009560       ?getWidth@RawImageData@@QBEHXZ 0040a560 f i AnimatedObject.obj
 0001:00009580       ?getWidth@SimpleImage@@QBEHXZ 0040a580 f i AnimatedObject.obj
 0001:000095b0       ?mapCoordinates@CoordinateMappingFlipSheet@@UAE_NAAN0ABVSimpleImage@@@Z 0040a5b0 f i AnimatedObject.obj
 0001:00009700       ?setOpaque@RawImageData@@QAEXXZ 0040a700 f i AnimatedObject.obj
 0001:00009770       ?setPosition@DisplayableObject@@UAEXHH@Z 0040a770 f i AnimatedObject.obj
 0001:000097b0       ?setSheetValues@CoordinateMappingFlipSheet@@QAEXHHHHH@Z 0040a7b0 f i AnimatedObject.obj
 0001:00009800       ?setTransparencyColour@SimpleImage@@QAEXH@Z 0040a800 f i AnimatedObject.obj
 0001:00009870       ?setTransparentColour@RawImageData@@QAEXI@Z 0040a870 f i AnimatedObject.obj
 0001:00009990       ?virtIsPositionWithinObject@DisplayableObject@@UAE_NHH@Z 0040a990 f i AnimatedObject.obj
 0001:00009a20       ?virtKeyDown@DisplayableObject@@UAEXH@Z 0040aa20 f i AnimatedObject.obj
 0001:00009a30       ?virtKeyUp@DisplayableObject@@UAEXH@Z 0040aa30 f i AnimatedObject.obj
 0001:00009a40       ?virtMouseDown@DisplayableObject@@UAEXHHH@Z 0040aa40 f i AnimatedObject.obj
 0001:00009a50       ?virtMouseMoved@DisplayableObject@@UAEXHH@Z 0040aa50 f i AnimatedObject.obj
 0001:00009a60       ?virtMouseUp@DisplayableObject@@UAEXHHH@Z 0040aa60 f i AnimatedObject.obj
 0001:00009a70       ?virtNotify@DisplayableObject@@UAEJHHH@Z 0040aa70 f i AnimatedObject.obj
 0001:00009a90       ?virtSingleItemMouseDown@DisplayableObject@@UAE_NHHH@Z 0040aa90 f i AnimatedObject.obj
 0001:00009ab0       ??0AudioPlayer@@QAE@XZ     0040aab0 f   AudioPlayer.obj
 0001:00009b30       ??1AudioPlayer@@QAE@XZ     0040ab30 f   AudioPlayer.obj
 0001:00009b60       ?audioInit@AudioPlayer@@QAEHXZ 0040ab60 f   AudioPlayer.obj
 0001:00009bd0       ?playAudio@AudioPlayer@@QAEXPBDHH@Z 0040abd0 f   AudioPlayer.obj
 0001:00009d00       ?playMusic@AudioPlayer@@QAEXPBDH@Z 0040ad00 f   AudioPlayer.obj
 0001:00009e30       ?isSongPlaying@AudioPlayer@@QAE_NPBD@Z 0040ae30 f   AudioPlayer.obj
 0001:00009e50       ?stopMusic@AudioPlayer@@QAEXXZ 0040ae50 f   AudioPlayer.obj
 0001:00009e70       ?closeAudio@AudioPlayer@@QAEXXZ 0040ae70 f   AudioPlayer.obj
 0001:0000a0f0       ??$?0$$V@?$_Compressed_pair@V?$allocator@D@std@@V?$_String_val@U?$_Simple_types@D@std@@@2@$00@std@@QAE@U_Zero_then_variadic_args_t@1@@Z 0040b0f0 f i AudioPlayer.obj
 0001:0000a120       ??$?0$$V@?$_Compressed_pair@V?$allocator@U?$_Tree_node@U?$pair@$$CBV?$basic_string@DU?$char_traits@D@std@@V?$allocator@D@2@@std@@PAUMix_Chunk@@@std@@PAX@std@@@std@@V?$_Tree_val@U?$_Tree_simple_types@U?$pair@$$CBV?$basic_string@DU?$char_traits@D@std@@V?$allocator@D@2@@std@@PAUMix_Chunk@@@std@@@std@@@2@$00@std@@QAE@U_Zero_then_variadic_args_t@1@@Z 0040b120 f i AudioPlayer.obj
 0001:0000a150       ??$?0$$V@?$_Compressed_pair@V?$allocator@U?$_Tree_node@U?$pair@$$CBV?$basic_string@DU?$char_traits@D@std@@V?$allocator@D@2@@std@@PAU_Mix_Music@@@std@@PAX@std@@@std@@V?$_Tree_val@U?$_Tree_simple_types@U?$pair@$$CBV?$basic_string@DU?$char_traits@D@std@@V?$allocator@D@2@@std@@PAU_Mix_Music@@@std@@@std@@@2@$00@std@@QAE@U_Zero_then_variadic_args_t@1@@Z 0040b150 f i AudioPlayer.obj
 0001:0000a180       ??$?0AAPAU?$_Tree_node@U?$pair@$$CBV?$basic_string@DU?$char_traits@D@std@@V?$allocator@D@2@@std@@PAUMix_Chunk@@@std@@PAX@std@@_N$0A@@?$pair@PAU?$_Tree_node@U?$pair@$$CBV?$basic_string@DU?$char_traits@D@std@@V?$allocator@D@2@@std@@PAUMix_Chunk@@@std@@PAX@std@@_N@std@@QAE@AAPAU?$_Tree_node@U?$pair@$$CBV?$basic_string@DU?$char_traits@D@std@@V?$allocator@D@2@@std@@PAUMix_Chunk@@@std@@PAX@1@$$QA_N@Z 0040b180 f i AudioPlayer.obj
 0001:0000a1d0       ??$?0AAPAU?$_Tree_node@U?$pair@$$CBV?$basic_string@DU?$char_traits@D@std@@V?$allocator@D@2@@std@@PAU_Mix_Music@@@std@@PAX@std@@_N$0A@@?$pair@PAU?$_Tree_node@U?$pair@$$CBV?$basic_string@DU?$char_traits@D@std@@V?$allocator@D@2@@std@@PAU_Mix_Music@@@std@@PAX@std@@_N@std@@QAE@AAPAU?$_Tree_node@U?$pair@$$CBV?$basic_string@DU?$char_traits@D@std@@V?$allocator@D@2@@std@@PAU_Mix_Music@@@std@@PAX@1@$$QA_N@Z 0040b1d0 f i AudioPlayer.obj
 0001:0000a220       ??$?0AAPBDAAPAUMix_Chunk@@$0A@@?$pair@$$CBV?$basic_string@DU?$char_traits@D@std@@V?$allocator@D@2@@std@@PAUMix_Chunk@@@std@@QAE@AAPBDAAPAUMix_Chunk@@@Z 0040b220 f i AudioPlayer.obj
 0001:0000a270       ??$?0AAPBDAAPAUMix_Chunk@@@?$_Tree_temp_node@V?$allocator@U?$_Tree_node@U?$pair@$$CBV?$basic_string@DU?$char_traits@D@std@@V?$allocator@D@2@@std@@PAUMix_Chunk@@@std@@PAX@std@@@std@@@std@@QAE@AAV?$allocator@U?$_Tree_node@U?$pair@$$CBV?$basic_string@DU?$char_traits@D@std@@V?$allocator@D@2@@std@@PAUMix_Chunk@@@std@@PAX@std@@@1@PAU?$_Tree_node@U?$pair@$$CBV?$basic_string@DU?$char_traits@D@std@@V?$allocator@D@2@@std@@PAUMix_Chunk@@@std@@PAX@1@AAPBDAAPAUMix_Chunk@@@Z 0040b270 f i AudioPlayer.obj
 0001:0000a390       ??$?0AAPBDAAPAU_Mix_Music@@$0A@@?$pair@$$CBV?$basic_string@DU?$char_traits@D@std@@V?$allocator@D@2@@std@@PAU_Mix_Music@@@std@@QAE@AAPBDAAPAU_Mix_Music@@@Z 0040b390 f i AudioPlayer.obj
 0001:0000a3e0       ??$?0AAPBDAAPAU_Mix_Music@@@?$_Tree_temp_node@V?$allocator@U?$_Tree_node@U?$pair@$$CBV?$basic_string@DU?$char_traits@D@std@@V?$allocator@D@2@@std@@PAU_Mix_Music@@@std@@PAX@std@@@std@@@std@@QAE@AAV?$allocator@U?$_Tree_node@U?$pair@$$CBV?$basic_string@DU?$char_traits@D@std@@V?$allocator@D@2@@std@@PAU_Mix_Music@@@std@@PAX@std@@@1@PAU?$_Tree_node@U?$pair@$$CBV?$basic_string@DU?$char_traits@D@std@@V?$allocator@D@2@@std@@PAU_Mix_Music@@@std@@PAX@1@AAPBDAAPAU_Mix_Music@@@Z 0040b3e0 f i AudioPlayer.obj
 0001:0000a500       ??$?0ABU?$less@V?$basic_string@DU?$char_traits@D@std@@V?$allocator@D@2@@std@@@std@@U_Zero_then_variadic_args_t@1@@?$_Compressed_pair@U?$less@V?$basic_string@DU?$char_traits@D@std@@V?$allocator@D@2@@std@@@std@@V?$_Compressed_pair@V?$allocator@U?$_Tree_node@U?$pair@$$CBV?$basic_string@DU?$char_traits@D@std@@V?$allocator@D@2@@std@@PAUMix_Chunk@@@std@@PAX@std@@@std@@V?$_Tree_val@U?$_Tree_simple_types@U?$pair@$$CBV?$basic_string@DU?$char_traits@D@std@@V?$allocator@D@2@@std@@PAUMix_Chunk@@@std@@@std@@@2@$00@2@$00@std@@QAE@U_One_then_variadic_args_t@1@ABU?$less@V?$basic_string@DU?$char_traits@D@std@@V?$allocator@D@2@@std@@@1@$$QAU_Zero_then_variadic_args_t@1@@Z 0040b500 f i AudioPlayer.obj
 0001:0000a550       ??$?0ABU?$less@V?$basic_string@DU?$char_traits@D@std@@V?$allocator@D@2@@std@@@std@@U_Zero_then_variadic_args_t@1@@?$_Compressed_pair@U?$less@V?$basic_string@DU?$char_traits@D@std@@V?$allocator@D@2@@std@@@std@@V?$_Compressed_pair@V?$allocator@U?$_Tree_node@U?$pair@$$CBV?$basic_string@DU?$char_traits@D@std@@V?$allocator@D@2@@std@@PAU_Mix_Music@@@std@@PAX@std@@@std@@V?$_Tree_val@U?$_Tree_simple_types@U?$pair@$$CBV?$basic_string@DU?$char_traits@D@std@@V?$allocator@D@2@@std@@PAU_Mix_Music@@@std@@@std@@@2@$00@2@$00@std@@QAE@U_One_then_variadic_args_t@1@ABU?$less@V?$basic_string@DU?$char_traits@D@std@@V?$allocator@D@2@@std@@@1@$$QAU_Zero_then_variadic_args_t@1@@Z 0040b550 f i AudioPlayer.obj
 0001:0000a5a0       ??$?0D@?$allocator@U_Container_proxy@std@@@std@@QAE@ABV?$allocator@D@1@@Z 0040b5a0 f i AudioPlayer.obj
 0001:0000a5c0       ??$?0PAU?$_Tree_node@U?$pair@$$CBV?$basic_string@DU?$char_traits@D@std@@V?$allocator@D@2@@std@@PAUMix_Chunk@@@std@@PAX@std@@_N$0A@@?$pair@PAU?$_Tree_node@U?$pair@$$CBV?$basic_string@DU?$char_traits@D@std@@V?$allocator@D@2@@std@@PAUMix_Chunk@@@std@@PAX@std@@_N@std@@QAE@$$QAPAU?$_Tree_node@U?$pair@$$CBV?$basic_string@DU?$char_traits@D@std@@V?$allocator@D@2@@std@@PAUMix_Chunk@@@std@@PAX@1@$$QA_N@Z 0040b5c0 f i AudioPlayer.obj
 0001:0000a610       ??$?0PAU?$_Tree_node@U?$pair@$$CBV?$basic_string@DU?$char_traits@D@std@@V?$allocator@D@2@@std@@PAU_Mix_Music@@@std@@PAX@std@@_N$0A@@?$pair@PAU?$_Tree_node@U?$pair@$$CBV?$basic_string@DU?$char_traits@D@std@@V?$allocator@D@2@@std@@PAU_Mix_Music@@@std@@PAX@std@@_N@std@@QAE@$$QAPAU?$_Tree_node@U?$pair@$$CBV?$basic_string@DU?$char_traits@D@std@@V?$allocator@D@2@@std@@PAU_Mix_Music@@@std@@PAX@1@$$QA_N@Z 0040b610 f i AudioPlayer.obj
 0001:0000a660       ??$?0U?$_Tree_node@U?$pair@$$CBV?$basic_string@DU?$char_traits@D@std@@V?$allocator@D@2@@std@@PAUMix_Chunk@@@std@@PAX@std@@@?$allocator@U_Container_proxy@std@@@std@@QAE@ABV?$allocator@U?$_Tree_node@U?$pair@$$CBV?$basic_string@DU?$char_traits@D@std@@V?$allocator@D@2@@std@@PAUMix_Chunk@@@std@@PAX@std@@@1@@Z 0040b660 f i AudioPlayer.obj
 0001:0000a680       ??$?0U?$_Tree_node@U?$pair@$$CBV?$basic_string@DU?$char_traits@D@std@@V?$allocator@D@2@@std@@PAU_Mix_Music@@@std@@PAX@std@@@?$allocator@U_Container_proxy@std@@@std@@QAE@ABV?$allocator@U?$_Tree_node@U?$pair@$$CBV?$basic_string@DU?$char_traits@D@std@@V?$allocator@D@2@@std@@PAU_Mix_Music@@@std@@PAX@std@@@1@@Z 0040b680 f i AudioPlayer.obj
 0001:0000a6a0       ??$?0V?$_Tree_iterator@V?$_Tree_val@U?$_Tree_simple_types@U?$pair@$$CBV?$basic_string@DU?$char_traits@D@std@@V?$allocator@D@2@@std@@PAUMix_Chunk@@@std@@@std@@@std@@@std@@AB_N$0A@@?$pair@V?$_Tree_iterator@V?$_Tree_val@U?$_Tree_simple_types@U?$pair@$$CBV?$basic_string@DU?$char_traits@D@std@@V?$allocator@D@2@@std@@PAUMix_Chunk@@@std@@@std@@@std@@@std@@_N@std@@QAE@$$QAV?$_Tree_iterator@V?$_Tree_val@U?$_Tree_simple_types@U?$pair@$$CBV?$basic_string@DU?$char_traits@D@std@@V?$allocator@D@2@@std@@PAUMix_Chunk@@@std@@@std@@@std@@@1@AB_N@Z 0040b6a0 f i AudioPlayer.obj
 0001:0000a6f0       ??$?0V?$_Tree_iterator@V?$_Tree_val@U?$_Tree_simple_types@U?$pair@$$CBV?$basic_string@DU?$char_traits@D@std@@V?$allocator@D@2@@std@@PAU_Mix_Music@@@std@@@std@@@std@@@std@@AB_N$0A@@?$pair@V?$_Tree_iterator@V?$_Tree_val@U?$_Tree_simple_types@U?$pair@$$CBV?$basic_string@DU?$char_traits@D@std@@V?$allocator@D@2@@std@@PAU_Mix_Music@@@std@@@std@@@std@@@std@@_N@std@@QAE@$$QAV?$_Tree_iterator@V?$_Tree_val@U?$_Tree_simple_types@U?$pair@$$CBV?$basic_string@DU?$char_traits@D@std@@V?$allocator@D@2@@std@@PAU_Mix_Music@@@std@@@std@@@std@@@1@AB_N@Z 0040b6f0 f i AudioPlayer.obj
 0001:0000a740       ??$?8DU?$char_traits@D@std@@V?$allocator@D@1@@std@@YA_NABV?$basic_string@DU?$char_traits@D@std@@V?$allocator@D@2@@0@QBD@Z 0040b740 f i AudioPlayer.obj
 0001:0000a760       ??$?MDU?$char_traits@D@std@@V?$allocator@D@1@@std@@YA_NABV?$basic_string@DU?$char_traits@D@std@@V?$allocator@D@2@@0@0@Z 0040b760 f i AudioPlayer.obj
 0001:0000a7a0       ??$_Alloc_proxy@V?$allocator@U_Container_proxy@std@@@std@@@_Container_base12@std@@QAEX$$QAV?$allocator@U_Container_proxy@std@@@1@@Z 0040b7a0 f i AudioPlayer.obj
 0001:0000a800       ??$_Allocate@$07U_Default_allocate_traits@std@@$0A@@std@@YAPAXI@Z 0040b800 f i AudioPlayer.obj
 0001:0000a840       ??$_Allocate_manually_vector_aligned@U_Default_allocate_traits@std@@@std@@YAPAXI@Z 0040b840 f i AudioPlayer.obj
 0001:0000a920       ??$_Buyheadnode@V?$allocator@U?$_Tree_node@U?$pair@$$CBV?$basic_string@DU?$char_traits@D@std@@V?$allocator@D@2@@std@@PAUMix_Chunk@@@std@@PAX@std@@@std@@@?$_Tree_node@U?$pair@$$CBV?$basic_string@DU?$char_traits@D@std@@V?$allocator@D@2@@std@@PAUMix_Chunk@@@std@@PAX@std@@SAPAU01@AAV?$allocator@U?$_Tree_node@U?$pair@$$CBV?$basic_string@DU?$char_traits@D@std@@V?$allocator@D@2@@std@@PAUMix_Chunk@@@std@@PAX@std@@@1@@Z 0040b920 f i AudioPlayer.obj
 0001:0000a9a0       ??$_Buyheadnode@V?$allocator@U?$_Tree_node@U?$pair@$$CBV?$basic_string@DU?$char_traits@D@std@@V?$allocator@D@2@@std@@PAU_Mix_Music@@@std@@PAX@std@@@std@@@?$_Tree_node@U?$pair@$$CBV?$basic_string@DU?$char_traits@D@std@@V?$allocator@D@2@@std@@PAU_Mix_Music@@@std@@PAX@std@@SAPAU01@AAV?$allocator@U?$_Tree_node@U?$pair@$$CBV?$basic_string@DU?$char_traits@D@std@@V?$allocator@D@2@@std@@PAU_Mix_Music@@@std@@PAX@std@@@1@@Z 0040b9a0 f i AudioPlayer.obj
 0001:0000aa20       ??$_Construct_in_place@PADABQAD@std@@YAXAAPADABQAD@Z 0040ba20 f i AudioPlayer.obj
 0001:0000aa70       ??$_Construct_in_place@PAU?$_Tree_node@U?$pair@$$CBV?$basic_string@DU?$char_traits@D@std@@V?$allocator@D@2@@std@@PAUMix_Chunk@@@std@@PAX@std@@AAPAU12@@std@@YAXAAPAU?$_Tree_node@U?$pair@$$CBV?$basic_string@DU?$char_traits@D@std@@V?$allocator@D@2@@std@@PAUMix_Chunk@@@std@@PAX@0@0@Z 0040ba70 f i AudioPlayer.obj
 0001:0000aac0       ??$_Construct_in_place@PAU?$_Tree_node@U?$pair@$$CBV?$basic_string@DU?$char_traits@D@std@@V?$allocator@D@2@@std@@PAUMix_Chunk@@@std@@PAX@std@@ABQAU12@@std@@YAXAAPAU?$_Tree_node@U?$pair@$$CBV?$basic_string@DU?$char_traits@D@std@@V?$allocator@D@2@@std@@PAUMix_Chunk@@@std@@PAX@0@ABQAU10@@Z 0040bac0 f i AudioPlayer.obj
 0001:0000ab10       ??$_Construct_in_place@PAU?$_Tree_node@U?$pair@$$CBV?$basic_string@DU?$char_traits@D@std@@V?$allocator@D@2@@std@@PAU_Mix_Music@@@std@@PAX@std@@AAPAU12@@std@@YAXAAPAU?$_Tree_node@U?$pair@$$CBV?$basic_string@DU?$char_traits@D@std@@V?$allocator@D@2@@std@@PAU_Mix_Music@@@std@@PAX@0@0@Z 0040bb10 f i AudioPlayer.obj
 0001:0000ab60       ??$_Construct_in_place@PAU?$_Tree_node@U?$pair@$$CBV?$basic_string@DU?$char_traits@D@std@@V?$allocator@D@2@@std@@PAU_Mix_Music@@@std@@PAX@std@@ABQAU12@@std@@YAXAAPAU?$_Tree_node@U?$pair@$$CBV?$basic_string@DU?$char_traits@D@std@@V?$allocator@D@2@@std@@PAU_Mix_Music@@@std@@PAX@0@ABQAU10@@Z 0040bb60 f i AudioPlayer.obj
 0001:0000abb0       ??$_Construct_in_place@U_Container_proxy@std@@PAU_Container_base12@2@@std@@YAXAAU_Container_proxy@0@$$QAPAU_Container_base12@0@@Z 0040bbb0 f i AudioPlayer.obj
 0001:0000ac00       ??$_Convert_size@I@std@@YAII@Z 0040bc00 f i AudioPlayer.obj
 0001:0000ac10       ??$_Deallocate@$07$0A@@std@@YAXPAXI@Z 0040bc10 f i AudioPlayer.obj
 0001:0000ac80       ??$_Deallocate_plain@V?$allocator@U_Container_proxy@std@@@std@@@std@@YAXAAV?$allocator@U_Container_proxy@std@@@0@QAU_Container_proxy@0@@Z 0040bc80 f i AudioPlayer.obj
 0001:0000ace0       ??$_Debug_lt_pred@ABU?$less@V?$basic_string@DU?$char_traits@D@std@@V?$allocator@D@2@@std@@@std@@ABV?$basic_string@DU?$char_traits@D@std@@V?$allocator@D@2@@2@ABV32@$0A@@std@@YA_NABU?$less@V?$basic_string@DU?$char_traits@D@std@@V?$allocator@D@2@@std@@@0@ABV?$basic_string@DU?$char_traits@D@std@@V?$allocator@D@2@@0@1@Z 0040bce0 f i AudioPlayer.obj
 0001:0000ad90       ??$_Delete_plain_internal@V?$allocator@U_Container_proxy@std@@@std@@@std@@YAXAAV?$allocator@U_Container_proxy@std@@@0@QAU_Container_proxy@0@@Z 0040bd90 f i AudioPlayer.obj
 0001:0000adb0       ??$_Destroy_in_place@PAD@std@@YAXAAPAD@Z 0040bdb0 f i AudioPlayer.obj
 0001:0000adc0       ??$_Destroy_in_place@PAU?$_Tree_node@U?$pair@$$CBV?$basic_string@DU?$char_traits@D@std@@V?$allocator@D@2@@std@@PAUMix_Chunk@@@std@@PAX@std@@@std@@YAXAAPAU?$_Tree_node@U?$pair@$$CBV?$basic_string@DU?$char_traits@D@std@@V?$allocator@D@2@@std@@PAUMix_Chunk@@@std@@PAX@0@@Z 0040bdc0 f i AudioPlayer.obj
 0001:0000add0       ??$_Destroy_in_place@PAU?$_Tree_node@U?$pair@$$CBV?$basic_string@DU?$char_traits@D@std@@V?$allocator@D@2@@std@@PAU_Mix_Music@@@std@@PAX@std@@@std@@YAXAAPAU?$_Tree_node@U?$pair@$$CBV?$basic_string@DU?$char_traits@D@std@@V?$allocator@D@2@@std@@PAU_Mix_Music@@@std@@PAX@0@@Z 0040bdd0 f i AudioPlayer.obj
 0001:0000ade0       ??$_Emplace@AAPBDAAPAUMix_Chunk@@@?$_Tree@V?$_Tmap_traits@V?$basic_string@DU?$char_traits@D@std@@V?$allocator@D@2@@std@@PAUMix_Chunk@@U?$less@V?$basic_string@DU?$char_traits@D@std@@V?$allocator@D@2@@std@@@2@V?$allocator@U?$pair@$$CBV?$basic_string@DU?$char_traits@D@std@@V?$allocator@D@2@@std@@PAUMix_Chunk@@@std@@@2@$0A@@std@@@std@@IAE?AU?$pair@PAU?$_Tree_node@U?$pair@$$CBV?$basic_string@DU?$char_traits@D@std@@V?$allocator@D@2@@std@@PAUMix_Chunk@@@std@@PAX@std@@_N@1@AAPBDAAPAUMix_Chunk@@@Z 0040bde0 f i AudioPlayer.obj
 0001:0000af70       ??$_Emplace@AAPBDAAPAU_Mix_Music@@@?$_Tree@V?$_Tmap_traits@V?$basic_string@DU?$char_traits@D@std@@V?$allocator@D@2@@std@@PAU_Mix_Music@@U?$less@V?$basic_string@DU?$char_traits@D@std@@V?$allocator@D@2@@std@@@2@V?$allocator@U?$pair@$$CBV?$basic_string@DU?$char_traits@D@std@@V?$allocator@D@2@@std@@PAU_Mix_Music@@@std@@@2@$0A@@std@@@std@@IAE?AU?$pair@PAU?$_Tree_node@U?$pair@$$CBV?$basic_string@DU?$char_traits@D@std@@V?$allocator@D@2@@std@@PAU_Mix_Music@@@std@@PAX@std@@_N@1@AAPBDAAPAU_Mix_Music@@@Z 0040bf70 f i AudioPlayer.obj
 0001:0000b100       ??$_Erase_head@V?$allocator@U?$_Tree_node@U?$pair@$$CBV?$basic_string@DU?$char_traits@D@std@@V?$allocator@D@2@@std@@PAUMix_Chunk@@@std@@PAX@std@@@std@@@?$_Tree_val@U?$_Tree_simple_types@U?$pair@$$CBV?$basic_string@DU?$char_traits@D@std@@V?$allocator@D@2@@std@@PAUMix_Chunk@@@std@@@std@@@std@@QAEXAAV?$allocator@U?$_Tree_node@U?$pair@$$CBV?$basic_string@DU?$char_traits@D@std@@V?$allocator@D@2@@std@@PAUMix_Chunk@@@std@@PAX@std@@@1@@Z 0040c100 f i AudioPlayer.obj
 0001:0000b150       ??$_Erase_head@V?$allocator@U?$_Tree_node@U?$pair@$$CBV?$basic_string@DU?$char_traits@D@std@@V?$allocator@D@2@@std@@PAU_Mix_Music@@@std@@PAX@std@@@std@@@?$_Tree_val@U?$_Tree_simple_types@U?$pair@$$CBV?$basic_string@DU?$char_traits@D@std@@V?$allocator@D@2@@std@@PAU_Mix_Music@@@std@@@std@@@std@@QAEXAAV?$allocator@U?$_Tree_node@U?$pair@$$CBV?$basic_string@DU?$char_traits@D@std@@V?$allocator@D@2@@std@@PAU_Mix_Music@@@std@@PAX@std@@@1@@Z 0040c150 f i AudioPlayer.obj
 0001:0000b1a0       ??$_Erase_tree@V?$allocator@U?$_Tree_node@U?$pair@$$CBV?$basic_string@DU?$char_traits@D@std@@V?$allocator@D@2@@std@@PAUMix_Chunk@@@std@@PAX@std@@@std@@@?$_Tree_val@U?$_Tree_simple_types@U?$pair@$$CBV?$basic_string@DU?$char_traits@D@std@@V?$allocator@D@2@@std@@PAUMix_Chunk@@@std@@@std@@@std@@QAEXAAV?$allocator@U?$_Tree_node@U?$pair@$$CBV?$basic_string@DU?$char_traits@D@std@@V?$allocator@D@2@@std@@PAUMix_Chunk@@@std@@PAX@std@@@1@PAU?$_Tree_node@U?$pair@$$CBV?$basic_string@DU?$char_traits@D@std@@V?$allocator@D@2@@std@@PAUMix_Chunk@@@std@@PAX@1@@Z 0040c1a0 f i AudioPlayer.obj
 0001:0000b240       ??$_Erase_tree@V?$allocator@U?$_Tree_node@U?$pair@$$CBV?$basic_string@DU?$char_traits@D@std@@V?$allocator@D@2@@std@@PAU_Mix_Music@@@std@@PAX@std@@@std@@@?$_Tree_val@U?$_Tree_simple_types@U?$pair@$$CBV?$basic_string@DU?$char_traits@D@std@@V?$allocator@D@2@@std@@PAU_Mix_Music@@@std@@@std@@@std@@QAEXAAV?$allocator@U?$_Tree_node@U?$pair@$$CBV?$basic_string@DU?$char_traits@D@std@@V?$allocator@D@2@@std@@PAU_Mix_Music@@@std@@PAX@std@@@1@PAU?$_Tree_node@U?$pair@$$CBV?$basic_string@DU?$char_traits@D@std@@V?$allocator@D@2@@std@@PAU_Mix_Music@@@std@@PAX@1@@Z 0040c240 f i AudioPlayer.obj
 0001:0000b2e0       ??$_Find_lower_bound@V?$basic_string@DU?$char_traits@D@std@@V?$allocator@D@2@@std@@@?$_Tree@V?$_Tmap_traits@V?$basic_string@DU?$char_traits@D@std@@V?$allocator@D@2@@std@@PAUMix_Chunk@@U?$less@V?$basic_string@DU?$char_traits@D@std@@V?$allocator@D@2@@std@@@2@V?$allocator@U?$pair@$$CBV?$basic_string@DU?$char_traits@D@std@@V?$allocator@D@2@@std@@PAUMix_Chunk@@@std@@@2@$0A@@std@@@std@@IBE?AU?$_Tree_find_result@PAU?$_Tree_node@U?$pair@$$CBV?$basic_string@DU?$char_traits@D@std@@V?$allocator@D@2@@std@@PAUMix_Chunk@@@std@@PAX@std@@@1@ABV?$basic_string@DU?$char_traits@D@std@@V?$allocator@D@2@@1@@Z 0040c2e0 f i AudioPlayer.obj
 0001:0000b3d0       ??$_Find_lower_bound@V?$basic_string@DU?$char_traits@D@std@@V?$allocator@D@2@@std@@@?$_Tree@V?$_Tmap_traits@V?$basic_string@DU?$char_traits@D@std@@V?$allocator@D@2@@std@@PAU_Mix_Music@@U?$less@V?$basic_string@DU?$char_traits@D@std@@V?$allocator@D@2@@std@@@2@V?$allocator@U?$pair@$$CBV?$basic_string@DU?$char_traits@D@std@@V?$allocator@D@2@@std@@PAU_Mix_Music@@@std@@@2@$0A@@std@@@std@@IBE?AU?$_Tree_find_result@PAU?$_Tree_node@U?$pair@$$CBV?$basic_string@DU?$char_traits@D@std@@V?$allocator@D@2@@std@@PAU_Mix_Music@@@std@@PAX@std@@@1@ABV?$basic_string@DU?$char_traits@D@std@@V?$allocator@D@2@@1@@Z 0040c3d0 f i AudioPlayer.obj
 0001:0000b4c0       ??$_Freenode0@V?$allocator@U?$_Tree_node@U?$pair@$$CBV?$basic_string@DU?$char_traits@D@std@@V?$allocator@D@2@@std@@PAUMix_Chunk@@@std@@PAX@std@@@std@@@?$_Tree_node@U?$pair@$$CBV?$basic_string@DU?$char_traits@D@std@@V?$allocator@D@2@@std@@PAUMix_Chunk@@@std@@PAX@std@@SAXAAV?$allocator@U?$_Tree_node@U?$pair@$$CBV?$basic_string@DU?$char_traits@D@std@@V?$allocator@D@2@@std@@PAUMix_Chunk@@@std@@PAX@std@@@1@PAU01@@Z 0040c4c0 f i AudioPlayer.obj
 0001:0000b550       ??$_Freenode0@V?$allocator@U?$_Tree_node@U?$pair@$$CBV?$basic_string@DU?$char_traits@D@std@@V?$allocator@D@2@@std@@PAU_Mix_Music@@@std@@PAX@std@@@std@@@?$_Tree_node@U?$pair@$$CBV?$basic_string@DU?$char_traits@D@std@@V?$allocator@D@2@@std@@PAU_Mix_Music@@@std@@PAX@std@@SAXAAV?$allocator@U?$_Tree_node@U?$pair@$$CBV?$basic_string@DU?$char_traits@D@std@@V?$allocator@D@2@@std@@PAU_Mix_Music@@@std@@PAX@std@@@1@PAU01@@Z 0040c550 f i AudioPlayer.obj
 0001:0000b5e0       ??$_Freenode@V?$allocator@U?$_Tree_node@U?$pair@$$CBV?$basic_string@DU?$char_traits@D@std@@V?$allocator@D@2@@std@@PAUMix_Chunk@@@std@@PAX@std@@@std@@@?$_Tree_node@U?$pair@$$CBV?$basic_string@DU?$char_traits@D@std@@V?$allocator@D@2@@std@@PAUMix_Chunk@@@std@@PAX@std@@SAXAAV?$allocator@U?$_Tree_node@U?$pair@$$CBV?$basic_string@DU?$char_traits@D@std@@V?$allocator@D@2@@std@@PAUMix_Chunk@@@std@@PAX@std@@@1@PAU01@@Z 0040c5e0 f i AudioPlayer.obj
 0001:0000b660       ??$_Freenode@V?$allocator@U?$_Tree_node@U?$pair@$$CBV?$basic_string@DU?$char_traits@D@std@@V?$allocator@D@2@@std@@PAU_Mix_Music@@@std@@PAX@std@@@std@@@?$_Tree_node@U?$pair@$$CBV?$basic_string@DU?$char_traits@D@std@@V?$allocator@D@2@@std@@PAU_Mix_Music@@@std@@PAX@std@@SAXAAV?$allocator@U?$_Tree_node@U?$pair@$$CBV?$basic_string@DU?$char_traits@D@std@@V?$allocator@D@2@@std@@PAU_Mix_Music@@@std@@PAX@std@@@1@PAU01@@Z 0040c660 f i AudioPlayer.obj
 0001:0000b6e0       ??$_Get_size_of_n@$00@std@@YAII@Z 0040c6e0 f i AudioPlayer.obj
 0001:0000b700       ??$_Get_size_of_n@$07@std@@YAII@Z 0040c700 f i AudioPlayer.obj
 0001:0000b740       ??$_Get_size_of_n@$0DA@@std@@YAII@Z 0040c740 f i AudioPlayer.obj
 0001:0000b770       ??$_Kfn@$$CBV?$basic_string@DU?$char_traits@D@std@@V?$allocator@D@2@@std@@PAUMix_Chunk@@@?$_Tmap_traits@V?$basic_string@DU?$char_traits@D@std@@V?$allocator@D@2@@std@@PAUMix_Chunk@@U?$less@V?$basic_string@DU?$char_traits@D@std@@V?$allocator@D@2@@std@@@2@V?$allocator@U?$pair@$$CBV?$basic_string@DU?$char_traits@D@std@@V?$allocator@D@2@@std@@PAUMix_Chunk@@@std@@@2@$0A@@std@@SAABV?$basic_string@DU?$char_traits@D@std@@V?$allocator@D@2@@1@ABU?$pair@$$CBV?$basic_string@DU?$char_traits@D@std@@V?$allocator@D@2@@std@@PAUMix_Chunk@@@1@@Z 0040c770 f i AudioPlayer.obj
 0001:0000b780       ??$_Kfn@$$CBV?$basic_string@DU?$char_traits@D@std@@V?$allocator@D@2@@std@@PAU_Mix_Music@@@?$_Tmap_traits@V?$basic_string@DU?$char_traits@D@std@@V?$allocator@D@2@@std@@PAU_Mix_Music@@U?$less@V?$basic_string@DU?$char_traits@D@std@@V?$allocator@D@2@@std@@@2@V?$allocator@U?$pair@$$CBV?$basic_string@DU?$char_traits@D@std@@V?$allocator@D@2@@std@@PAU_Mix_Music@@@std@@@2@$0A@@std@@SAABV?$basic_string@DU?$char_traits@D@std@@V?$allocator@D@2@@1@ABU?$pair@$$CBV?$basic_string@DU?$char_traits@D@std@@V?$allocator@D@2@@std@@PAU_Mix_Music@@@1@@Z 0040c780 f i AudioPlayer.obj
 0001:0000b790       ??$_Lower_bound_duplicate@V?$basic_string@DU?$char_traits@D@std@@V?$allocator@D@2@@std@@@?$_Tree@V?$_Tmap_traits@V?$basic_string@DU?$char_traits@D@std@@V?$allocator@D@2@@std@@PAUMix_Chunk@@U?$less@V?$basic_string@DU?$char_traits@D@std@@V?$allocator@D@2@@std@@@2@V?$allocator@U?$pair@$$CBV?$basic_string@DU?$char_traits@D@std@@V?$allocator@D@2@@std@@PAUMix_Chunk@@@std@@@2@$0A@@std@@@std@@IBE_NQAU?$_Tree_node@U?$pair@$$CBV?$basic_string@DU?$char_traits@D@std@@V?$allocator@D@2@@std@@PAUMix_Chunk@@@std@@PAX@1@ABV?$basic_string@DU?$char_traits@D@std@@V?$allocator@D@2@@1@@Z 0040c790 f i AudioPlayer.obj
 0001:0000b800       ??$_Lower_bound_duplicate@V?$basic_string@DU?$char_traits@D@std@@V?$allocator@D@2@@std@@@?$_Tree@V?$_Tmap_traits@V?$basic_string@DU?$char_traits@D@std@@V?$allocator@D@2@@std@@PAU_Mix_Music@@U?$less@V?$basic_string@DU?$char_traits@D@std@@V?$allocator@D@2@@std@@@2@V?$allocator@U?$pair@$$CBV?$basic_string@DU?$char_traits@D@std@@V?$allocator@D@2@@std@@PAU_Mix_Music@@@std@@@2@$0A@@std@@@std@@IBE_NQAU?$_Tree_node@U?$pair@$$CBV?$basic_string@DU?$char_traits@D@std@@V?$allocator@D@2@@std@@PAU_Mix_Music@@@std@@PAX@1@ABV?$basic_string@DU?$char_traits@D@std@@V?$allocator@D@2@@1@@Z 0040c800 f i AudioPlayer.obj
 0001:0000b870       ??$_Max_value@I@std@@YAABIABI0@Z 0040c870 f i AudioPlayer.obj
 0001:0000b8b0       ??$_Min_value@I@std@@YAABIABI0@Z 0040c8b0 f i AudioPlayer.obj
 0001:0000b8f0       ??$_Reallocate_for@V<lambda_9366063389c5f42a00a5088cf24e69de>@@PBD@?$basic_string@DU?$char_traits@D@std@@V?$allocator@D@2@@std@@AAEAAV01@IV<lambda_9366063389c5f42a00a5088cf24e69de>@@PBD@Z 0040c8f0 f i AudioPlayer.obj
 0001:0000b9f0       ??$_Traits_compare@U?$char_traits@D@std@@@std@@YAHQBDI0I@Z 0040c9f0 f i AudioPlayer.obj
 0001:0000ba60       ??$_Traits_equal@U?$char_traits@D@std@@@std@@YA_NQBDI0I@Z 0040ca60 f i AudioPlayer.obj
 0001:0000bab0       ??$_Unfancy@D@std@@YAPADPAD@Z 0040cab0 f i AudioPlayer.obj
 0001:0000bac0       ??$_Unfancy@U_Container_proxy@std@@@std@@YAPAU_Container_proxy@0@PAU10@@Z 0040cac0 f i AudioPlayer.obj
 0001:0000bad0       ??$addressof@$$CBV?$_Tree_val@U?$_Tree_simple_types@U?$pair@$$CBV?$basic_string@DU?$char_traits@D@std@@V?$allocator@D@2@@std@@PAUMix_Chunk@@@std@@@std@@@std@@@std@@YAPBV?$_Tree_val@U?$_Tree_simple_types@U?$pair@$$CBV?$basic_string@DU?$char_traits@D@std@@V?$allocator@D@2@@std@@PAUMix_Chunk@@@std@@@std@@@0@ABV10@@Z 0040cad0 f i AudioPlayer.obj
 0001:0000bae0       ??$addressof@$$CBV?$_Tree_val@U?$_Tree_simple_types@U?$pair@$$CBV?$basic_string@DU?$char_traits@D@std@@V?$allocator@D@2@@std@@PAU_Mix_Music@@@std@@@std@@@std@@@std@@YAPBV?$_Tree_val@U?$_Tree_simple_types@U?$pair@$$CBV?$basic_string@DU?$char_traits@D@std@@V?$allocator@D@2@@std@@PAU_Mix_Music@@@std@@@std@@@0@ABV10@@Z 0040cae0 f i AudioPlayer.obj
 0001:0000baf0       ??$addressof@PAD@std@@YAPAPADAAPAD@Z 0040caf0 f i AudioPlayer.obj
 0001:0000bb00       ??$addressof@PAU?$_Tree_node@U?$pair@$$CBV?$basic_string@DU?$char_traits@D@std@@V?$allocator@D@2@@std@@PAUMix_Chunk@@@std@@PAX@std@@@std@@YAPAPAU?$_Tree_node@U?$pair@$$CBV?$basic_string@DU?$char_traits@D@std@@V?$allocator@D@2@@std@@PAUMix_Chunk@@@std@@PAX@0@AAPAU10@@Z 0040cb00 f i AudioPlayer.obj
 0001:0000bb10       ??$addressof@PAU?$_Tree_node@U?$pair@$$CBV?$basic_string@DU?$char_traits@D@std@@V?$allocator@D@2@@std@@PAU_Mix_Music@@@std@@PAX@std@@@std@@YAPAPAU?$_Tree_node@U?$pair@$$CBV?$basic_string@DU?$char_traits@D@std@@V?$allocator@D@2@@std@@PAU_Mix_Music@@@std@@PAX@0@AAPAU10@@Z 0040cb10 f i AudioPlayer.obj
 0001:0000bb20       ??$addressof@U?$pair@$$CBV?$basic_string@DU?$char_traits@D@std@@V?$allocator@D@2@@std@@PAUMix_Chunk@@@std@@@std@@YAPAU?$pair@$$CBV?$basic_string@DU?$char_traits@D@std@@V?$allocator@D@2@@std@@PAUMix_Chunk@@@0@AAU10@@Z 0040cb20 f i AudioPlayer.obj
 0001:0000bb30       ??$addressof@U?$pair@$$CBV?$basic_string@DU?$char_traits@D@std@@V?$allocator@D@2@@std@@PAU_Mix_Music@@@std@@@std@@YAPAU?$pair@$$CBV?$basic_string@DU?$char_traits@D@std@@V?$allocator@D@2@@std@@PAU_Mix_Music@@@0@AAU10@@Z 0040cb30 f i AudioPlayer.obj
 0001:0000bb40       ??$addressof@U_Container_base12@std@@@std@@YAPAU_Container_base12@0@AAU10@@Z 0040cb40 f i AudioPlayer.obj
 0001:0000bb50       ??$addressof@U_Container_proxy@std@@@std@@YAPAU_Container_proxy@0@AAU10@@Z 0040cb50 f i AudioPlayer.obj
 0001:0000bb60       ??$addressof@V?$_Tree_val@U?$_Tree_simple_types@U?$pair@$$CBV?$basic_string@DU?$char_traits@D@std@@V?$allocator@D@2@@std@@PAUMix_Chunk@@@std@@@std@@@std@@@std@@YAPAV?$_Tree_val@U?$_Tree_simple_types@U?$pair@$$CBV?$basic_string@DU?$char_traits@D@std@@V?$allocator@D@2@@std@@PAUMix_Chunk@@@std@@@std@@@0@AAV10@@Z 0040cb60 f i AudioPlayer.obj
 0001:0000bb70       ??$addressof@V?$_Tree_val@U?$_Tree_simple_types@U?$pair@$$CBV?$basic_string@DU?$char_traits@D@std@@V?$allocator@D@2@@std@@PAU_Mix_Music@@@std@@@std@@@std@@@std@@YAPAV?$_Tree_val@U?$_Tree_simple_types@U?$pair@$$CBV?$basic_string@DU?$char_traits@D@std@@V?$allocator@D@2@@std@@PAU_Mix_Music@@@std@@@std@@@0@AAV10@@Z 0040cb70 f i AudioPlayer.obj
 0001:0000bb80       ??$construct@U?$pair@$$CBV?$basic_string@DU?$char_traits@D@std@@V?$allocator@D@2@@std@@PAUMix_Chunk@@@std@@AAPBDAAPAUMix_Chunk@@@?$_Default_allocator_traits@V?$allocator@U?$_Tree_node@U?$pair@$$CBV?$basic_string@DU?$char_traits@D@std@@V?$allocator@D@2@@std@@PAUMix_Chunk@@@std@@PAX@std@@@std@@@std@@SAXAAV?$allocator@U?$_Tree_node@U?$pair@$$CBV?$basic_string@DU?$char_traits@D@std@@V?$allocator@D@2@@std@@PAUMix_Chunk@@@std@@PAX@std@@@1@QAU?$pair@$$CBV?$basic_string@DU?$char_traits@D@std@@V?$allocator@D@2@@std@@PAUMix_Chunk@@@1@AAPBDAAPAUMix_Chunk@@@Z 0040cb80 f i AudioPlayer.obj
 0001:0000bbd0       ??$construct@U?$pair@$$CBV?$basic_string@DU?$char_traits@D@std@@V?$allocator@D@2@@std@@PAU_Mix_Music@@@std@@AAPBDAAPAU_Mix_Music@@@?$_Default_allocator_traits@V?$allocator@U?$_Tree_node@U?$pair@$$CBV?$basic_string@DU?$char_traits@D@std@@V?$allocator@D@2@@std@@PAU_Mix_Music@@@std@@PAX@std@@@std@@@std@@SAXAAV?$allocator@U?$_Tree_node@U?$pair@$$CBV?$basic_string@DU?$char_traits@D@std@@V?$allocator@D@2@@std@@PAU_Mix_Music@@@std@@PAX@std@@@1@QAU?$pair@$$CBV?$basic_string@DU?$char_traits@D@std@@V?$allocator@D@2@@std@@PAU_Mix_Music@@@1@AAPBDAAPAU_Mix_Music@@@Z 0040cbd0 f i AudioPlayer.obj
 0001:0000bc20       ??$destroy@U?$pair@$$CBV?$basic_string@DU?$char_traits@D@std@@V?$allocator@D@2@@std@@PAUMix_Chunk@@@std@@@?$_Default_allocator_traits@V?$allocator@U?$_Tree_node@U?$pair@$$CBV?$basic_string@DU?$char_traits@D@std@@V?$allocator@D@2@@std@@PAUMix_Chunk@@@std@@PAX@std@@@std@@@std@@SAXAAV?$allocator@U?$_Tree_node@U?$pair@$$CBV?$basic_string@DU?$char_traits@D@std@@V?$allocator@D@2@@std@@PAUMix_Chunk@@@std@@PAX@std@@@1@QAU?$pair@$$CBV?$basic_string@DU?$char_traits@D@std@@V?$allocator@D@2@@std@@PAUMix_Chunk@@@1@@Z 0040cc20 f i AudioPlayer.obj
 0001:0000bc40       ??$destroy@U?$pair@$$CBV?$basic_string@DU?$char_traits@D@std@@V?$allocator@D@2@@std@@PAU_Mix_Music@@@std@@@?$_Default_allocator_traits@V?$allocator@U?$_Tree_node@U?$pair@$$CBV?$basic_string@DU?$char_traits@D@std@@V?$allocator@D@2@@std@@PAU_Mix_Music@@@std@@PAX@std@@@std@@@std@@SAXAAV?$allocator@U?$_Tree_node@U?$pair@$$CBV?$basic_string@DU?$char_traits@D@std@@V?$allocator@D@2@@std@@PAU_Mix_Music@@@std@@PAX@std@@@1@QAU?$pair@$$CBV?$basic_string@DU?$char_traits@D@std@@V?$allocator@D@2@@std@@PAU_Mix_Music@@@1@@Z 0040cc40 f i AudioPlayer.obj
 0001:0000bc60       ??$emplace@AAPBDAAPAUMix_Chunk@@@?$_Tree@V?$_Tmap_traits@V?$basic_string@DU?$char_traits@D@std@@V?$allocator@D@2@@std@@PAUMix_Chunk@@U?$less@V?$basic_string@DU?$char_traits@D@std@@V?$allocator@D@2@@std@@@2@V?$allocator@U?$pair@$$CBV?$basic_string@DU?$char_traits@D@std@@V?$allocator@D@2@@std@@PAUMix_Chunk@@@std@@@2@$0A@@std@@@std@@QAE?AU?$pair@V?$_Tree_iterator@V?$_Tree_val@U?$_Tree_simple_types@U?$pair@$$CBV?$basic_string@DU?$char_traits@D@std@@V?$allocator@D@2@@std@@PAUMix_Chunk@@@std@@@std@@@std@@@std@@_N@1@AAPBDAAPAUMix_Chunk@@@Z 0040cc60 f i AudioPlayer.obj
 0001:0000bd00       ??$emplace@AAPBDAAPAU_Mix_Music@@@?$_Tree@V?$_Tmap_traits@V?$basic_string@DU?$char_traits@D@std@@V?$allocator@D@2@@std@@PAU_Mix_Music@@U?$less@V?$basic_string@DU?$char_traits@D@std@@V?$allocator@D@2@@std@@@2@V?$allocator@U?$pair@$$CBV?$basic_string@DU?$char_traits@D@std@@V?$allocator@D@2@@std@@PAU_Mix_Music@@@std@@@2@$0A@@std@@@std@@QAE?AU?$pair@V?$_Tree_iterator@V?$_Tree_val@U?$_Tree_simple_types@U?$pair@$$CBV?$basic_string@DU?$char_traits@D@std@@V?$allocator@D@2@@std@@PAU_Mix_Music@@@std@@@std@@@std@@@std@@_N@1@AAPBDAAPAU_Mix_Music@@@Z 0040cd00 f i AudioPlayer.obj
 0001:0000bda0       ??$exchange@PAU?$_Tree_node@U?$pair@$$CBV?$basic_string@DU?$char_traits@D@std@@V?$allocator@D@2@@std@@PAUMix_Chunk@@@std@@PAX@std@@$$T@std@@YAPAU?$_Tree_node@U?$pair@$$CBV?$basic_string@DU?$char_traits@D@std@@V?$allocator@D@2@@std@@PAUMix_Chunk@@@std@@PAX@0@AAPAU10@$$QA$$T@Z 0040cda0 f i AudioPlayer.obj
 0001:0000bdd0       ??$exchange@PAU?$_Tree_node@U?$pair@$$CBV?$basic_string@DU?$char_traits@D@std@@V?$allocator@D@2@@std@@PAUMix_Chunk@@@std@@PAX@std@@AAPAU12@@std@@YAPAU?$_Tree_node@U?$pair@$$CBV?$basic_string@DU?$char_traits@D@std@@V?$allocator@D@2@@std@@PAUMix_Chunk@@@std@@PAX@0@AAPAU10@0@Z 0040cdd0 f i AudioPlayer.obj
 0001:0000be00       ??$exchange@PAU?$_Tree_node@U?$pair@$$CBV?$basic_string@DU?$char_traits@D@std@@V?$allocator@D@2@@std@@PAU_Mix_Music@@@std@@PAX@std@@$$T@std@@YAPAU?$_Tree_node@U?$pair@$$CBV?$basic_string@DU?$char_traits@D@std@@V?$allocator@D@2@@std@@PAU_Mix_Music@@@std@@PAX@0@AAPAU10@$$QA$$T@Z 0040ce00 f i AudioPlayer.obj
 0001:0000be30       ??$exchange@PAU?$_Tree_node@U?$pair@$$CBV?$basic_string@DU?$char_traits@D@std@@V?$allocator@D@2@@std@@PAU_Mix_Music@@@std@@PAX@std@@AAPAU12@@std@@YAPAU?$_Tree_node@U?$pair@$$CBV?$basic_string@DU?$char_traits@D@std@@V?$allocator@D@2@@std@@PAU_Mix_Music@@@std@@PAX@0@AAPAU10@0@Z 0040ce30 f i AudioPlayer.obj
 0001:0000be60       ??$forward@AAPAU?$_Tree_node@U?$pair@$$CBV?$basic_string@DU?$char_traits@D@std@@V?$allocator@D@2@@std@@PAUMix_Chunk@@@std@@PAX@std@@@std@@YAAAPAU?$_Tree_node@U?$pair@$$CBV?$basic_string@DU?$char_traits@D@std@@V?$allocator@D@2@@std@@PAUMix_Chunk@@@std@@PAX@0@AAPAU10@@Z 0040ce60 f i AudioPlayer.obj
 0001:0000be70       ??$forward@AAPAU?$_Tree_node@U?$pair@$$CBV?$basic_string@DU?$char_traits@D@std@@V?$allocator@D@2@@std@@PAU_Mix_Music@@@std@@PAX@std@@@std@@YAAAPAU?$_Tree_node@U?$pair@$$CBV?$basic_string@DU?$char_traits@D@std@@V?$allocator@D@2@@std@@PAU_Mix_Music@@@std@@PAX@0@AAPAU10@@Z 0040ce70 f i AudioPlayer.obj
 0001:0000be80       ??$forward@AAPAUMix_Chunk@@@std@@YAAAPAUMix_Chunk@@AAPAU1@@Z 0040ce80 f i AudioPlayer.obj
 0001:0000be90       ??$forward@AAPAU_Mix_Music@@@std@@YAAAPAU_Mix_Music@@AAPAU1@@Z 0040ce90 f i AudioPlayer.obj
 0001:0000bea0       ??$forward@AAPBD@std@@YAAAPBDAAPBD@Z 0040cea0 f i AudioPlayer.obj
 0001:0000beb0       ??$forward@ABQAD@std@@YAABQADABQAD@Z 0040ceb0 f i AudioPlayer.obj
 0001:0000bec0       ??$forward@ABQAU?$_Tree_node@U?$pair@$$CBV?$basic_string@DU?$char_traits@D@std@@V?$allocator@D@2@@std@@PAUMix_Chunk@@@std@@PAX@std@@@std@@YAABQAU?$_Tree_node@U?$pair@$$CBV?$basic_string@DU?$char_traits@D@std@@V?$allocator@D@2@@std@@PAUMix_Chunk@@@std@@PAX@0@ABQAU10@@Z 0040cec0 f i AudioPlayer.obj
 0001:0000bed0       ??$forward@ABQAU?$_Tree_node@U?$pair@$$CBV?$basic_string@DU?$char_traits@D@std@@V?$allocator@D@2@@std@@PAU_Mix_Music@@@std@@PAX@std@@@std@@YAABQAU?$_Tree_node@U?$pair@$$CBV?$basic_string@DU?$char_traits@D@std@@V?$allocator@D@2@@std@@PAU_Mix_Music@@@std@@PAX@0@ABQAU10@@Z 0040ced0 f i AudioPlayer.obj
 0001:0000bee0       ??$forward@ABU?$less@V?$basic_string@DU?$char_traits@D@std@@V?$allocator@D@2@@std@@@std@@@std@@YAABU?$less@V?$basic_string@DU?$char_traits@D@std@@V?$allocator@D@2@@std@@@0@ABU10@@Z 0040cee0 f i AudioPlayer.obj
 0001:0000bef0       ??$forward@AB_N@std@@YAAB_NAB_N@Z 0040cef0 f i AudioPlayer.obj
 0001:0000bf00       ??$forward@PAU?$_Tree_node@U?$pair@$$CBV?$basic_string@DU?$char_traits@D@std@@V?$allocator@D@2@@std@@PAUMix_Chunk@@@std@@PAX@std@@@std@@YA$$QAPAU?$_Tree_node@U?$pair@$$CBV?$basic_string@DU?$char_traits@D@std@@V?$allocator@D@2@@std@@PAUMix_Chunk@@@std@@PAX@0@AAPAU10@@Z 0040cf00 f i AudioPlayer.obj
 0001:0000bf10       ??$forward@PAU?$_Tree_node@U?$pair@$$CBV?$basic_string@DU?$char_traits@D@std@@V?$allocator@D@2@@std@@PAU_Mix_Music@@@std@@PAX@std@@@std@@YA$$QAPAU?$_Tree_node@U?$pair@$$CBV?$basic_string@DU?$char_traits@D@std@@V?$allocator@D@2@@std@@PAU_Mix_Music@@@std@@PAX@0@AAPAU10@@Z 0040cf10 f i AudioPlayer.obj
 0001:0000bf20       ??$forward@PAU_Container_base12@std@@@std@@YA$$QAPAU_Container_base12@0@AAPAU10@@Z 0040cf20 f i AudioPlayer.obj
 0001:0000bf30       ??$forward@U_Zero_then_variadic_args_t@std@@@std@@YA$$QAU_Zero_then_variadic_args_t@0@AAU10@@Z 0040cf30 f i AudioPlayer.obj
 0001:0000bf40       ??$forward@V?$_Tree_iterator@V?$_Tree_val@U?$_Tree_simple_types@U?$pair@$$CBV?$basic_string@DU?$char_traits@D@std@@V?$allocator@D@2@@std@@PAUMix_Chunk@@@std@@@std@@@std@@@std@@@std@@YA$$QAV?$_Tree_iterator@V?$_Tree_val@U?$_Tree_simple_types@U?$pair@$$CBV?$basic_string@DU?$char_traits@D@std@@V?$allocator@D@2@@std@@PAUMix_Chunk@@@std@@@std@@@std@@@0@AAV10@@Z 0040cf40 f i AudioPlayer.obj
 0001:0000bf50       ??$forward@V?$_Tree_iterator@V?$_Tree_val@U?$_Tree_simple_types@U?$pair@$$CBV?$basic_string@DU?$char_traits@D@std@@V?$allocator@D@2@@std@@PAU_Mix_Music@@@std@@@std@@@std@@@std@@@std@@YA$$QAV?$_Tree_iterator@V?$_Tree_val@U?$_Tree_simple_types@U?$pair@$$CBV?$basic_string@DU?$char_traits@D@std@@V?$allocator@D@2@@std@@PAU_Mix_Music@@@std@@@std@@@std@@@0@AAV10@@Z 0040cf50 f i AudioPlayer.obj
 0001:0000bf60       ??$forward@_N@std@@YA$$QA_NAA_N@Z 0040cf60 f i AudioPlayer.obj
 0001:0000bf70       ??0?$_Alloc_construct_ptr@V?$allocator@U?$_Tree_node@U?$pair@$$CBV?$basic_string@DU?$char_traits@D@std@@V?$allocator@D@2@@std@@PAUMix_Chunk@@@std@@PAX@std@@@std@@@std@@QAE@AAV?$allocator@U?$_Tree_node@U?$pair@$$CBV?$basic_string@DU?$char_traits@D@std@@V?$allocator@D@2@@std@@PAUMix_Chunk@@@std@@PAX@std@@@1@@Z 0040cf70 f i AudioPlayer.obj
 0001:0000bfa0       ??0?$_Alloc_construct_ptr@V?$allocator@U?$_Tree_node@U?$pair@$$CBV?$basic_string@DU?$char_traits@D@std@@V?$allocator@D@2@@std@@PAU_Mix_Music@@@std@@PAX@std@@@std@@@std@@QAE@AAV?$allocator@U?$_Tree_node@U?$pair@$$CBV?$basic_string@DU?$char_traits@D@std@@V?$allocator@D@2@@std@@PAU_Mix_Music@@@std@@PAX@std@@@1@@Z 0040cfa0 f i AudioPlayer.obj
 0001:0000bfd0       ??0?$_Container_proxy_ptr12@V?$allocator@U_Container_proxy@std@@@std@@@std@@QAE@AAV?$allocator@U_Container_proxy@std@@@1@AAU_Container_base12@1@@Z 0040cfd0 f i AudioPlayer.obj
 0001:0000c050       ??0?$_String_val@U?$_Simple_types@D@std@@@std@@QAE@XZ 0040d050 f i AudioPlayer.obj
 0001:0000c0a0       ??0?$_Tree@V?$_Tmap_traits@V?$basic_string@DU?$char_traits@D@std@@V?$allocator@D@2@@std@@PAUMix_Chunk@@U?$less@V?$basic_string@DU?$char_traits@D@std@@V?$allocator@D@2@@std@@@2@V?$allocator@U?$pair@$$CBV?$basic_string@DU?$char_traits@D@std@@V?$allocator@D@2@@std@@PAUMix_Chunk@@@std@@@2@$0A@@std@@@std@@QAE@ABU?$less@V?$basic_string@DU?$char_traits@D@std@@V?$allocator@D@2@@std@@@1@@Z 0040d0a0 f i AudioPlayer.obj
 0001:0000c0e0       ??0?$_Tree@V?$_Tmap_traits@V?$basic_string@DU?$char_traits@D@std@@V?$allocator@D@2@@std@@PAU_Mix_Music@@U?$less@V?$basic_string@DU?$char_traits@D@std@@V?$allocator@D@2@@std@@@2@V?$allocator@U?$pair@$$CBV?$basic_string@DU?$char_traits@D@std@@V?$allocator@D@2@@std@@PAU_Mix_Music@@@std@@@2@$0A@@std@@@std@@QAE@ABU?$less@V?$basic_string@DU?$char_traits@D@std@@V?$allocator@D@2@@std@@@1@@Z 0040d0e0 f i AudioPlayer.obj
 0001:0000c120       ??0?$_Tree_const_iterator@V?$_Tree_val@U?$_Tree_simple_types@U?$pair@$$CBV?$basic_string@DU?$char_traits@D@std@@V?$allocator@D@2@@std@@PAUMix_Chunk@@@std@@@std@@@std@@@std@@QAE@$$QAV01@@Z 0040d120 f i AudioPlayer.obj
 0001:0000c150       ??0?$_Tree_const_iterator@V?$_Tree_val@U?$_Tree_simple_types@U?$pair@$$CBV?$basic_string@DU?$char_traits@D@std@@V?$allocator@D@2@@std@@PAUMix_Chunk@@@std@@@std@@@std@@@std@@QAE@PAU?$_Tree_node@U?$pair@$$CBV?$basic_string@DU?$char_traits@D@std@@V?$allocator@D@2@@std@@PAUMix_Chunk@@@std@@PAX@1@PBV?$_Tree_val@U?$_Tree_simple_types@U?$pair@$$CBV?$basic_string@DU?$char_traits@D@std@@V?$allocator@D@2@@std@@PAUMix_Chunk@@@std@@@std@@@1@@Z 0040d150 f i AudioPlayer.obj
 0001:0000c180       ??0?$_Tree_const_iterator@V?$_Tree_val@U?$_Tree_simple_types@U?$pair@$$CBV?$basic_string@DU?$char_traits@D@std@@V?$allocator@D@2@@std@@PAU_Mix_Music@@@std@@@std@@@std@@@std@@QAE@$$QAV01@@Z 0040d180 f i AudioPlayer.obj
 0001:0000c1b0       ??0?$_Tree_const_iterator@V?$_Tree_val@U?$_Tree_simple_types@U?$pair@$$CBV?$basic_string@DU?$char_traits@D@std@@V?$allocator@D@2@@std@@PAU_Mix_Music@@@std@@@std@@@std@@@std@@QAE@PAU?$_Tree_node@U?$pair@$$CBV?$basic_string@DU?$char_traits@D@std@@V?$allocator@D@2@@std@@PAU_Mix_Music@@@std@@PAX@1@PBV?$_Tree_val@U?$_Tree_simple_types@U?$pair@$$CBV?$basic_string@DU?$char_traits@D@std@@V?$allocator@D@2@@std@@PAU_Mix_Music@@@std@@@std@@@1@@Z 0040d1b0 f i AudioPlayer.obj
 0001:0000c1e0       ??0?$_Tree_iterator@V?$_Tree_val@U?$_Tree_simple_types@U?$pair@$$CBV?$basic_string@DU?$char_traits@D@std@@V?$allocator@D@2@@std@@PAUMix_Chunk@@@std@@@std@@@std@@@std@@QAE@$$QAV01@@Z 0040d1e0 f i AudioPlayer.obj
 0001:0000c210       ??0?$_Tree_iterator@V?$_Tree_val@U?$_Tree_simple_types@U?$pair@$$CBV?$basic_string@DU?$char_traits@D@std@@V?$allocator@D@2@@std@@PAUMix_Chunk@@@std@@@std@@@std@@@std@@QAE@PAU?$_Tree_node@U?$pair@$$CBV?$basic_string@DU?$char_traits@D@std@@V?$allocator@D@2@@std@@PAUMix_Chunk@@@std@@PAX@1@PBV?$_Tree_val@U?$_Tree_simple_types@U?$pair@$$CBV?$basic_string@DU?$char_traits@D@std@@V?$allocator@D@2@@std@@PAUMix_Chunk@@@std@@@std@@@1@@Z 0040d210 f i AudioPlayer.obj
 0001:0000c240       ??0?$_Tree_iterator@V?$_Tree_val@U?$_Tree_simple_types@U?$pair@$$CBV?$basic_string@DU?$char_traits@D@std@@V?$allocator@D@2@@std@@PAU_Mix_Music@@@std@@@std@@@std@@@std@@QAE@$$QAV01@@Z 0040d240 f i AudioPlayer.obj
 0001:0000c270       ??0?$_Tree_iterator@V?$_Tree_val@U?$_Tree_simple_types@U?$pair@$$CBV?$basic_string@DU?$char_traits@D@std@@V?$allocator@D@2@@std@@PAU_Mix_Music@@@std@@@std@@@std@@@std@@QAE@PAU?$_Tree_node@U?$pair@$$CBV?$basic_string@DU?$char_traits@D@std@@V?$allocator@D@2@@std@@PAU_Mix_Music@@@std@@PAX@1@PBV?$_Tree_val@U?$_Tree_simple_types@U?$pair@$$CBV?$basic_string@DU?$char_traits@D@std@@V?$allocator@D@2@@std@@PAU_Mix_Music@@@std@@@std@@@1@@Z 0040d270 f i AudioPlayer.obj
 0001:0000c2a0       ??0?$_Tree_temp_node_alloc@V?$allocator@U?$_Tree_node@U?$pair@$$CBV?$basic_string@DU?$char_traits@D@std@@V?$allocator@D@2@@std@@PAUMix_Chunk@@@std@@PAX@std@@@std@@@std@@QAE@AAV?$allocator@U?$_Tree_node@U?$pair@$$CBV?$basic_string@DU?$char_traits@D@std@@V?$allocator@D@2@@std@@PAUMix_Chunk@@@std@@PAX@std@@@1@@Z 0040d2a0 f i AudioPlayer.obj
 0001:0000c320       ??0?$_Tree_temp_node_alloc@V?$allocator@U?$_Tree_node@U?$pair@$$CBV?$basic_string@DU?$char_traits@D@std@@V?$allocator@D@2@@std@@PAU_Mix_Music@@@std@@PAX@std@@@std@@@std@@QAE@AAV?$allocator@U?$_Tree_node@U?$pair@$$CBV?$basic_string@DU?$char_traits@D@std@@V?$allocator@D@2@@std@@PAU_Mix_Music@@@std@@PAX@std@@@1@@Z 0040d320 f i AudioPlayer.obj
 0001:0000c3a0       ??0?$_Tree_unchecked_const_iterator@V?$_Tree_val@U?$_Tree_simple_types@U?$pair@$$CBV?$basic_string@DU?$char_traits@D@std@@V?$allocator@D@2@@std@@PAUMix_Chunk@@@std@@@std@@@std@@U_Iterator_base12@2@@std@@QAE@$$QAV01@@Z 0040d3a0 f i AudioPlayer.obj
 0001:0000c3e0       ??0?$_Tree_unchecked_const_iterator@V?$_Tree_val@U?$_Tree_simple_types@U?$pair@$$CBV?$basic_string@DU?$char_traits@D@std@@V?$allocator@D@2@@std@@PAUMix_Chunk@@@std@@@std@@@std@@U_Iterator_base12@2@@std@@QAE@PAU?$_Tree_node@U?$pair@$$CBV?$basic_string@DU?$char_traits@D@std@@V?$allocator@D@2@@std@@PAUMix_Chunk@@@std@@PAX@1@PBV?$_Tree_val@U?$_Tree_simple_types@U?$pair@$$CBV?$basic_string@DU?$char_traits@D@std@@V?$allocator@D@2@@std@@PAUMix_Chunk@@@std@@@std@@@1@@Z 0040d3e0 f i AudioPlayer.obj
 0001:0000c420       ??0?$_Tree_unchecked_const_iterator@V?$_Tree_val@U?$_Tree_simple_types@U?$pair@$$CBV?$basic_string@DU?$char_traits@D@std@@V?$allocator@D@2@@std@@PAU_Mix_Music@@@std@@@std@@@std@@U_Iterator_base12@2@@std@@QAE@$$QAV01@@Z 0040d420 f i AudioPlayer.obj
 0001:0000c460       ??0?$_Tree_unchecked_const_iterator@V?$_Tree_val@U?$_Tree_simple_types@U?$pair@$$CBV?$basic_string@DU?$char_traits@D@std@@V?$allocator@D@2@@std@@PAU_Mix_Music@@@std@@@std@@@std@@U_Iterator_base12@2@@std@@QAE@PAU?$_Tree_node@U?$pair@$$CBV?$basic_string@DU?$char_traits@D@std@@V?$allocator@D@2@@std@@PAU_Mix_Music@@@std@@PAX@1@PBV?$_Tree_val@U?$_Tree_simple_types@U?$pair@$$CBV?$basic_string@DU?$char_traits@D@std@@V?$allocator@D@2@@std@@PAU_Mix_Music@@@std@@@std@@@1@@Z 0040d460 f i AudioPlayer.obj
 0001:0000c4a0       ??0?$_Tree_val@U?$_Tree_simple_types@U?$pair@$$CBV?$basic_string@DU?$char_traits@D@std@@V?$allocator@D@2@@std@@PAUMix_Chunk@@@std@@@std@@@std@@QAE@XZ 0040d4a0 f i AudioPlayer.obj
 0001:0000c4e0       ??0?$_Tree_val@U?$_Tree_simple_types@U?$pair@$$CBV?$basic_string@DU?$char_traits@D@std@@V?$allocator@D@2@@std@@PAU_Mix_Music@@@std@@@std@@@std@@QAE@XZ 0040d4e0 f i AudioPlayer.obj
 0001:0000c520       ??0?$allocator@D@std@@QAE@XZ 0040d520 f i AudioPlayer.obj
 0001:0000c540       ??0?$allocator@U?$_Tree_node@U?$pair@$$CBV?$basic_string@DU?$char_traits@D@std@@V?$allocator@D@2@@std@@PAUMix_Chunk@@@std@@PAX@std@@@std@@QAE@XZ 0040d540 f i AudioPlayer.obj
 0001:0000c560       ??0?$allocator@U?$_Tree_node@U?$pair@$$CBV?$basic_string@DU?$char_traits@D@std@@V?$allocator@D@2@@std@@PAU_Mix_Music@@@std@@PAX@std@@@std@@QAE@XZ 0040d560 f i AudioPlayer.obj
 0001:0000c580       ??0?$basic_string@DU?$char_traits@D@std@@V?$allocator@D@2@@std@@QAE@QBD@Z 0040d580 f i AudioPlayer.obj
 0001:0000c660       ??0?$basic_string@DU?$char_traits@D@std@@V?$allocator@D@2@@std@@QAE@XZ 0040d660 f i AudioPlayer.obj
 0001:0000c6f0       ??0?$map@V?$basic_string@DU?$char_traits@D@std@@V?$allocator@D@2@@std@@PAUMix_Chunk@@U?$less@V?$basic_string@DU?$char_traits@D@std@@V?$allocator@D@2@@std@@@2@V?$allocator@U?$pair@$$CBV?$basic_string@DU?$char_traits@D@std@@V?$allocator@D@2@@std@@PAUMix_Chunk@@@std@@@2@@std@@QAE@XZ 0040d6f0 f i AudioPlayer.obj
 0001:0000c720       ??0?$map@V?$basic_string@DU?$char_traits@D@std@@V?$allocator@D@2@@std@@PAU_Mix_Music@@U?$less@V?$basic_string@DU?$char_traits@D@std@@V?$allocator@D@2@@std@@@2@V?$allocator@U?$pair@$$CBV?$basic_string@DU?$char_traits@D@std@@V?$allocator@D@2@@std@@PAU_Mix_Music@@@std@@@2@@std@@QAE@XZ 0040d720 f i AudioPlayer.obj
 0001:0000c750       ??0_Bxty@?$_String_val@U?$_Simple_types@D@std@@@std@@QAE@XZ 0040d750 f i AudioPlayer.obj
 0001:0000c770       ??0_Container_base12@std@@QAE@XZ 0040d770 f i AudioPlayer.obj
 0001:0000c790       ??0_Container_proxy@std@@QAE@PAU_Container_base12@1@@Z 0040d790 f i AudioPlayer.obj
 0001:0000c7c0       ??0_Iterator_base12@std@@QAE@ABU01@@Z 0040d7c0 f i AudioPlayer.obj
 0001:0000c800       ??0_Iterator_base12@std@@QAE@XZ 0040d800 f i AudioPlayer.obj
 0001:0000c830       ??0bad_alloc@std@@AAE@QBD@Z 0040d830 f i AudioPlayer.obj
 0001:0000c860       ??0bad_alloc@std@@QAE@ABV01@@Z 0040d860 f i AudioPlayer.obj
 0001:0000c890       ??0bad_array_new_length@std@@QAE@ABV01@@Z 0040d890 f i AudioPlayer.obj
 0001:0000c8c0       ??0bad_array_new_length@std@@QAE@XZ 0040d8c0 f i AudioPlayer.obj
 0001:0000c8f0       ??0exception@std@@QAE@ABV01@@Z 0040d8f0 f i AudioPlayer.obj
 0001:0000c940       ??0exception@std@@QAE@QBDH@Z 0040d940 f i AudioPlayer.obj
 0001:0000c980       ??1?$_Alloc_construct_ptr@V?$allocator@U?$_Tree_node@U?$pair@$$CBV?$basic_string@DU?$char_traits@D@std@@V?$allocator@D@2@@std@@PAUMix_Chunk@@@std@@PAX@std@@@std@@@std@@QAE@XZ 0040d980 f i AudioPlayer.obj
 0001:0000c9f0       ??1?$_Alloc_construct_ptr@V?$allocator@U?$_Tree_node@U?$pair@$$CBV?$basic_string@DU?$char_traits@D@std@@V?$allocator@D@2@@std@@PAU_Mix_Music@@@std@@PAX@std@@@std@@@std@@QAE@XZ 0040d9f0 f i AudioPlayer.obj
 0001:0000ca60       ??1?$_Compressed_pair@V?$allocator@D@std@@V?$_String_val@U?$_Simple_types@D@std@@@2@$00@std@@QAE@XZ 0040da60 f i AudioPlayer.obj
 0001:0000ca80       ??1?$_Container_proxy_ptr12@V?$allocator@U_Container_proxy@std@@@std@@@std@@QAE@XZ 0040da80 f i AudioPlayer.obj
 0001:0000cac0       ??1?$_String_val@U?$_Simple_types@D@std@@@std@@QAE@XZ 0040dac0 f i AudioPlayer.obj
 0001:0000cae0       ??1?$_Tree@V?$_Tmap_traits@V?$basic_string@DU?$char_traits@D@std@@V?$allocator@D@2@@std@@PAUMix_Chunk@@U?$less@V?$basic_string@DU?$char_traits@D@std@@V?$allocator@D@2@@std@@@2@V?$allocator@U?$pair@$$CBV?$basic_string@DU?$char_traits@D@std@@V?$allocator@D@2@@std@@PAUMix_Chunk@@@std@@@2@$0A@@std@@@std@@QAE@XZ 0040dae0 f i AudioPlayer.obj
 0001:0000cb50       ??1?$_Tree@V?$_Tmap_traits@V?$basic_string@DU?$char_traits@D@std@@V?$allocator@D@2@@std@@PAU_Mix_Music@@U?$less@V?$basic_string@DU?$char_traits@D@std@@V?$allocator@D@2@@std@@@2@V?$allocator@U?$pair@$$CBV?$basic_string@DU?$char_traits@D@std@@V?$allocator@D@2@@std@@PAU_Mix_Music@@@std@@@2@$0A@@std@@@std@@QAE@XZ 0040db50 f i AudioPlayer.obj
 0001:0000cbc0       ??1?$_Tree_const_iterator@V?$_Tree_val@U?$_Tree_simple_types@U?$pair@$$CBV?$basic_string@DU?$char_traits@D@std@@V?$allocator@D@2@@std@@PAUMix_Chunk@@@std@@@std@@@std@@@std@@QAE@XZ 0040dbc0 f i AudioPlayer.obj
 0001:0000cbe0       ??1?$_Tree_const_iterator@V?$_Tree_val@U?$_Tree_simple_types@U?$pair@$$CBV?$basic_string@DU?$char_traits@D@std@@V?$allocator@D@2@@std@@PAU_Mix_Music@@@std@@@std@@@std@@@std@@QAE@XZ 0040dbe0 f i AudioPlayer.obj
 0001:0000cc00       ??1?$_Tree_iterator@V?$_Tree_val@U?$_Tree_simple_types@U?$pair@$$CBV?$basic_string@DU?$char_traits@D@std@@V?$allocator@D@2@@std@@PAUMix_Chunk@@@std@@@std@@@std@@@std@@QAE@XZ 0040dc00 f i AudioPlayer.obj
 0001:0000cc20       ??1?$_Tree_iterator@V?$_Tree_val@U?$_Tree_simple_types@U?$pair@$$CBV?$basic_string@DU?$char_traits@D@std@@V?$allocator@D@2@@std@@PAU_Mix_Music@@@std@@@std@@@std@@@std@@QAE@XZ 0040dc20 f i AudioPlayer.obj
 0001:0000cc40       ??1?$_Tree_temp_node@V?$allocator@U?$_Tree_node@U?$pair@$$CBV?$basic_string@DU?$char_traits@D@std@@V?$allocator@D@2@@std@@PAUMix_Chunk@@@std@@PAX@std@@@std@@@std@@QAE@XZ 0040dc40 f i AudioPlayer.obj
 0001:0000cd00       ??1?$_Tree_temp_node@V?$allocator@U?$_Tree_node@U?$pair@$$CBV?$basic_string@DU?$char_traits@D@std@@V?$allocator@D@2@@std@@PAU_Mix_Music@@@std@@PAX@std@@@std@@@std@@QAE@XZ 0040dd00 f i AudioPlayer.obj
 0001:0000cdc0       ??1?$_Tree_temp_node_alloc@V?$allocator@U?$_Tree_node@U?$pair@$$CBV?$basic_string@DU?$char_traits@D@std@@V?$allocator@D@2@@std@@PAUMix_Chunk@@@std@@PAX@std@@@std@@@std@@QAE@XZ 0040ddc0 f i AudioPlayer.obj
 0001:0000cde0       ??1?$_Tree_temp_node_alloc@V?$allocator@U?$_Tree_node@U?$pair@$$CBV?$basic_string@DU?$char_traits@D@std@@V?$allocator@D@2@@std@@PAU_Mix_Music@@@std@@PAX@std@@@std@@@std@@QAE@XZ 0040dde0 f i AudioPlayer.obj
 0001:0000ce00       ??1?$_Tree_unchecked_const_iterator@V?$_Tree_val@U?$_Tree_simple_types@U?$pair@$$CBV?$basic_string@DU?$char_traits@D@std@@V?$allocator@D@2@@std@@PAUMix_Chunk@@@std@@@std@@@std@@U_Iterator_base12@2@@std@@QAE@XZ 0040de00 f i AudioPlayer.obj
 0001:0000ce20       ??1?$_Tree_unchecked_const_iterator@V?$_Tree_val@U?$_Tree_simple_types@U?$pair@$$CBV?$basic_string@DU?$char_traits@D@std@@V?$allocator@D@2@@std@@PAU_Mix_Music@@@std@@@std@@@std@@U_Iterator_base12@2@@std@@QAE@XZ 0040de20 f i AudioPlayer.obj
 0001:0000ce40       ??1?$basic_string@DU?$char_traits@D@std@@V?$allocator@D@2@@std@@QAE@XZ 0040de40 f i AudioPlayer.obj
 0001:0000ceb0       ??1?$map@V?$basic_string@DU?$char_traits@D@std@@V?$allocator@D@2@@std@@PAUMix_Chunk@@U?$less@V?$basic_string@DU?$char_traits@D@std@@V?$allocator@D@2@@std@@@2@V?$allocator@U?$pair@$$CBV?$basic_string@DU?$char_traits@D@std@@V?$allocator@D@2@@std@@PAUMix_Chunk@@@std@@@2@@std@@QAE@XZ 0040deb0 f i AudioPlayer.obj
 0001:0000ced0       ??1?$map@V?$basic_string@DU?$char_traits@D@std@@V?$allocator@D@2@@std@@PAU_Mix_Music@@U?$less@V?$basic_string@DU?$char_traits@D@std@@V?$allocator@D@2@@std@@@2@V?$allocator@U?$pair@$$CBV?$basic_string@DU?$char_traits@D@std@@V?$allocator@D@2@@std@@PAU_Mix_Music@@@std@@@2@@std@@QAE@XZ 0040ded0 f i AudioPlayer.obj
 0001:0000cef0       ??1?$pair@$$CBV?$basic_string@DU?$char_traits@D@std@@V?$allocator@D@2@@std@@PAUMix_Chunk@@@std@@QAE@XZ 0040def0 f i AudioPlayer.obj
 0001:0000cf10       ??1?$pair@$$CBV?$basic_string@DU?$char_traits@D@std@@V?$allocator@D@2@@std@@PAU_Mix_Music@@@std@@QAE@XZ 0040df10 f i AudioPlayer.obj
 0001:0000cf30       ??1?$pair@V?$_Tree_iterator@V?$_Tree_val@U?$_Tree_simple_types@U?$pair@$$CBV?$basic_string@DU?$char_traits@D@std@@V?$allocator@D@2@@std@@PAUMix_Chunk@@@std@@@std@@@std@@@std@@_N@std@@QAE@XZ 0040df30 f i AudioPlayer.obj
 0001:0000cf50       ??1?$pair@V?$_Tree_iterator@V?$_Tree_val@U?$_Tree_simple_types@U?$pair@$$CBV?$basic_string@DU?$char_traits@D@std@@V?$allocator@D@2@@std@@PAU_Mix_Music@@@std@@@std@@@std@@@std@@_N@std@@QAE@XZ 0040df50 f i AudioPlayer.obj
 0001:0000cf70       ??1_Bxty@?$_String_val@U?$_Simple_types@D@std@@@std@@QAE@XZ 0040df70 f i AudioPlayer.obj
 0001:0000cf80       ??1_Iterator_base12@std@@QAE@XZ 0040df80 f i AudioPlayer.obj
 0001:0000cfc0       ??1bad_alloc@std@@UAE@XZ   0040dfc0 f i AudioPlayer.obj
 0001:0000cfe0       ??1bad_array_new_length@std@@UAE@XZ 0040dfe0 f i AudioPlayer.obj
 0001:0000d000       ??1exception@std@@UAE@XZ   0040e000 f i AudioPlayer.obj
 0001:0000d030       ??2@YAPAXIPAX@Z            0040e030 f i AudioPlayer.obj
 0001:0000d040       ??4?$basic_string@DU?$char_traits@D@std@@V?$allocator@D@2@@std@@QAEAAV01@QBD@Z 0040e040 f i AudioPlayer.obj
 0001:0000d060       ??4_Iterator_base12@std@@QAEAAU01@ABU01@@Z 0040e060 f i AudioPlayer.obj
 0001:0000d0d0       ??8?$_Tree_const_iterator@V?$_Tree_val@U?$_Tree_simple_types@U?$pair@$$CBV?$basic_string@DU?$char_traits@D@std@@V?$allocator@D@2@@std@@PAUMix_Chunk@@@std@@@std@@@std@@@std@@QBE_NABV01@@Z 0040e0d0 f i AudioPlayer.obj
 0001:0000d190       ??8?$_Tree_const_iterator@V?$_Tree_val@U?$_Tree_simple_types@U?$pair@$$CBV?$basic_string@DU?$char_traits@D@std@@V?$allocator@D@2@@std@@PAU_Mix_Music@@@std@@@std@@@std@@@std@@QBE_NABV01@@Z 0040e190 f i AudioPlayer.obj
 0001:0000d250       ??9?$_Tree_const_iterator@V?$_Tree_val@U?$_Tree_simple_types@U?$pair@$$CBV?$basic_string@DU?$char_traits@D@std@@V?$allocator@D@2@@std@@PAUMix_Chunk@@@std@@@std@@@std@@@std@@QBE_NABV01@@Z 0040e250 f i AudioPlayer.obj
 0001:0000d2a0       ??9?$_Tree_const_iterator@V?$_Tree_val@U?$_Tree_simple_types@U?$pair@$$CBV?$basic_string@DU?$char_traits@D@std@@V?$allocator@D@2@@std@@PAU_Mix_Music@@@std@@@std@@@std@@@std@@QBE_NABV01@@Z 0040e2a0 f i AudioPlayer.obj
 0001:0000d2f0       ??C?$_Tree_iterator@V?$_Tree_val@U?$_Tree_simple_types@U?$pair@$$CBV?$basic_string@DU?$char_traits@D@std@@V?$allocator@D@2@@std@@PAUMix_Chunk@@@std@@@std@@@std@@@std@@QBEPAU?$pair@$$CBV?$basic_string@DU?$char_traits@D@std@@V?$allocator@D@2@@std@@PAUMix_Chunk@@@1@XZ 0040e2f0 f i AudioPlayer.obj
 0001:0000d320       ??C?$_Tree_iterator@V?$_Tree_val@U?$_Tree_simple_types@U?$pair@$$CBV?$basic_string@DU?$char_traits@D@std@@V?$allocator@D@2@@std@@PAU_Mix_Music@@@std@@@std@@@std@@@std@@QBEPAU?$pair@$$CBV?$basic_string@DU?$char_traits@D@std@@V?$allocator@D@2@@std@@PAU_Mix_Music@@@1@XZ 0040e320 f i AudioPlayer.obj
 0001:0000d350       ??D?$_Tree_const_iterator@V?$_Tree_val@U?$_Tree_simple_types@U?$pair@$$CBV?$basic_string@DU?$char_traits@D@std@@V?$allocator@D@2@@std@@PAUMix_Chunk@@@std@@@std@@@std@@@std@@QBEABU?$pair@$$CBV?$basic_string@DU?$char_traits@D@std@@V?$allocator@D@2@@std@@PAUMix_Chunk@@@1@XZ 0040e350 f i AudioPlayer.obj
 0001:0000d460       ??D?$_Tree_const_iterator@V?$_Tree_val@U?$_Tree_simple_types@U?$pair@$$CBV?$basic_string@DU?$char_traits@D@std@@V?$allocator@D@2@@std@@PAU_Mix_Music@@@std@@@std@@@std@@@std@@QBEABU?$pair@$$CBV?$basic_string@DU?$char_traits@D@std@@V?$allocator@D@2@@std@@PAU_Mix_Music@@@1@XZ 0040e460 f i AudioPlayer.obj
 0001:0000d570       ??D?$_Tree_iterator@V?$_Tree_val@U?$_Tree_simple_types@U?$pair@$$CBV?$basic_string@DU?$char_traits@D@std@@V?$allocator@D@2@@std@@PAUMix_Chunk@@@std@@@std@@@std@@@std@@QBEAAU?$pair@$$CBV?$basic_string@DU?$char_traits@D@std@@V?$allocator@D@2@@std@@PAUMix_Chunk@@@1@XZ 0040e570 f i AudioPlayer.obj
 0001:0000d590       ??D?$_Tree_iterator@V?$_Tree_val@U?$_Tree_simple_types@U?$pair@$$CBV?$basic_string@DU?$char_traits@D@std@@V?$allocator@D@2@@std@@PAU_Mix_Music@@@std@@@std@@@std@@@std@@QBEAAU?$pair@$$CBV?$basic_string@DU?$char_traits@D@std@@V?$allocator@D@2@@std@@PAU_Mix_Music@@@1@XZ 0040e590 f i AudioPlayer.obj
 0001:0000d5b0       ??E?$_Tree_const_iterator@V?$_Tree_val@U?$_Tree_simple_types@U?$pair@$$CBV?$basic_string@DU?$char_traits@D@std@@V?$allocator@D@2@@std@@PAUMix_Chunk@@@std@@@std@@@std@@@std@@QAEAAV01@XZ 0040e5b0 f i AudioPlayer.obj
 0001:0000d6c0       ??E?$_Tree_const_iterator@V?$_Tree_val@U?$_Tree_simple_types@U?$pair@$$CBV?$basic_string@DU?$char_traits@D@std@@V?$allocator@D@2@@std@@PAU_Mix_Music@@@std@@@std@@@std@@@std@@QAEAAV01@XZ 0040e6c0 f i AudioPlayer.obj
 0001:0000d7d0       ??E?$_Tree_iterator@V?$_Tree_val@U?$_Tree_simple_types@U?$pair@$$CBV?$basic_string@DU?$char_traits@D@std@@V?$allocator@D@2@@std@@PAUMix_Chunk@@@std@@@std@@@std@@@std@@QAEAAV01@XZ 0040e7d0 f i AudioPlayer.obj
 0001:0000d7f0       ??E?$_Tree_iterator@V?$_Tree_val@U?$_Tree_simple_types@U?$pair@$$CBV?$basic_string@DU?$char_traits@D@std@@V?$allocator@D@2@@std@@PAU_Mix_Music@@@std@@@std@@@std@@@std@@QAEAAV01@XZ 0040e7f0 f i AudioPlayer.obj
 0001:0000d810       ??E?$_Tree_unchecked_const_iterator@V?$_Tree_val@U?$_Tree_simple_types@U?$pair@$$CBV?$basic_string@DU?$char_traits@D@std@@V?$allocator@D@2@@std@@PAUMix_Chunk@@@std@@@std@@@std@@U_Iterator_base12@2@@std@@QAEAAV01@XZ 0040e810 f i AudioPlayer.obj
 0001:0000d8b0       ??E?$_Tree_unchecked_const_iterator@V?$_Tree_val@U?$_Tree_simple_types@U?$pair@$$CBV?$basic_string@DU?$char_traits@D@std@@V?$allocator@D@2@@std@@PAU_Mix_Music@@@std@@@std@@@std@@U_Iterator_base12@2@@std@@QAEAAV01@XZ 0040e8b0 f i AudioPlayer.obj
 0001:0000d950       ??R<lambda_9366063389c5f42a00a5088cf24e69de>@@QBE@QADIQBD@Z 0040e950 f i AudioPlayer.obj
 0001:0000d9a0       ??R?$less@V?$basic_string@DU?$char_traits@D@std@@V?$allocator@D@2@@std@@@std@@QBE_NABV?$basic_string@DU?$char_traits@D@std@@V?$allocator@D@2@@1@0@Z 0040e9a0 f i AudioPlayer.obj
 0001:0000d9d0       ??_G?$pair@$$CBV?$basic_string@DU?$char_traits@D@std@@V?$allocator@D@2@@std@@PAUMix_Chunk@@@std@@QAEPAXI@Z 0040e9d0 f i AudioPlayer.obj
 0001:0000da10       ??_G?$pair@$$CBV?$basic_string@DU?$char_traits@D@std@@V?$allocator@D@2@@std@@PAU_Mix_Music@@@std@@QAEPAXI@Z 0040ea10 f i AudioPlayer.obj
 0001:0000da50       ??_Gbad_alloc@std@@UAEPAXI@Z 0040ea50 f i AudioPlayer.obj
 0001:0000da50       ??_Ebad_alloc@std@@UAEPAXI@Z 0040ea50 f i AudioPlayer.obj
 0001:0000da90       ??_Ebad_array_new_length@std@@UAEPAXI@Z 0040ea90 f i AudioPlayer.obj
 0001:0000da90       ??_Gbad_array_new_length@std@@UAEPAXI@Z 0040ea90 f i AudioPlayer.obj
 0001:0000dad0       ??_Gexception@std@@UAEPAXI@Z 0040ead0 f i AudioPlayer.obj
 0001:0000dad0       ??_Eexception@std@@UAEPAXI@Z 0040ead0 f i AudioPlayer.obj
 0001:0000db10       ?_Adjust_manually_vector_aligned@std@@YAXAAPAXAAI@Z 0040eb10 f i AudioPlayer.obj
 0001:0000dc50       ?_Adopt@_Iterator_base12@std@@QAEXPBU_Container_base12@2@@Z 0040ec50 f i AudioPlayer.obj
 0001:0000dcf0       ?_Alloc_sentinel_and_proxy@?$_Tree@V?$_Tmap_traits@V?$basic_string@DU?$char_traits@D@std@@V?$allocator@D@2@@std@@PAUMix_Chunk@@U?$less@V?$basic_string@DU?$char_traits@D@std@@V?$allocator@D@2@@std@@@2@V?$allocator@U?$pair@$$CBV?$basic_string@DU?$char_traits@D@std@@V?$allocator@D@2@@std@@PAUMix_Chunk@@@std@@@2@$0A@@std@@@std@@IAEXXZ 0040ecf0 f i AudioPlayer.obj
 0001:0000ddc0       ?_Alloc_sentinel_and_proxy@?$_Tree@V?$_Tmap_traits@V?$basic_string@DU?$char_traits@D@std@@V?$allocator@D@2@@std@@PAU_Mix_Music@@U?$less@V?$basic_string@DU?$char_traits@D@std@@V?$allocator@D@2@@std@@@2@V?$allocator@U?$pair@$$CBV?$basic_string@DU?$char_traits@D@std@@V?$allocator@D@2@@std@@PAU_Mix_Music@@@std@@@2@$0A@@std@@@std@@IAEXXZ 0040edc0 f i AudioPlayer.obj
 0001:0000de90       ?_Allocate@?$_Alloc_construct_ptr@V?$allocator@U?$_Tree_node@U?$pair@$$CBV?$basic_string@DU?$char_traits@D@std@@V?$allocator@D@2@@std@@PAUMix_Chunk@@@std@@PAX@std@@@std@@@std@@QAEXXZ 0040ee90 f i AudioPlayer.obj
 0001:0000dec0       ?_Allocate@?$_Alloc_construct_ptr@V?$allocator@U?$_Tree_node@U?$pair@$$CBV?$basic_string@DU?$char_traits@D@std@@V?$allocator@D@2@@std@@PAU_Mix_Music@@@std@@PAX@std@@@std@@@std@@QAEXXZ 0040eec0 f i AudioPlayer.obj
 0001:0000def0       ?_Allocate@_Default_allocate_traits@std@@SAPAXI@Z 0040eef0 f i AudioPlayer.obj
 0001:0000df10       ?_Calculate_growth@?$basic_string@DU?$char_traits@D@std@@V?$allocator@D@2@@std@@ABEII@Z 0040ef10 f i AudioPlayer.obj
 0001:0000df50       ?_Calculate_growth@?$basic_string@DU?$char_traits@D@std@@V?$allocator@D@2@@std@@CAIIII@Z 0040ef50 f i AudioPlayer.obj
 0001:0000dfc0       ?_Check_grow_by_1@?$_Tree@V?$_Tmap_traits@V?$basic_string@DU?$char_traits@D@std@@V?$allocator@D@2@@std@@PAUMix_Chunk@@U?$less@V?$basic_string@DU?$char_traits@D@std@@V?$allocator@D@2@@std@@@2@V?$allocator@U?$pair@$$CBV?$basic_string@DU?$char_traits@D@std@@V?$allocator@D@2@@std@@PAUMix_Chunk@@@std@@@2@$0A@@std@@@std@@IAEXXZ 0040efc0 f i AudioPlayer.obj
 0001:0000e000       ?_Check_grow_by_1@?$_Tree@V?$_Tmap_traits@V?$basic_string@DU?$char_traits@D@std@@V?$allocator@D@2@@std@@PAU_Mix_Music@@U?$less@V?$basic_string@DU?$char_traits@D@std@@V?$allocator@D@2@@std@@@2@V?$allocator@U?$pair@$$CBV?$basic_string@DU?$char_traits@D@std@@V?$allocator@D@2@@std@@PAU_Mix_Music@@@std@@@2@$0A@@std@@@std@@IAEXXZ 0040f000 f i AudioPlayer.obj
 0001:0000e040       ?_Equal@?$basic_string@DU?$char_traits@D@std@@V?$allocator@D@2@@std@@QBE_NQBD@Z 0040f040 f i AudioPlayer.obj
 0001:0000e0c0       ?_Get_first@?$_Compressed_pair@U?$less@V?$basic_string@DU?$char_traits@D@std@@V?$allocator@D@2@@std@@@std@@V?$_Compressed_pair@V?$allocator@U?$_Tree_node@U?$pair@$$CBV?$basic_string@DU?$char_traits@D@std@@V?$allocator@D@2@@std@@PAUMix_Chunk@@@std@@PAX@std@@@std@@V?$_Tree_val@U?$_Tree_simple_types@U?$pair@$$CBV?$basic_string@DU?$char_traits@D@std@@V?$allocator@D@2@@std@@PAUMix_Chunk@@@std@@@std@@@2@$00@2@$00@std@@QBEABU?$less@V?$basic_string@DU?$char_traits@D@std@@V?$allocator@D@2@@std@@@2@XZ 0040f0c0 f i AudioPlayer.obj
 0001:0000e0e0       ?_Get_first@?$_Compressed_pair@U?$less@V?$basic_string@DU?$char_traits@D@std@@V?$allocator@D@2@@std@@@std@@V?$_Compressed_pair@V?$allocator@U?$_Tree_node@U?$pair@$$CBV?$basic_string@DU?$char_traits@D@std@@V?$allocator@D@2@@std@@PAU_Mix_Music@@@std@@PAX@std@@@std@@V?$_Tree_val@U?$_Tree_simple_types@U?$pair@$$CBV?$basic_string@DU?$char_traits@D@std@@V?$allocator@D@2@@std@@PAU_Mix_Music@@@std@@@std@@@2@$00@2@$00@std@@QBEABU?$less@V?$basic_string@DU?$char_traits@D@std@@V?$allocator@D@2@@std@@@2@XZ 0040f0e0 f i AudioPlayer.obj
 0001:0000e100       ?_Get_first@?$_Compressed_pair@V?$allocator@D@std@@V?$_String_val@U?$_Simple_types@D@std@@@2@$00@std@@QAEAAV?$allocator@D@2@XZ 0040f100 f i AudioPlayer.obj
 0001:0000e120       ?_Get_first@?$_Compressed_pair@V?$allocator@D@std@@V?$_String_val@U?$_Simple_types@D@std@@@2@$00@std@@QBEABV?$allocator@D@2@XZ 0040f120 f i AudioPlayer.obj
 0001:0000e140       ?_Get_first@?$_Compressed_pair@V?$allocator@U?$_Tree_node@U?$pair@$$CBV?$basic_string@DU?$char_traits@D@std@@V?$allocator@D@2@@std@@PAUMix_Chunk@@@std@@PAX@std@@@std@@V?$_Tree_val@U?$_Tree_simple_types@U?$pair@$$CBV?$basic_string@DU?$char_traits@D@std@@V?$allocator@D@2@@std@@PAUMix_Chunk@@@std@@@std@@@2@$00@std@@QAEAAV?$allocator@U?$_Tree_node@U?$pair@$$CBV?$basic_string@DU?$char_traits@D@std@@V?$allocator@D@2@@std@@PAUMix_Chunk@@@std@@PAX@std@@@2@XZ 0040f140 f i AudioPlayer.obj
 0001:0000e160       ?_Get_first@?$_Compressed_pair@V?$allocator@U?$_Tree_node@U?$pair@$$CBV?$basic_string@DU?$char_traits@D@std@@V?$allocator@D@2@@std@@PAUMix_Chunk@@@std@@PAX@std@@@std@@V?$_Tree_val@U?$_Tree_simple_types@U?$pair@$$CBV?$basic_string@DU?$char_traits@D@std@@V?$allocator@D@2@@std@@PAUMix_Chunk@@@std@@@std@@@2@$00@std@@QBEABV?$allocator@U?$_Tree_node@U?$pair@$$CBV?$basic_string@DU?$char_traits@D@std@@V?$allocator@D@2@@std@@PAUMix_Chunk@@@std@@PAX@std@@@2@XZ 0040f160 f i AudioPlayer.obj
 0001:0000e180       ?_Get_first@?$_Compressed_pair@V?$allocator@U?$_Tree_node@U?$pair@$$CBV?$basic_string@DU?$char_traits@D@std@@V?$allocator@D@2@@std@@PAU_Mix_Music@@@std@@PAX@std@@@std@@V?$_Tree_val@U?$_Tree_simple_types@U?$pair@$$CBV?$basic_string@DU?$char_traits@D@std@@V?$allocator@D@2@@std@@PAU_Mix_Music@@@std@@@std@@@2@$00@std@@QAEAAV?$allocator@U?$_Tree_node@U?$pair@$$CBV?$basic_string@DU?$char_traits@D@std@@V?$allocator@D@2@@std@@PAU_Mix_Music@@@std@@PAX@std@@@2@XZ 0040f180 f i AudioPlayer.obj
 0001:0000e1a0       ?_Get_first@?$_Compressed_pair@V?$allocator@U?$_Tree_node@U?$pair@$$CBV?$basic_string@DU?$char_traits@D@std@@V?$allocator@D@2@@std@@PAU_Mix_Music@@@std@@PAX@std@@@std@@V?$_Tree_val@U?$_Tree_simple_types@U?$pair@$$CBV?$basic_string@DU?$char_traits@D@std@@V?$allocator@D@2@@std@@PAU_Mix_Music@@@std@@@std@@@2@$00@std@@QBEABV?$allocator@U?$_Tree_node@U?$pair@$$CBV?$basic_string@DU?$char_traits@D@std@@V?$allocator@D@2@@std@@PAU_Mix_Music@@@std@@PAX@std@@@2@XZ 0040f1a0 f i AudioPlayer.obj
 0001:0000e1c0       ?_Get_scary@?$_Tree@V?$_Tmap_traits@V?$basic_string@DU?$char_traits@D@std@@V?$allocator@D@2@@std@@PAUMix_Chunk@@U?$less@V?$basic_string@DU?$char_traits@D@std@@V?$allocator@D@2@@std@@@2@V?$allocator@U?$pair@$$CBV?$basic_string@DU?$char_traits@D@std@@V?$allocator@D@2@@std@@PAUMix_Chunk@@@std@@@2@$0A@@std@@@std@@IAEPAV?$_Tree_val@U?$_Tree_simple_types@U?$pair@$$CBV?$basic_string@DU?$char_traits@D@std@@V?$allocator@D@2@@std@@PAUMix_Chunk@@@std@@@std@@@2@XZ 0040f1c0 f i AudioPlayer.obj
 0001:0000e1e0       ?_Get_scary@?$_Tree@V?$_Tmap_traits@V?$basic_string@DU?$char_traits@D@std@@V?$allocator@D@2@@std@@PAUMix_Chunk@@U?$less@V?$basic_string@DU?$char_traits@D@std@@V?$allocator@D@2@@std@@@2@V?$allocator@U?$pair@$$CBV?$basic_string@DU?$char_traits@D@std@@V?$allocator@D@2@@std@@PAUMix_Chunk@@@std@@@2@$0A@@std@@@std@@IBEPBV?$_Tree_val@U?$_Tree_simple_types@U?$pair@$$CBV?$basic_string@DU?$char_traits@D@std@@V?$allocator@D@2@@std@@PAUMix_Chunk@@@std@@@std@@@2@XZ 0040f1e0 f i AudioPlayer.obj
 0001:0000e200       ?_Get_scary@?$_Tree@V?$_Tmap_traits@V?$basic_string@DU?$char_traits@D@std@@V?$allocator@D@2@@std@@PAU_Mix_Music@@U?$less@V?$basic_string@DU?$char_traits@D@std@@V?$allocator@D@2@@std@@@2@V?$allocator@U?$pair@$$CBV?$basic_string@DU?$char_traits@D@std@@V?$allocator@D@2@@std@@PAU_Mix_Music@@@std@@@2@$0A@@std@@@std@@IAEPAV?$_Tree_val@U?$_Tree_simple_types@U?$pair@$$CBV?$basic_string@DU?$char_traits@D@std@@V?$allocator@D@2@@std@@PAU_Mix_Music@@@std@@@std@@@2@XZ 0040f200 f i AudioPlayer.obj
 0001:0000e220       ?_Get_scary@?$_Tree@V?$_Tmap_traits@V?$basic_string@DU?$char_traits@D@std@@V?$allocator@D@2@@std@@PAU_Mix_Music@@U?$less@V?$basic_string@DU?$char_traits@D@std@@V?$allocator@D@2@@std@@@2@V?$allocator@U?$pair@$$CBV?$basic_string@DU?$char_traits@D@std@@V?$allocator@D@2@@std@@PAU_Mix_Music@@@std@@@2@$0A@@std@@@std@@IBEPBV?$_Tree_val@U?$_Tree_simple_types@U?$pair@$$CBV?$basic_string@DU?$char_traits@D@std@@V?$allocator@D@2@@std@@PAU_Mix_Music@@@std@@@std@@@2@XZ 0040f220 f i AudioPlayer.obj
 0001:0000e240       ?_Getal@?$_Tree@V?$_Tmap_traits@V?$basic_string@DU?$char_traits@D@std@@V?$allocator@D@2@@std@@PAUMix_Chunk@@U?$less@V?$basic_string@DU?$char_traits@D@std@@V?$allocator@D@2@@std@@@2@V?$allocator@U?$pair@$$CBV?$basic_string@DU?$char_traits@D@std@@V?$allocator@D@2@@std@@PAUMix_Chunk@@@std@@@2@$0A@@std@@@std@@IAEAAV?$allocator@U?$_Tree_node@U?$pair@$$CBV?$basic_string@DU?$char_traits@D@std@@V?$allocator@D@2@@std@@PAUMix_Chunk@@@std@@PAX@std@@@2@XZ 0040f240 f i AudioPlayer.obj
 0001:0000e260       ?_Getal@?$_Tree@V?$_Tmap_traits@V?$basic_string@DU?$char_traits@D@std@@V?$allocator@D@2@@std@@PAUMix_Chunk@@U?$less@V?$basic_string@DU?$char_traits@D@std@@V?$allocator@D@2@@std@@@2@V?$allocator@U?$pair@$$CBV?$basic_string@DU?$char_traits@D@std@@V?$allocator@D@2@@std@@PAUMix_Chunk@@@std@@@2@$0A@@std@@@std@@IBEABV?$allocator@U?$_Tree_node@U?$pair@$$CBV?$basic_string@DU?$char_traits@D@std@@V?$allocator@D@2@@std@@PAUMix_Chunk@@@std@@PAX@std@@@2@XZ 0040f260 f i AudioPlayer.obj
 0001:0000e280       ?_Getal@?$_Tree@V?$_Tmap_traits@V?$basic_string@DU?$char_traits@D@std@@V?$allocator@D@2@@std@@PAU_Mix_Music@@U?$less@V?$basic_string@DU?$char_traits@D@std@@V?$allocator@D@2@@std@@@2@V?$allocator@U?$pair@$$CBV?$basic_string@DU?$char_traits@D@std@@V?$allocator@D@2@@std@@PAU_Mix_Music@@@std@@@2@$0A@@std@@@std@@IAEAAV?$allocator@U?$_Tree_node@U?$pair@$$CBV?$basic_string@DU?$char_traits@D@std@@V?$allocator@D@2@@std@@PAU_Mix_Music@@@std@@PAX@std@@@2@XZ 0040f280 f i AudioPlayer.obj
 0001:0000e2a0       ?_Getal@?$_Tree@V?$_Tmap_traits@V?$basic_string@DU?$char_traits@D@std@@V?$allocator@D@2@@std@@PAU_Mix_Music@@U?$less@V?$basic_string@DU?$char_traits@D@std@@V?$allocator@D@2@@std@@@2@V?$allocator@U?$pair@$$CBV?$basic_string@DU?$char_traits@D@std@@V?$allocator@D@2@@std@@PAU_Mix_Music@@@std@@@2@$0A@@std@@@std@@IBEABV?$allocator@U?$_Tree_node@U?$pair@$$CBV?$basic_string@DU?$char_traits@D@std@@V?$allocator@D@2@@std@@PAU_Mix_Music@@@std@@PAX@std@@@2@XZ 0040f2a0 f i AudioPlayer.obj
 0001:0000e2c0       ?_Getal@?$basic_string@DU?$char_traits@D@std@@V?$allocator@D@2@@std@@AAEAAV?$allocator@D@2@XZ 0040f2c0 f i AudioPlayer.obj
 0001:0000e2e0       ?_Getal@?$basic_string@DU?$char_traits@D@std@@V?$allocator@D@2@@std@@ABEABV?$allocator@D@2@XZ 0040f2e0 f i AudioPlayer.obj
 0001:0000e300       ?_Getcomp@?$_Tree@V?$_Tmap_traits@V?$basic_string@DU?$char_traits@D@std@@V?$allocator@D@2@@std@@PAUMix_Chunk@@U?$less@V?$basic_string@DU?$char_traits@D@std@@V?$allocator@D@2@@std@@@2@V?$allocator@U?$pair@$$CBV?$basic_string@DU?$char_traits@D@std@@V?$allocator@D@2@@std@@PAUMix_Chunk@@@std@@@2@$0A@@std@@@std@@IBEABU?$less@V?$basic_string@DU?$char_traits@D@std@@V?$allocator@D@2@@std@@@2@XZ 0040f300 f i AudioPlayer.obj
 0001:0000e320       ?_Getcomp@?$_Tree@V?$_Tmap_traits@V?$basic_string@DU?$char_traits@D@std@@V?$allocator@D@2@@std@@PAU_Mix_Music@@U?$less@V?$basic_string@DU?$char_traits@D@std@@V?$allocator@D@2@@std@@@2@V?$allocator@U?$pair@$$CBV?$basic_string@DU?$char_traits@D@std@@V?$allocator@D@2@@std@@PAU_Mix_Music@@@std@@@2@$0A@@std@@@std@@IBEABU?$less@V?$basic_string@DU?$char_traits@D@std@@V?$allocator@D@2@@std@@@2@XZ 0040f320 f i AudioPlayer.obj
 0001:0000e340       ?_Getcont@_Iterator_base12@std@@QBEPBU_Container_base12@2@XZ 0040f340 f i AudioPlayer.obj
 0001:0000e380       ?_Insert_node@?$_Tree_val@U?$_Tree_simple_types@U?$pair@$$CBV?$basic_string@DU?$char_traits@D@std@@V?$allocator@D@2@@std@@PAUMix_Chunk@@@std@@@std@@@std@@QAEPAU?$_Tree_node@U?$pair@$$CBV?$basic_string@DU?$char_traits@D@std@@V?$allocator@D@2@@std@@PAUMix_Chunk@@@std@@PAX@2@U?$_Tree_id@PAU?$_Tree_node@U?$pair@$$CBV?$basic_string@DU?$char_traits@D@std@@V?$allocator@D@2@@std@@PAUMix_Chunk@@@std@@PAX@std@@@2@QAU32@@Z 0040f380 f i AudioPlayer.obj
 0001:0000e610       ?_Insert_node@?$_Tree_val@U?$_Tree_simple_types@U?$pair@$$CBV?$basic_string@DU?$char_traits@D@std@@V?$allocator@D@2@@std@@PAU_Mix_Music@@@std@@@std@@@std@@QAEPAU?$_Tree_node@U?$pair@$$CBV?$basic_string@DU?$char_traits@D@std@@V?$allocator@D@2@@std@@PAU_Mix_Music@@@std@@PAX@2@U?$_Tree_id@PAU?$_Tree_node@U?$pair@$$CBV?$basic_string@DU?$char_traits@D@std@@V?$allocator@D@2@@std@@PAU_Mix_Music@@@std@@PAX@std@@@2@QAU32@@Z 0040f610 f i AudioPlayer.obj
 0001:0000e8a0       ?_Large_string_engaged@?$_String_val@U?$_Simple_types@D@std@@@std@@QBE_NXZ 0040f8a0 f i AudioPlayer.obj
 0001:0000e8e0       ?_Lrotate@?$_Tree_val@U?$_Tree_simple_types@U?$pair@$$CBV?$basic_string@DU?$char_traits@D@std@@V?$allocator@D@2@@std@@PAUMix_Chunk@@@std@@@std@@@std@@QAEXPAU?$_Tree_node@U?$pair@$$CBV?$basic_string@DU?$char_traits@D@std@@V?$allocator@D@2@@std@@PAUMix_Chunk@@@std@@PAX@2@@Z 0040f8e0 f i AudioPlayer.obj
 0001:0000e9a0       ?_Lrotate@?$_Tree_val@U?$_Tree_simple_types@U?$pair@$$CBV?$basic_string@DU?$char_traits@D@std@@V?$allocator@D@2@@std@@PAU_Mix_Music@@@std@@@std@@@std@@QAEXPAU?$_Tree_node@U?$pair@$$CBV?$basic_string@DU?$char_traits@D@std@@V?$allocator@D@2@@std@@PAU_Mix_Music@@@std@@PAX@2@@Z 0040f9a0 f i AudioPlayer.obj
 0001:0000ea60       ?_Min@?$_Tree_val@U?$_Tree_simple_types@U?$pair@$$CBV?$basic_string@DU?$char_traits@D@std@@V?$allocator@D@2@@std@@PAUMix_Chunk@@@std@@@std@@@std@@SAPAU?$_Tree_node@U?$pair@$$CBV?$basic_string@DU?$char_traits@D@std@@V?$allocator@D@2@@std@@PAUMix_Chunk@@@std@@PAX@2@PAU32@@Z 0040fa60 f i AudioPlayer.obj
 0001:0000ea90       ?_Min@?$_Tree_val@U?$_Tree_simple_types@U?$pair@$$CBV?$basic_string@DU?$char_traits@D@std@@V?$allocator@D@2@@std@@PAU_Mix_Music@@@std@@@std@@@std@@SAPAU?$_Tree_node@U?$pair@$$CBV?$basic_string@DU?$char_traits@D@std@@V?$allocator@D@2@@std@@PAU_Mix_Music@@@std@@PAX@2@PAU32@@Z 0040fa90 f i AudioPlayer.obj
 0001:0000eac0       ?_Myptr@?$_String_val@U?$_Simple_types@D@std@@@std@@QAEPADXZ 0040fac0 f i AudioPlayer.obj
 0001:0000eb10       ?_Myptr@?$_String_val@U?$_Simple_types@D@std@@@std@@QBEPBDXZ 0040fb10 f i AudioPlayer.obj
 0001:0000eb60       ?_Orphan_all@_Container_base12@std@@QAEXXZ 0040fb60 f i AudioPlayer.obj
 0001:0000ebe0       ?_Orphan_me@_Iterator_base12@std@@QAEXXZ 0040fbe0 f i AudioPlayer.obj
 0001:0000ecc0       ?_Release@?$_Alloc_construct_ptr@V?$allocator@U?$_Tree_node@U?$pair@$$CBV?$basic_string@DU?$char_traits@D@std@@V?$allocator@D@2@@std@@PAUMix_Chunk@@@std@@PAX@std@@@std@@@std@@QAEPAU?$_Tree_node@U?$pair@$$CBV?$basic_string@DU?$char_traits@D@std@@V?$allocator@D@2@@std@@PAUMix_Chunk@@@std@@PAX@2@XZ 0040fcc0 f i AudioPlayer.obj
 0001:0000ed30       ?_Release@?$_Alloc_construct_ptr@V?$allocator@U?$_Tree_node@U?$pair@$$CBV?$basic_string@DU?$char_traits@D@std@@V?$allocator@D@2@@std@@PAU_Mix_Music@@@std@@PAX@std@@@std@@@std@@QAEPAU?$_Tree_node@U?$pair@$$CBV?$basic_string@DU?$char_traits@D@std@@V?$allocator@D@2@@std@@PAU_Mix_Music@@@std@@PAX@2@XZ 0040fd30 f i AudioPlayer.obj
 0001:0000eda0       ?_Release@_Basic_container_proxy_ptr12@std@@QAEXXZ 0040fda0 f i AudioPlayer.obj
 0001:0000edc0       ?_Rrotate@?$_Tree_val@U?$_Tree_simple_types@U?$pair@$$CBV?$basic_string@DU?$char_traits@D@std@@V?$allocator@D@2@@std@@PAUMix_Chunk@@@std@@@std@@@std@@QAEXPAU?$_Tree_node@U?$pair@$$CBV?$basic_string@DU?$char_traits@D@std@@V?$allocator@D@2@@std@@PAUMix_Chunk@@@std@@PAX@2@@Z 0040fdc0 f i AudioPlayer.obj
 0001:0000ee90       ?_Rrotate@?$_Tree_val@U?$_Tree_simple_types@U?$pair@$$CBV?$basic_string@DU?$char_traits@D@std@@V?$allocator@D@2@@std@@PAU_Mix_Music@@@std@@@std@@@std@@QAEXPAU?$_Tree_node@U?$pair@$$CBV?$basic_string@DU?$char_traits@D@std@@V?$allocator@D@2@@std@@PAU_Mix_Music@@@std@@PAX@2@@Z 0040fe90 f i AudioPlayer.obj
 0001:0000ef60       ?_Throw_bad_array_new_length@std@@YAXXZ 0040ff60 f i AudioPlayer.obj
 0001:0000ef90       ?_Throw_tree_length_error@std@@YAXXZ 0040ff90 f i AudioPlayer.obj
 0001:0000efb0       ?_Tidy_deallocate@?$basic_string@DU?$char_traits@D@std@@V?$allocator@D@2@@std@@AAEXXZ 0040ffb0 f i AudioPlayer.obj
 0001:0000f0a0       ?_Tidy_init@?$basic_string@DU?$char_traits@D@std@@V?$allocator@D@2@@std@@AAEXXZ 004100a0 f i AudioPlayer.obj
 0001:0000f100       ?_Xlen@?$basic_string@DU?$char_traits@D@std@@V?$allocator@D@2@@std@@CAXXZ 00410100 f i AudioPlayer.obj
 0001:0000f120       ?allocate@?$allocator@D@std@@QAEPADI@Z 00410120 f i AudioPlayer.obj
 0001:0000f150       ?allocate@?$allocator@U?$_Tree_node@U?$pair@$$CBV?$basic_string@DU?$char_traits@D@std@@V?$allocator@D@2@@std@@PAUMix_Chunk@@@std@@PAX@std@@@std@@QAEPAU?$_Tree_node@U?$pair@$$CBV?$basic_string@DU?$char_traits@D@std@@V?$allocator@D@2@@std@@PAUMix_Chunk@@@std@@PAX@2@I@Z 00410150 f i AudioPlayer.obj
 0001:0000f180       ?allocate@?$allocator@U?$_Tree_node@U?$pair@$$CBV?$basic_string@DU?$char_traits@D@std@@V?$allocator@D@2@@std@@PAU_Mix_Music@@@std@@PAX@std@@@std@@QAEPAU?$_Tree_node@U?$pair@$$CBV?$basic_string@DU?$char_traits@D@std@@V?$allocator@D@2@@std@@PAU_Mix_Music@@@std@@PAX@2@I@Z 00410180 f i AudioPlayer.obj
 0001:0000f1b0       ?allocate@?$allocator@U_Container_proxy@std@@@std@@QAEPAU_Container_proxy@2@I@Z 004101b0 f i AudioPlayer.obj
 0001:0000f1e0       ?assign@?$_Narrow_char_traits@DH@std@@SAXAADABD@Z 004101e0 f i AudioPlayer.obj
 0001:0000f200       ?assign@?$basic_string@DU?$char_traits@D@std@@V?$allocator@D@2@@std@@QAEAAV12@QBD@Z 00410200 f i AudioPlayer.obj
 0001:0000f240       ?assign@?$basic_string@DU?$char_traits@D@std@@V?$allocator@D@2@@std@@QAEAAV12@QBDI@Z 00410240 f i AudioPlayer.obj
 0001:0000f2e0       ?at@?$map@V?$basic_string@DU?$char_traits@D@std@@V?$allocator@D@2@@std@@PAUMix_Chunk@@U?$less@V?$basic_string@DU?$char_traits@D@std@@V?$allocator@D@2@@std@@@2@V?$allocator@U?$pair@$$CBV?$basic_string@DU?$char_traits@D@std@@V?$allocator@D@2@@std@@PAUMix_Chunk@@@std@@@2@@std@@QAEAAPAUMix_Chunk@@ABV?$basic_string@DU?$char_traits@D@std@@V?$allocator@D@2@@2@@Z 004102e0 f i AudioPlayer.obj
 0001:0000f340       ?at@?$map@V?$basic_string@DU?$char_traits@D@std@@V?$allocator@D@2@@std@@PAU_Mix_Music@@U?$less@V?$basic_string@DU?$char_traits@D@std@@V?$allocator@D@2@@std@@@2@V?$allocator@U?$pair@$$CBV?$basic_string@DU?$char_traits@D@std@@V?$allocator@D@2@@std@@PAU_Mix_Music@@@std@@@2@@std@@QAEAAPAU_Mix_Music@@ABV?$basic_string@DU?$char_traits@D@std@@V?$allocator@D@2@@2@@Z 00410340 f i AudioPlayer.obj
 0001:0000f3a0       ?begin@?$_Tree@V?$_Tmap_traits@V?$basic_string@DU?$char_traits@D@std@@V?$allocator@D@2@@std@@PAUMix_Chunk@@U?$less@V?$basic_string@DU?$char_traits@D@std@@V?$allocator@D@2@@std@@@2@V?$allocator@U?$pair@$$CBV?$basic_string@DU?$char_traits@D@std@@V?$allocator@D@2@@std@@PAUMix_Chunk@@@std@@@2@$0A@@std@@@std@@QAE?AV?$_Tree_iterator@V?$_Tree_val@U?$_Tree_simple_types@U?$pair@$$CBV?$basic_string@DU?$char_traits@D@std@@V?$allocator@D@2@@std@@PAUMix_Chunk@@@std@@@std@@@std@@@2@XZ 004103a0 f i AudioPlayer.obj
 0001:0000f3e0       ?begin@?$_Tree@V?$_Tmap_traits@V?$basic_string@DU?$char_traits@D@std@@V?$allocator@D@2@@std@@PAU_Mix_Music@@U?$less@V?$basic_string@DU?$char_traits@D@std@@V?$allocator@D@2@@std@@@2@V?$allocator@U?$pair@$$CBV?$basic_string@DU?$char_traits@D@std@@V?$allocator@D@2@@std@@PAU_Mix_Music@@@std@@@2@$0A@@std@@@std@@QAE?AV?$_Tree_iterator@V?$_Tree_val@U?$_Tree_simple_types@U?$pair@$$CBV?$basic_string@DU?$char_traits@D@std@@V?$allocator@D@2@@std@@PAU_Mix_Music@@@std@@@std@@@std@@@2@XZ 004103e0 f i AudioPlayer.obj
 0001:0000f420       ?compare@?$_Narrow_char_traits@DH@std@@SAHQBD0I@Z 00410420 f i AudioPlayer.obj
 0001:0000f440       ?compare@?$basic_string@DU?$char_traits@D@std@@V?$allocator@D@2@@std@@QBEHABV12@@Z 00410440 f i AudioPlayer.obj
 0001:0000f4c0       ?copy@?$_Narrow_char_traits@DH@std@@SAPADQADQBDI@Z 004104c0 f i AudioPlayer.obj
 0001:0000f4e0       ?count@?$_Tree@V?$_Tmap_traits@V?$basic_string@DU?$char_traits@D@std@@V?$allocator@D@2@@std@@PAUMix_Chunk@@U?$less@V?$basic_string@DU?$char_traits@D@std@@V?$allocator@D@2@@std@@@2@V?$allocator@U?$pair@$$CBV?$basic_string@DU?$char_traits@D@std@@V?$allocator@D@2@@std@@PAUMix_Chunk@@@std@@@2@$0A@@std@@@std@@QBEIABV?$basic_string@DU?$char_traits@D@std@@V?$allocator@D@2@@2@@Z 004104e0 f i AudioPlayer.obj
 0001:0000f520       ?count@?$_Tree@V?$_Tmap_traits@V?$basic_string@DU?$char_traits@D@std@@V?$allocator@D@2@@std@@PAU_Mix_Music@@U?$less@V?$basic_string@DU?$char_traits@D@std@@V?$allocator@D@2@@std@@@2@V?$allocator@U?$pair@$$CBV?$basic_string@DU?$char_traits@D@std@@V?$allocator@D@2@@std@@PAU_Mix_Music@@@std@@@2@$0A@@std@@@std@@QBEIABV?$basic_string@DU?$char_traits@D@std@@V?$allocator@D@2@@2@@Z 00410520 f i AudioPlayer.obj
 0001:0000f560       ?deallocate@?$_Default_allocator_traits@V?$allocator@U?$_Tree_node@U?$pair@$$CBV?$basic_string@DU?$char_traits@D@std@@V?$allocator@D@2@@std@@PAUMix_Chunk@@@std@@PAX@std@@@std@@@std@@SAXAAV?$allocator@U?$_Tree_node@U?$pair@$$CBV?$basic_string@DU?$char_traits@D@std@@V?$allocator@D@2@@std@@PAUMix_Chunk@@@std@@PAX@std@@@2@QAU?$_Tree_node@U?$pair@$$CBV?$basic_string@DU?$char_traits@D@std@@V?$allocator@D@2@@std@@PAUMix_Chunk@@@std@@PAX@2@I@Z 00410560 f i AudioPlayer.obj
 0001:0000f580       ?deallocate@?$_Default_allocator_traits@V?$allocator@U?$_Tree_node@U?$pair@$$CBV?$basic_string@DU?$char_traits@D@std@@V?$allocator@D@2@@std@@PAU_Mix_Music@@@std@@PAX@std@@@std@@@std@@SAXAAV?$allocator@U?$_Tree_node@U?$pair@$$CBV?$basic_string@DU?$char_traits@D@std@@V?$allocator@D@2@@std@@PAU_Mix_Music@@@std@@PAX@std@@@2@QAU?$_Tree_node@U?$pair@$$CBV?$basic_string@DU?$char_traits@D@std@@V?$allocator@D@2@@std@@PAU_Mix_Music@@@std@@PAX@2@I@Z 00410580 f i AudioPlayer.obj
 0001:0000f5a0       ?deallocate@?$_Default_allocator_traits@V?$allocator@U_Container_proxy@std@@@std@@@std@@SAXAAV?$allocator@U_Container_proxy@std@@@2@QAU_Container_proxy@2@I@Z 004105a0 f i AudioPlayer.obj
 0001:0000f5c0       ?deallocate@?$allocator@D@std@@QAEXQADI@Z 004105c0 f i AudioPlayer.obj
 0001:0000f5f0       ?deallocate@?$allocator@U?$_Tree_node@U?$pair@$$CBV?$basic_string@DU?$char_traits@D@std@@V?$allocator@D@2@@std@@PAUMix_Chunk@@@std@@PAX@std@@@std@@QAEXQAU?$_Tree_node@U?$pair@$$CBV?$basic_string@DU?$char_traits@D@std@@V?$allocator@D@2@@std@@PAUMix_Chunk@@@std@@PAX@2@I@Z 004105f0 f i AudioPlayer.obj
 0001:0000f620       ?deallocate@?$allocator@U?$_Tree_node@U?$pair@$$CBV?$basic_string@DU?$char_traits@D@std@@V?$allocator@D@2@@std@@PAU_Mix_Music@@@std@@PAX@std@@@std@@QAEXQAU?$_Tree_node@U?$pair@$$CBV?$basic_string@DU?$char_traits@D@std@@V?$allocator@D@2@@std@@PAU_Mix_Music@@@std@@PAX@2@I@Z 00410620 f i AudioPlayer.obj
 0001:0000f650       ?end@?$_Tree@V?$_Tmap_traits@V?$basic_string@DU?$char_traits@D@std@@V?$allocator@D@2@@std@@PAUMix_Chunk@@U?$less@V?$basic_string@DU?$char_traits@D@std@@V?$allocator@D@2@@std@@@2@V?$allocator@U?$pair@$$CBV?$basic_string@DU?$char_traits@D@std@@V?$allocator@D@2@@std@@PAUMix_Chunk@@@std@@@2@$0A@@std@@@std@@QAE?AV?$_Tree_iterator@V?$_Tree_val@U?$_Tree_simple_types@U?$pair@$$CBV?$basic_string@DU?$char_traits@D@std@@V?$allocator@D@2@@std@@PAUMix_Chunk@@@std@@@std@@@std@@@2@XZ 00410650 f i AudioPlayer.obj
 0001:0000f690       ?end@?$_Tree@V?$_Tmap_traits@V?$basic_string@DU?$char_traits@D@std@@V?$allocator@D@2@@std@@PAU_Mix_Music@@U?$less@V?$basic_string@DU?$char_traits@D@std@@V?$allocator@D@2@@std@@@2@V?$allocator@U?$pair@$$CBV?$basic_string@DU?$char_traits@D@std@@V?$allocator@D@2@@std@@PAU_Mix_Music@@@std@@@2@$0A@@std@@@std@@QAE?AV?$_Tree_iterator@V?$_Tree_val@U?$_Tree_simple_types@U?$pair@$$CBV?$basic_string@DU?$char_traits@D@std@@V?$allocator@D@2@@std@@PAU_Mix_Music@@@std@@@std@@@std@@@2@XZ 00410690 f i AudioPlayer.obj
 0001:0000f6d0       ?length@?$_Narrow_char_traits@DH@std@@SAIQBD@Z 004106d0 f i AudioPlayer.obj
 0001:0000f6f0       ?max@?$numeric_limits@H@std@@SAHXZ 004106f0 f i AudioPlayer.obj
 0001:0000f700       ?max_size@?$_Default_allocator_traits@V?$allocator@D@std@@@std@@SAIABV?$allocator@D@2@@Z 00410700 f i AudioPlayer.obj
 0001:0000f710       ?max_size@?$_Default_allocator_traits@V?$allocator@U?$_Tree_node@U?$pair@$$CBV?$basic_string@DU?$char_traits@D@std@@V?$allocator@D@2@@std@@PAUMix_Chunk@@@std@@PAX@std@@@std@@@std@@SAIABV?$allocator@U?$_Tree_node@U?$pair@$$CBV?$basic_string@DU?$char_traits@D@std@@V?$allocator@D@2@@std@@PAUMix_Chunk@@@std@@PAX@std@@@2@@Z 00410710 f i AudioPlayer.obj
 0001:0000f720       ?max_size@?$_Default_allocator_traits@V?$allocator@U?$_Tree_node@U?$pair@$$CBV?$basic_string@DU?$char_traits@D@std@@V?$allocator@D@2@@std@@PAU_Mix_Music@@@std@@PAX@std@@@std@@@std@@SAIABV?$allocator@U?$_Tree_node@U?$pair@$$CBV?$basic_string@DU?$char_traits@D@std@@V?$allocator@D@2@@std@@PAU_Mix_Music@@@std@@PAX@std@@@2@@Z 00410720 f i AudioPlayer.obj
 0001:0000f730       ?max_size@?$_Tree@V?$_Tmap_traits@V?$basic_string@DU?$char_traits@D@std@@V?$allocator@D@2@@std@@PAUMix_Chunk@@U?$less@V?$basic_string@DU?$char_traits@D@std@@V?$allocator@D@2@@std@@@2@V?$allocator@U?$pair@$$CBV?$basic_string@DU?$char_traits@D@std@@V?$allocator@D@2@@std@@PAUMix_Chunk@@@std@@@2@$0A@@std@@@std@@QBEIXZ 00410730 f i AudioPlayer.obj
 0001:0000f780       ?max_size@?$_Tree@V?$_Tmap_traits@V?$basic_string@DU?$char_traits@D@std@@V?$allocator@D@2@@std@@PAU_Mix_Music@@U?$less@V?$basic_string@DU?$char_traits@D@std@@V?$allocator@D@2@@std@@@2@V?$allocator@U?$pair@$$CBV?$basic_string@DU?$char_traits@D@std@@V?$allocator@D@2@@std@@PAU_Mix_Music@@@std@@@2@$0A@@std@@@std@@QBEIXZ 00410780 f i AudioPlayer.obj
 0001:0000f7d0       ?max_size@?$basic_string@DU?$char_traits@D@std@@V?$allocator@D@2@@std@@QBEIXZ 004107d0 f i AudioPlayer.obj
 0001:0000f850       ?move@?$_Narrow_char_traits@DH@std@@SAPADQADQBDI@Z 00410850 f i AudioPlayer.obj
 0001:0000f870       ?pointer_to@?$pointer_traits@PAU?$pair@$$CBV?$basic_string@DU?$char_traits@D@std@@V?$allocator@D@2@@std@@PAUMix_Chunk@@@std@@@std@@SAPAU?$pair@$$CBV?$basic_string@DU?$char_traits@D@std@@V?$allocator@D@2@@std@@PAUMix_Chunk@@@2@AAU32@@Z 00410870 f i AudioPlayer.obj
 0001:0000f890       ?pointer_to@?$pointer_traits@PAU?$pair@$$CBV?$basic_string@DU?$char_traits@D@std@@V?$allocator@D@2@@std@@PAU_Mix_Music@@@std@@@std@@SAPAU?$pair@$$CBV?$basic_string@DU?$char_traits@D@std@@V?$allocator@D@2@@std@@PAU_Mix_Music@@@2@AAU32@@Z 00410890 f i AudioPlayer.obj
 0001:0000f8b0       ?what@exception@std@@UBEPBDXZ 004108b0 f i AudioPlayer.obj
 0001:0000f8f0       ___local_stdio_printf_options 004108f0 f i AudioPlayer.obj
 0001:0000f900       __vfprintf_l               00410900 f i AudioPlayer.obj
 0001:0000f940       _printf                    00410940 f i AudioPlayer.obj
 0001:0000f990       ??0Button@@QAE@PAVGameEngine@@HHHHHHPBDPAVFont@@@Z 00410990 f   Button.obj
 0001:0000fa00       ??1Button@@QAE@XZ          00410a00 f   Button.obj
 0001:0000fa20       ?onClick@Button@@UAEXXZ    00410a20 f   Button.obj
 0001:0000fa30       ?drawButton@Button@@UAEX_N@Z 00410a30 f   Button.obj
 0001:0000fac0       ?isClicked@Button@@QAE_NHH@Z 00410ac0 f   Button.obj
 0001:0000fb10       ?onClick@ButtonCharCreator@@UAEXXZ 00410b10 f   Button.obj
 0001:0000fb40       ?onClick@ButtonNewGame@@UAEXXZ 00410b40 f   Button.obj
 0001:0000fb70       ?onClick@ButtonContinue@@UAEXXZ 00410b70 f   Button.obj
 0001:00010360       ?onClick@ButtonEditor@@UAEXXZ 00411360 f   Button.obj
 0001:00010390       ?onClick@ButtonExit@@UAEXXZ 00411390 f   Button.obj
 0001:000103b0       ?mapCoordinates@CoordinateMappingRotateTransparent@@UAE_NAAN0ABVSimpleImage@@@Z 004113b0 f i ProjectileObject.obj
 0001:00010630       ??$_Pocma@V?$allocator@D@std@@@std@@YAXAAV?$allocator@D@0@0@Z 00411630 f i Button.obj
 0001:00010650       ??$addressof@$$CBV?$_String_val@U?$_Simple_types@D@std@@@std@@@std@@YAPBV?$_String_val@U?$_Simple_types@D@std@@@0@ABV10@@Z 00411650 f i Button.obj
 0001:00010660       ??$addressof@V?$_String_val@U?$_Simple_types@D@std@@@std@@@std@@YAPAV?$_String_val@U?$_Simple_types@D@std@@@0@AAV10@@Z 00411660 f i Button.obj
 0001:00010670       ??$addressof@V?$basic_string@DU?$char_traits@D@std@@V?$allocator@D@2@@std@@@std@@YAPAV?$basic_string@DU?$char_traits@D@std@@V?$allocator@D@2@@0@AAV10@@Z 00411670 f i Button.obj
 0001:00010680       ??$move@AAV?$allocator@D@std@@@std@@YA$$QAV?$allocator@D@0@AAV10@@Z 00411680 f i Button.obj
 0001:00010690       ??4?$basic_string@DU?$char_traits@D@std@@V?$allocator@D@2@@std@@QAEAAV01@$$QAV01@@Z 00411690 f i Button.obj
 0001:000106e0       ?GetSaveManager@GameEngine@@QAEPAVSaveManager@@XZ 004116e0 f i Button.obj
 0001:00010700       ?_Memcpy_val_from@?$basic_string@DU?$char_traits@D@std@@V?$allocator@D@2@@std@@AAEXABV12@@Z 00411700 f i Button.obj
 0001:00010760       ?_Move_assign@?$basic_string@DU?$char_traits@D@std@@V?$allocator@D@2@@std@@AAEXAAV12@U_Equal_allocators@2@@Z 00411760 f i Button.obj
 0001:000107c0       ?_Swap_proxy_and_iterators@?$basic_string@DU?$char_traits@D@std@@V?$allocator@D@2@@std@@AAEXAAV12@@Z 004117c0 f i Button.obj
 0001:000107e0       ?_Swap_proxy_and_iterators@_Container_base12@std@@QAEXAAU12@@Z 004117e0 f i Button.obj
 0001:00010860       ?_Take_contents@?$basic_string@DU?$char_traits@D@std@@V?$allocator@D@2@@std@@AAEXAAV12@U?$integral_constant@_N$00@2@@Z 00411860 f i Button.obj
 0001:000108f0       ?c_str@?$basic_string@DU?$char_traits@D@std@@V?$allocator@D@2@@std@@QBEPBDXZ 004118f0 f i Button.obj
 0001:00010940       ?drawForegroundRectangle@BaseEngine@@QAEXHHHHI@Z 00411940 f i Button.obj
 0001:00010980       ?drawForegroundString@BaseEngine@@QAEXHHPBDIPAVFont@@@Z 00411980 f i Button.obj
 0001:000109c0       ?setExitWithCode@BaseEngine@@QAEXH@Z 004119c0 f i Button.obj
 0001:000109e0       ?stoi@std@@YAHABV?$basic_string@DU?$char_traits@D@std@@V?$allocator@D@2@@1@PAIH@Z 004119e0 f i Button.obj
 0001:00010a90       ??0CharObject@@QAE@HHPAVBaseEngine@@HH_NV?$shared_ptr@VWeapon@@@std@@@Z 00411a90 f   CharObject.obj
 0001:00010b50       ??1CharObject@@UAE@XZ      00411b50 f   CharObject.obj
 0001:00010b80       ?virtDraw@CharObject@@UAEXXZ 00411b80 f   CharObject.obj
 0001:00010b90       ?getXPos@CharObject@@QAEHXZ 00411b90 f   CharObject.obj
 0001:00010bb0       ?getYPos@CharObject@@QAEHXZ 00411bb0 f   CharObject.obj
 0001:00010bd0       ?setMovement@CharObject@@QAEXHHHHHHH@Z 00411bd0 f   CharObject.obj
 0001:00010c40       ?move@CharObject@@UAEXHHHH@Z 00411c40 f   CharObject.obj
 0001:00010ca0       ?onProjectileHit@CharObject@@UAEXPAV1@@Z 00411ca0 f   CharObject.obj
 0001:00010cb0       ?lineOfSight@CharObject@@QAE_NHHHHH@Z 00411cb0 f   CharObject.obj
 0001:00011020       ??$?0$$V@?$_Compressed_pair@V?$allocator@U?$_List_node@V?$tuple@HH@std@@PAX@std@@@std@@V?$_List_val@U?$_List_simple_types@V?$tuple@HH@std@@@std@@@2@$00@std@@QAE@U_Zero_then_variadic_args_t@1@@Z 00412020 f i CharObject.obj
 0001:00011050       ??$?0AAH@?$_Tuple_val@H@std@@QAE@AAH@Z 00412050 f i CharObject.obj
 0001:00011080       ??$?0AAHAAH$0A@@?$tuple@HH@std@@QAE@AAH0@Z 00412080 f i CharObject.obj
 0001:00011110       ??$?0U?$_List_node@V?$tuple@HH@std@@PAX@std@@@?$allocator@U_Container_proxy@std@@@std@@QAE@ABV?$allocator@U?$_List_node@V?$tuple@HH@std@@PAX@std@@@1@@Z 00412110 f i CharObject.obj
 0001:00011130       ??$?0U_Exact_args_t@std@@$0A@@?$tuple@$$V@std@@QAE@U_Exact_args_t@1@@Z 00412130 f i CharObject.obj
 0001:00011150       ??$?0U_Exact_args_t@std@@AAH$$V$0A@@?$tuple@H@std@@QAE@U_Exact_args_t@1@AAH@Z 00412150 f i CharObject.obj
 0001:000111a0       ??$?0U_Exact_args_t@std@@AAHAAH$0A@@?$tuple@HH@std@@QAE@U_Exact_args_t@1@AAH1@Z 004121a0 f i CharObject.obj
 0001:00011200       ??$?0V?$tuple@HH@std@@@?$_List_node_emplace_op2@V?$allocator@U?$_List_node@V?$tuple@HH@std@@PAX@std@@@std@@@std@@QAE@AAV?$allocator@U?$_List_node@V?$tuple@HH@std@@PAX@std@@@1@$$QAV?$tuple@HH@1@@Z 00412200 f i CharObject.obj
 0001:000112b0       ??$?6U?$char_traits@D@std@@@std@@YAAAV?$basic_ostream@DU?$char_traits@D@std@@@0@AAV10@PBD@Z 004122b0 f i CharObject.obj
 0001:000116b0       ??$_Construct_in_place@PAU?$_List_node@V?$tuple@HH@std@@PAX@std@@AAPAU12@@std@@YAXAAPAU?$_List_node@V?$tuple@HH@std@@PAX@0@0@Z 004126b0 f i CharObject.obj
 0001:00011700       ??$_Construct_in_place@PAU?$_List_node@V?$tuple@HH@std@@PAX@std@@ABQAU12@@std@@YAXAAPAU?$_List_node@V?$tuple@HH@std@@PAX@0@ABQAU10@@Z 00412700 f i CharObject.obj
 0001:00011750       ??$_Copy_construct_from@VWeapon@@@?$_Ptr_base@VWeapon@@@std@@IAEXABV?$shared_ptr@VWeapon@@@1@@Z 00412750 f i CharObject.obj
 0001:000117a0       ??$_Destroy_in_place@PAU?$_List_node@V?$tuple@HH@std@@PAX@std@@@std@@YAXAAPAU?$_List_node@V?$tuple@HH@std@@PAX@0@@Z 004127a0 f i CharObject.obj
 0001:000117b0       ??$_Emplace@V?$tuple@HH@std@@@?$list@V?$tuple@HH@std@@V?$allocator@V?$tuple@HH@std@@@2@@std@@QAEPAU?$_List_node@V?$tuple@HH@std@@PAX@1@QAU21@$$QAV?$tuple@HH@1@@Z 004127b0 f i CharObject.obj
 0001:00011860       ??$_Free_non_head@V?$allocator@U?$_List_node@V?$tuple@HH@std@@PAX@std@@@std@@@?$_List_node@V?$tuple@HH@std@@PAX@std@@SAXAAV?$allocator@U?$_List_node@V?$tuple@HH@std@@PAX@std@@@1@PAU01@@Z 00412860 f i CharObject.obj
 0001:000118c0       ??$_Freenode0@V?$allocator@U?$_List_node@V?$tuple@HH@std@@PAX@std@@@std@@@?$_List_node@V?$tuple@HH@std@@PAX@std@@SAXAAV?$allocator@U?$_List_node@V?$tuple@HH@std@@PAX@std@@@1@PAU01@@Z 004128c0 f i CharObject.obj
 0001:00011940       ??$_Freenode@V?$allocator@U?$_List_node@V?$tuple@HH@std@@PAX@std@@@std@@@?$_List_node@V?$tuple@HH@std@@PAX@std@@SAXAAV?$allocator@U?$_List_node@V?$tuple@HH@std@@PAX@std@@@1@PAU01@@Z 00412940 f i CharObject.obj
 0001:000119c0       ??$_Get_size_of_n@$0BA@@std@@YAII@Z 004129c0 f i CharObject.obj
 0001:00011a00       ??$addressof@PAU?$_List_node@V?$tuple@HH@std@@PAX@std@@@std@@YAPAPAU?$_List_node@V?$tuple@HH@std@@PAX@0@AAPAU10@@Z 00412a00 f i CharObject.obj
 0001:00011a10       ??$addressof@V?$_List_val@U?$_List_simple_types@V?$tuple@HH@std@@@std@@@std@@@std@@YAPAV?$_List_val@U?$_List_simple_types@V?$tuple@HH@std@@@std@@@0@AAV10@@Z 00412a10 f i CharObject.obj
 0001:00011a20       ??$addressof@V?$tuple@HH@std@@@std@@YAPAV?$tuple@HH@0@AAV10@@Z 00412a20 f i CharObject.obj
 0001:00011a30       ??$construct@V?$tuple@HH@std@@V12@@?$_Default_allocator_traits@V?$allocator@U?$_List_node@V?$tuple@HH@std@@PAX@std@@@std@@@std@@SAXAAV?$allocator@U?$_List_node@V?$tuple@HH@std@@PAX@std@@@1@QAV?$tuple@HH@1@$$QAV31@@Z 00412a30 f i CharObject.obj
 0001:00011a70       ??$destroy@V?$tuple@HH@std@@@?$_Default_allocator_traits@V?$allocator@U?$_List_node@V?$tuple@HH@std@@PAX@std@@@std@@@std@@SAXAAV?$allocator@U?$_List_node@V?$tuple@HH@std@@PAX@std@@@1@QAV?$tuple@HH@1@@Z 00412a70 f i CharObject.obj
 0001:00011a80       ??$forward@AAH@std@@YAAAHAAH@Z 00412a80 f i CharObject.obj
 0001:00011a90       ??$forward@AAPAU?$_List_node@V?$tuple@HH@std@@PAX@std@@@std@@YAAAPAU?$_List_node@V?$tuple@HH@std@@PAX@0@AAPAU10@@Z 00412a90 f i CharObject.obj
 0001:00011aa0       ??$forward@ABQAU?$_List_node@V?$tuple@HH@std@@PAX@std@@@std@@YAABQAU?$_List_node@V?$tuple@HH@std@@PAX@0@ABQAU10@@Z 00412aa0 f i CharObject.obj
 0001:00011ab0       ??$forward@V?$tuple@HH@std@@@std@@YA$$QAV?$tuple@HH@0@AAV10@@Z 00412ab0 f i CharObject.obj
 0001:00011ac0       ??$get@$00HH@std@@YAAAHAAV?$tuple@HH@0@@Z 00412ac0 f i CharObject.obj
 0001:00011ad0       ??$get@$0A@HH@std@@YAAAHAAV?$tuple@HH@0@@Z 00412ad0 f i CharObject.obj
 0001:00011ae0       ??$make_tuple@AAHAAH@std@@YA?AV?$tuple@HH@0@AAH0@Z 00412ae0 f i CharObject.obj
 0001:00011b20       ??$move@AAV?$tuple@HH@std@@@std@@YA$$QAV?$tuple@HH@0@AAV10@@Z 00412b20 f i CharObject.obj
 0001:00011b30       ??0?$_Alloc_construct_ptr@V?$allocator@U?$_List_node@V?$tuple@HH@std@@PAX@std@@@std@@@std@@QAE@AAV?$allocator@U?$_List_node@V?$tuple@HH@std@@PAX@std@@@1@@Z 00412b30 f i CharObject.obj
 0001:00011b60       ??0?$_List_const_iterator@V?$_List_val@U?$_List_simple_types@V?$tuple@HH@std@@@std@@@std@@@std@@QAE@$$QAV01@@Z 00412b60 f i CharObject.obj
 0001:00011b90       ??0?$_List_const_iterator@V?$_List_val@U?$_List_simple_types@V?$tuple@HH@std@@@std@@@std@@@std@@QAE@ABV01@@Z 00412b90 f i CharObject.obj
 0001:00011bc0       ??0?$_List_const_iterator@V?$_List_val@U?$_List_simple_types@V?$tuple@HH@std@@@std@@@std@@@std@@QAE@PAU?$_List_node@V?$tuple@HH@std@@PAX@1@PBV?$_List_val@U?$_List_simple_types@V?$tuple@HH@std@@@std@@@1@@Z 00412bc0 f i CharObject.obj
 0001:00011bf0       ??0?$_List_iterator@V?$_List_val@U?$_List_simple_types@V?$tuple@HH@std@@@std@@@std@@@std@@QAE@$$QAV01@@Z 00412bf0 f i CharObject.obj
 0001:00011c20       ??0?$_List_iterator@V?$_List_val@U?$_List_simple_types@V?$tuple@HH@std@@@std@@@std@@@std@@QAE@ABV01@@Z 00412c20 f i CharObject.obj
 0001:00011c50       ??0?$_List_iterator@V?$_List_val@U?$_List_simple_types@V?$tuple@HH@std@@@std@@@std@@@std@@QAE@PAU?$_List_node@V?$tuple@HH@std@@PAX@1@PBV?$_List_val@U?$_List_simple_types@V?$tuple@HH@std@@@std@@@1@@Z 00412c50 f i CharObject.obj
 0001:00011c80       ??0?$_List_unchecked_const_iterator@V?$_List_val@U?$_List_simple_types@V?$tuple@HH@std@@@std@@@std@@U_Iterator_base12@2@@std@@QAE@$$QAV01@@Z 00412c80 f i CharObject.obj
 0001:00011cc0       ??0?$_List_unchecked_const_iterator@V?$_List_val@U?$_List_simple_types@V?$tuple@HH@std@@@std@@@std@@U_Iterator_base12@2@@std@@QAE@ABV01@@Z 00412cc0 f i CharObject.obj
 0001:00011d00       ??0?$_List_unchecked_const_iterator@V?$_List_val@U?$_List_simple_types@V?$tuple@HH@std@@@std@@@std@@U_Iterator_base12@2@@std@@QAE@PAU?$_List_node@V?$tuple@HH@std@@PAX@1@PBV?$_List_val@U?$_List_simple_types@V?$tuple@HH@std@@@std@@@1@@Z 00412d00 f i CharObject.obj
 0001:00011d40       ??0?$_List_val@U?$_List_simple_types@V?$tuple@HH@std@@@std@@@std@@QAE@XZ 00412d40 f i CharObject.obj
 0001:00011d80       ??0?$_Ptr_base@VWeapon@@@std@@IAE@XZ 00412d80 f i CharObject.obj
 0001:00011db0       ??0?$allocator@U?$_List_node@V?$tuple@HH@std@@PAX@std@@@std@@QAE@XZ 00412db0 f i CharObject.obj
 0001:00011dd0       ??0?$list@V?$tuple@HH@std@@V?$allocator@V?$tuple@HH@std@@@2@@std@@QAE@XZ 00412dd0 f i CharObject.obj
 0001:00011e00       ??0?$shared_ptr@VWeapon@@@std@@QAE@ABV01@@Z 00412e00 f i CharObject.obj
 0001:00011e30       ??0?$tuple@$$V@std@@QAE@ABV01@@Z 00412e30 f i CharObject.obj
 0001:00011e50       ??0?$tuple@H@std@@QAE@$$QAV01@@Z 00412e50 f i CharObject.obj
 0001:00011e80       ??0?$tuple@HH@std@@QAE@$$QAV01@@Z 00412e80 f i CharObject.obj
 0001:00011ec0       ??0MovementPosition@@QAE@XZ 00412ec0 f i CharObject.obj
 0001:00011f40       ??0_Sentry_base@?$basic_ostream@DU?$char_traits@D@std@@@std@@QAE@AAV12@@Z 00412f40 f i CharObject.obj
 0001:00011fa0       ??0sentry@?$basic_ostream@DU?$char_traits@D@std@@@std@@QAE@AAV12@@Z 00412fa0 f i CharObject.obj
 0001:000120a0       ??1?$_Alloc_construct_ptr@V?$allocator@U?$_List_node@V?$tuple@HH@std@@PAX@std@@@std@@@std@@QAE@XZ 004130a0 f i CharObject.obj
 0001:00012110       ??1?$_List_const_iterator@V?$_List_val@U?$_List_simple_types@V?$tuple@HH@std@@@std@@@std@@@std@@QAE@XZ 00413110 f i CharObject.obj
 0001:00012130       ??1?$_List_iterator@V?$_List_val@U?$_List_simple_types@V?$tuple@HH@std@@@std@@@std@@@std@@QAE@XZ 00413130 f i CharObject.obj
 0001:00012150       ??1?$_List_node_emplace_op2@V?$allocator@U?$_List_node@V?$tuple@HH@std@@PAX@std@@@std@@@std@@QAE@XZ 00413150 f i CharObject.obj
 0001:000121d0       ??1?$_List_unchecked_const_iterator@V?$_List_val@U?$_List_simple_types@V?$tuple@HH@std@@@std@@@std@@U_Iterator_base12@2@@std@@QAE@XZ 004131d0 f i CharObject.obj
 0001:000121f0       ??1?$list@V?$tuple@HH@std@@V?$allocator@V?$tuple@HH@std@@@2@@std@@QAE@XZ 004131f0 f i CharObject.obj
 0001:00012240       ??1?$shared_ptr@VWeapon@@@std@@QAE@XZ 00413240 f i CharObject.obj
 0001:00012260       ??1_Sentry_base@?$basic_ostream@DU?$char_traits@D@std@@@std@@QAE@XZ 00413260 f i CharObject.obj
 0001:000122e0       ??1sentry@?$basic_ostream@DU?$char_traits@D@std@@@std@@QAE@XZ 004132e0 f i CharObject.obj
 0001:00012350       ??8?$_List_const_iterator@V?$_List_val@U?$_List_simple_types@V?$tuple@HH@std@@@std@@@std@@@std@@QBE_NABV01@@Z 00413350 f i CharObject.obj
 0001:00012410       ??9?$_List_const_iterator@V?$_List_val@U?$_List_simple_types@V?$tuple@HH@std@@@std@@@std@@@std@@QBE_NABV01@@Z 00413410 f i CharObject.obj
 0001:00012460       ??Bsentry@?$basic_ostream@DU?$char_traits@D@std@@@std@@QBE_NXZ 00413460 f i CharObject.obj
 0001:00012480       ??D?$_List_const_iterator@V?$_List_val@U?$_List_simple_types@V?$tuple@HH@std@@@std@@@std@@@std@@QBEABV?$tuple@HH@1@XZ 00413480 f i CharObject.obj
 0001:00012590       ??D?$_List_iterator@V?$_List_val@U?$_List_simple_types@V?$tuple@HH@std@@@std@@@std@@@std@@QBEAAV?$tuple@HH@1@XZ 00413590 f i CharObject.obj
 0001:000125b0       ??E?$_List_const_iterator@V?$_List_val@U?$_List_simple_types@V?$tuple@HH@std@@@std@@@std@@@std@@QAEAAV01@XZ 004135b0 f i CharObject.obj
 0001:000126d0       ??E?$_List_iterator@V?$_List_val@U?$_List_simple_types@V?$tuple@HH@std@@@std@@@std@@@std@@QAE?AV01@H@Z 004136d0 f i CharObject.obj
 0001:00012780       ??_ECharObject@@UAEPAXI@Z  00413780 f i CharObject.obj
 0001:00012780       ??_GCharObject@@UAEPAXI@Z  00413780 f i CharObject.obj
 0001:000127c0       ?GetTilesSolid@GameEngine@@QAEPAVSolidTileManager@@XZ 004137c0 f i CharObject.obj
 0001:000127e0       ?_Alloc_sentinel_and_proxy@?$list@V?$tuple@HH@std@@V?$allocator@V?$tuple@HH@std@@@2@@std@@AAEXXZ 004137e0 f i CharObject.obj
 0001:000128d0       ?_Allocate@?$_Alloc_construct_ptr@V?$allocator@U?$_List_node@V?$tuple@HH@std@@PAX@std@@@std@@@std@@QAEXXZ 004138d0 f i CharObject.obj
 0001:00012900       ?_Decref@?$_Ptr_base@VWeapon@@@std@@IAEXXZ 00413900 f i CharObject.obj
 0001:00012930       ?_Get_first@?$_Compressed_pair@V?$allocator@U?$_List_node@V?$tuple@HH@std@@PAX@std@@@std@@V?$_List_val@U?$_List_simple_types@V?$tuple@HH@std@@@std@@@2@$00@std@@QAEAAV?$allocator@U?$_List_node@V?$tuple@HH@std@@PAX@std@@@2@XZ 00413930 f i CharObject.obj
 0001:00012950       ?_Get_first@?$_Compressed_pair@V?$allocator@U?$_List_node@V?$tuple@HH@std@@PAX@std@@@std@@V?$_List_val@U?$_List_simple_types@V?$tuple@HH@std@@@std@@@2@$00@std@@QBEABV?$allocator@U?$_List_node@V?$tuple@HH@std@@PAX@std@@@2@XZ 00413950 f i CharObject.obj
 0001:00012970       ?_Getal@?$list@V?$tuple@HH@std@@V?$allocator@V?$tuple@HH@std@@@2@@std@@AAEAAV?$allocator@U?$_List_node@V?$tuple@HH@std@@PAX@std@@@2@XZ 00413970 f i CharObject.obj
 0001:00012990       ?_Getal@?$list@V?$tuple@HH@std@@V?$allocator@V?$tuple@HH@std@@@2@@std@@ABEABV?$allocator@U?$_List_node@V?$tuple@HH@std@@PAX@std@@@2@XZ 00413990 f i CharObject.obj
 0001:000129b0       ?_Incref@_Ref_count_base@std@@QAEXXZ 004139b0 f i CharObject.obj
 0001:000129d0       ?_Tidy@?$list@V?$tuple@HH@std@@V?$allocator@V?$tuple@HH@std@@@2@@std@@AAEXXZ 004139d0 f i CharObject.obj
 0001:00012a30       ?_Transfer_before@?$_List_node_emplace_op2@V?$allocator@U?$_List_node@V?$tuple@HH@std@@PAX@std@@@std@@@std@@QAEPAU?$_List_node@V?$tuple@HH@std@@PAX@2@QAU32@@Z 00413a30 f i CharObject.obj
 0001:00012ac0       ?allocate@?$allocator@U?$_List_node@V?$tuple@HH@std@@PAX@std@@@std@@QAEPAU?$_List_node@V?$tuple@HH@std@@PAX@2@I@Z 00413ac0 f i CharObject.obj
 0001:00012af0       ?begin@?$list@V?$tuple@HH@std@@V?$allocator@V?$tuple@HH@std@@@2@@std@@QAE?AV?$_List_iterator@V?$_List_val@U?$_List_simple_types@V?$tuple@HH@std@@@std@@@std@@@2@XZ 00413af0 f i CharObject.obj
 0001:00012b30       ?calculate@MovementPosition@@QAEXH@Z 00413b30 f i CharObject.obj
 0001:00012c20       ?deallocate@?$_Default_allocator_traits@V?$allocator@U?$_List_node@V?$tuple@HH@std@@PAX@std@@@std@@@std@@SAXAAV?$allocator@U?$_List_node@V?$tuple@HH@std@@PAX@std@@@2@QAU?$_List_node@V?$tuple@HH@std@@PAX@2@I@Z 00413c20 f i CharObject.obj
 0001:00012c40       ?deallocate@?$allocator@U?$_List_node@V?$tuple@HH@std@@PAX@std@@@std@@QAEXQAU?$_List_node@V?$tuple@HH@std@@PAX@2@I@Z 00413c40 f i CharObject.obj
 0001:00012c70       ?end@?$list@V?$tuple@HH@std@@V?$allocator@V?$tuple@HH@std@@@2@@std@@QAE?AV?$_List_iterator@V?$_List_val@U?$_List_simple_types@V?$tuple@HH@std@@@std@@@std@@@2@XZ 00413c70 f i CharObject.obj
 0001:00012cb0       ?eof@?$_Narrow_char_traits@DH@std@@SAHXZ 00413cb0 f i CharObject.obj
 0001:00012cc0       ?eq_int_type@?$_Narrow_char_traits@DH@std@@SA_NABH0@Z 00413cc0 f i CharObject.obj
 0001:00012cf0       ?getMapValue@TileManager@@QBEHHH@Z 00413cf0 f i CharObject.obj
 0001:00012d20       ?getTileHeight@TileManager@@QBEHXZ 00413d20 f i CharObject.obj
 0001:00012d40       ?getTileWidth@TileManager@@QBEHXZ 00413d40 f i CharObject.obj
 0001:00012d60       ?getX@MovementPosition@@QBEHXZ 00413d60 f i CharObject.obj
 0001:00012d80       ?getY@MovementPosition@@QBEHXZ 00413d80 f i CharObject.obj
 0001:00012da0       ?isValidTilePosition@TileManager@@QBE_NHH@Z 00413da0 f i CharObject.obj
 0001:00012e30       ?max_size@?$_Default_allocator_traits@V?$allocator@U?$_List_node@V?$tuple@HH@std@@PAX@std@@@std@@@std@@SAIABV?$allocator@U?$_List_node@V?$tuple@HH@std@@PAX@std@@@2@@Z 00413e30 f i CharObject.obj
 0001:00012e40       ?max_size@?$list@V?$tuple@HH@std@@V?$allocator@V?$tuple@HH@std@@@2@@std@@QBEIXZ 00413e40 f i CharObject.obj
 0001:00012e90       ?push_back@?$list@V?$tuple@HH@std@@V?$allocator@V?$tuple@HH@std@@@2@@std@@QAEX$$QAV?$tuple@HH@2@@Z 00413e90 f i CharObject.obj
 0001:00012ed0       ?setup@MovementPosition@@QAEXHHHHHH@Z 00413ed0 f i CharObject.obj
 0001:00012f40       ?size@?$list@V?$tuple@HH@std@@V?$allocator@V?$tuple@HH@std@@@2@@std@@QBEIXZ 00413f40 f i CharObject.obj
 0001:00012f60       ?virtSetupBackgroundBuffer@DraggingDemo@@UAEXXZ 00413f60 f   DraggingDemo.obj
 0001:000130a0       ?virtInitialiseObjects@DraggingDemo@@UAEHXZ 004140a0 f   DraggingDemo.obj
 0001:000132f0       ?virtKeyDown@DraggingDemo@@UAEXH@Z 004142f0 f   DraggingDemo.obj
 0001:00013410       ??$?0$$V@?$_Compressed_pair@V?$allocator@U?$_Tree_node@U?$pair@$$CBV?$basic_string@DU?$char_traits@D@std@@V?$allocator@D@2@@std@@V?$shared_ptr@VRawImageData@@@2@@std@@PAX@std@@@std@@V?$_Tree_val@U?$_Tree_simple_types@U?$pair@$$CBV?$basic_string@DU?$char_traits@D@std@@V?$allocator@D@2@@std@@V?$shared_ptr@VRawImageData@@@2@@std@@@std@@@2@$00@std@@QAE@U_Zero_then_variadic_args_t@1@@Z 00414410 f i DraggingDemo.obj
 0001:00013440       ??$?0$$V@?$_Compressed_pair@V?$allocator@U?$_Tree_node@U?$pair@$$CBV?$basic_string@DU?$char_traits@D@std@@V?$allocator@D@2@@std@@V?$weak_ptr@VRawImageData@@@2@@std@@PAX@std@@@std@@V?$_Tree_val@U?$_Tree_simple_types@U?$pair@$$CBV?$basic_string@DU?$char_traits@D@std@@V?$allocator@D@2@@std@@V?$weak_ptr@VRawImageData@@@2@@std@@@std@@@2@$00@std@@QAE@U_Zero_then_variadic_args_t@1@@Z 00414440 f i DraggingDemo.obj
 0001:00013470       ??$?0AAPAU?$_Tree_node@U?$pair@$$CBV?$basic_string@DU?$char_traits@D@std@@V?$allocator@D@2@@std@@V?$shared_ptr@VRawImageData@@@2@@std@@PAX@std@@_N$0A@@?$pair@PAU?$_Tree_node@U?$pair@$$CBV?$basic_string@DU?$char_traits@D@std@@V?$allocator@D@2@@std@@V?$shared_ptr@VRawImageData@@@2@@std@@PAX@std@@_N@std@@QAE@AAPAU?$_Tree_node@U?$pair@$$CBV?$basic_string@DU?$char_traits@D@std@@V?$allocator@D@2@@std@@V?$shared_ptr@VRawImageData@@@2@@std@@PAX@1@$$QA_N@Z 00414470 f i DraggingDemo.obj
 0001:000134c0       ??$?0AAPAU?$_Tree_node@U?$pair@$$CBV?$basic_string@DU?$char_traits@D@std@@V?$allocator@D@2@@std@@V?$weak_ptr@VRawImageData@@@2@@std@@PAX@std@@_N$0A@@?$pair@PAU?$_Tree_node@U?$pair@$$CBV?$basic_string@DU?$char_traits@D@std@@V?$allocator@D@2@@std@@V?$weak_ptr@VRawImageData@@@2@@std@@PAX@std@@_N@std@@QAE@AAPAU?$_Tree_node@U?$pair@$$CBV?$basic_string@DU?$char_traits@D@std@@V?$allocator@D@2@@std@@V?$weak_ptr@VRawImageData@@@2@@std@@PAX@1@$$QA_N@Z 004144c0 f i DraggingDemo.obj
 0001:00013510       ??$?0AAV?$basic_string@DU?$char_traits@D@std@@V?$allocator@D@2@@std@@AAV?$shared_ptr@VRawImageData@@@1@$0A@@?$pair@V?$basic_string@DU?$char_traits@D@std@@V?$allocator@D@2@@std@@V?$shared_ptr@VRawImageData@@@2@@std@@QAE@AAV?$basic_string@DU?$char_traits@D@std@@V?$allocator@D@2@@1@AAV?$shared_ptr@VRawImageData@@@1@@Z 00414510 f i DraggingDemo.obj
 0001:00013560       ??$?0AAV?$basic_string@DU?$char_traits@D@std@@V?$allocator@D@2@@std@@AAV?$weak_ptr@VRawImageData@@@1@$0A@@?$pair@V?$basic_string@DU?$char_traits@D@std@@V?$allocator@D@2@@std@@V?$weak_ptr@VRawImageData@@@2@@std@@QAE@AAV?$basic_string@DU?$char_traits@D@std@@V?$allocator@D@2@@1@AAV?$weak_ptr@VRawImageData@@@1@@Z 00414560 f i DraggingDemo.obj
 0001:000135b0       ??$?0ABU?$less@V?$basic_string@DU?$char_traits@D@std@@V?$allocator@D@2@@std@@@std@@U_Zero_then_variadic_args_t@1@@?$_Compressed_pair@U?$less@V?$basic_string@DU?$char_traits@D@std@@V?$allocator@D@2@@std@@@std@@V?$_Compressed_pair@V?$allocator@U?$_Tree_node@U?$pair@$$CBV?$basic_string@DU?$char_traits@D@std@@V?$allocator@D@2@@std@@V?$shared_ptr@VRawImageData@@@2@@std@@PAX@std@@@std@@V?$_Tree_val@U?$_Tree_simple_types@U?$pair@$$CBV?$basic_string@DU?$char_traits@D@std@@V?$allocator@D@2@@std@@V?$shared_ptr@VRawImageData@@@2@@std@@@std@@@2@$00@2@$00@std@@QAE@U_One_then_variadic_args_t@1@ABU?$less@V?$basic_string@DU?$char_traits@D@std@@V?$allocator@D@2@@std@@@1@$$QAU_Zero_then_variadic_args_t@1@@Z 004145b0 f i DraggingDemo.obj
 0001:00013600       ??$?0ABU?$less@V?$basic_string@DU?$char_traits@D@std@@V?$allocator@D@2@@std@@@std@@U_Zero_then_variadic_args_t@1@@?$_Compressed_pair@U?$less@V?$basic_string@DU?$char_traits@D@std@@V?$allocator@D@2@@std@@@std@@V?$_Compressed_pair@V?$allocator@U?$_Tree_node@U?$pair@$$CBV?$basic_string@DU?$char_traits@D@std@@V?$allocator@D@2@@std@@V?$weak_ptr@VRawImageData@@@2@@std@@PAX@std@@@std@@V?$_Tree_val@U?$_Tree_simple_types@U?$pair@$$CBV?$basic_string@DU?$char_traits@D@std@@V?$allocator@D@2@@std@@V?$weak_ptr@VRawImageData@@@2@@std@@@std@@@2@$00@2@$00@std@@QAE@U_One_then_variadic_args_t@1@ABU?$less@V?$basic_string@DU?$char_traits@D@std@@V?$allocator@D@2@@std@@@1@$$QAU_Zero_then_variadic_args_t@1@@Z 00414600 f i DraggingDemo.obj
 0001:00013650       ??$?0PAU?$_Tree_node@U?$pair@$$CBV?$basic_string@DU?$char_traits@D@std@@V?$allocator@D@2@@std@@V?$shared_ptr@VRawImageData@@@2@@std@@PAX@std@@_N$0A@@?$pair@PAU?$_Tree_node@U?$pair@$$CBV?$basic_string@DU?$char_traits@D@std@@V?$allocator@D@2@@std@@V?$shared_ptr@VRawImageData@@@2@@std@@PAX@std@@_N@std@@QAE@$$QAPAU?$_Tree_node@U?$pair@$$CBV?$basic_string@DU?$char_traits@D@std@@V?$allocator@D@2@@std@@V?$shared_ptr@VRawImageData@@@2@@std@@PAX@1@$$QA_N@Z 00414650 f i DraggingDemo.obj
 0001:000136a0       ??$?0PAU?$_Tree_node@U?$pair@$$CBV?$basic_string@DU?$char_traits@D@std@@V?$allocator@D@2@@std@@V?$weak_ptr@VRawImageData@@@2@@std@@PAX@std@@_N$0A@@?$pair@PAU?$_Tree_node@U?$pair@$$CBV?$basic_string@DU?$char_traits@D@std@@V?$allocator@D@2@@std@@V?$weak_ptr@VRawImageData@@@2@@std@@PAX@std@@_N@std@@QAE@$$QAPAU?$_Tree_node@U?$pair@$$CBV?$basic_string@DU?$char_traits@D@std@@V?$allocator@D@2@@std@@V?$weak_ptr@VRawImageData@@@2@@std@@PAX@1@$$QA_N@Z 004146a0 f i DraggingDemo.obj
 0001:000136f0       ??$?0U?$_Tree_node@U?$pair@$$CBV?$basic_string@DU?$char_traits@D@std@@V?$allocator@D@2@@std@@V?$shared_ptr@VRawImageData@@@2@@std@@PAX@std@@@?$allocator@U_Container_proxy@std@@@std@@QAE@ABV?$allocator@U?$_Tree_node@U?$pair@$$CBV?$basic_string@DU?$char_traits@D@std@@V?$allocator@D@2@@std@@V?$shared_ptr@VRawImageData@@@2@@std@@PAX@std@@@1@@Z 004146f0 f i DraggingDemo.obj
 0001:00013710       ??$?0U?$_Tree_node@U?$pair@$$CBV?$basic_string@DU?$char_traits@D@std@@V?$allocator@D@2@@std@@V?$weak_ptr@VRawImageData@@@2@@std@@PAX@std@@@?$allocator@U_Container_proxy@std@@@std@@QAE@ABV?$allocator@U?$_Tree_node@U?$pair@$$CBV?$basic_string@DU?$char_traits@D@std@@V?$allocator@D@2@@std@@V?$weak_ptr@VRawImageData@@@2@@std@@PAX@std@@@1@@Z 00414710 f i DraggingDemo.obj
 0001:00013730       ??$?0U?$pair@V?$basic_string@DU?$char_traits@D@std@@V?$allocator@D@2@@std@@V?$shared_ptr@VRawImageData@@@2@@std@@@?$_Tree_temp_node@V?$allocator@U?$_Tree_node@U?$pair@$$CBV?$basic_string@DU?$char_traits@D@std@@V?$allocator@D@2@@std@@V?$shared_ptr@VRawImageData@@@2@@std@@PAX@std@@@std@@@std@@QAE@AAV?$allocator@U?$_Tree_node@U?$pair@$$CBV?$basic_string@DU?$char_traits@D@std@@V?$allocator@D@2@@std@@V?$shared_ptr@VRawImageData@@@2@@std@@PAX@std@@@1@PAU?$_Tree_node@U?$pair@$$CBV?$basic_string@DU?$char_traits@D@std@@V?$allocator@D@2@@std@@V?$shared_ptr@VRawImageData@@@2@@std@@PAX@1@$$QAU?$pair@V?$basic_string@DU?$char_traits@D@std@@V?$allocator@D@2@@std@@V?$shared_ptr@VRawImageData@@@2@@1@@Z 00414730 f i DraggingDemo.obj
 0001:00013840       ??$?0U?$pair@V?$basic_string@DU?$char_traits@D@std@@V?$allocator@D@2@@std@@V?$weak_ptr@VRawImageData@@@2@@std@@@?$_Tree_temp_node@V?$allocator@U?$_Tree_node@U?$pair@$$CBV?$basic_string@DU?$char_traits@D@std@@V?$allocator@D@2@@std@@V?$weak_ptr@VRawImageData@@@2@@std@@PAX@std@@@std@@@std@@QAE@AAV?$allocator@U?$_Tree_node@U?$pair@$$CBV?$basic_string@DU?$char_traits@D@std@@V?$allocator@D@2@@std@@V?$weak_ptr@VRawImageData@@@2@@std@@PAX@std@@@1@PAU?$_Tree_node@U?$pair@$$CBV?$basic_string@DU?$char_traits@D@std@@V?$allocator@D@2@@std@@V?$weak_ptr@VRawImageData@@@2@@std@@PAX@1@$$QAU?$pair@V?$basic_string@DU?$char_traits@D@std@@V?$allocator@D@2@@std@@V?$weak_ptr@VRawImageData@@@2@@1@@Z 00414840 f i DraggingDemo.obj
 0001:00013950       ??$?0V?$_Tree_iterator@V?$_Tree_val@U?$_Tree_simple_types@U?$pair@$$CBV?$basic_string@DU?$char_traits@D@std@@V?$allocator@D@2@@std@@V?$shared_ptr@VRawImageData@@@2@@std@@@std@@@std@@@std@@AB_N$0A@@?$pair@V?$_Tree_iterator@V?$_Tree_val@U?$_Tree_simple_types@U?$pair@$$CBV?$basic_string@DU?$char_traits@D@std@@V?$allocator@D@2@@std@@V?$shared_ptr@VRawImageData@@@2@@std@@@std@@@std@@@std@@_N@std@@QAE@$$QAV?$_Tree_iterator@V?$_Tree_val@U?$_Tree_simple_types@U?$pair@$$CBV?$basic_string@DU?$char_traits@D@std@@V?$allocator@D@2@@std@@V?$shared_ptr@VRawImageData@@@2@@std@@@std@@@std@@@1@AB_N@Z 00414950 f i DraggingDemo.obj
 0001:000139a0       ??$?0V?$_Tree_iterator@V?$_Tree_val@U?$_Tree_simple_types@U?$pair@$$CBV?$basic_string@DU?$char_traits@D@std@@V?$allocator@D@2@@std@@V?$weak_ptr@VRawImageData@@@2@@std@@@std@@@std@@@std@@AB_N$0A@@?$pair@V?$_Tree_iterator@V?$_Tree_val@U?$_Tree_simple_types@U?$pair@$$CBV?$basic_string@DU?$char_traits@D@std@@V?$allocator@D@2@@std@@V?$weak_ptr@VRawImageData@@@2@@std@@@std@@@std@@@std@@_N@std@@QAE@$$QAV?$_Tree_iterator@V?$_Tree_val@U?$_Tree_simple_types@U?$pair@$$CBV?$basic_string@DU?$char_traits@D@std@@V?$allocator@D@2@@std@@V?$weak_ptr@VRawImageData@@@2@@std@@@std@@@std@@@1@AB_N@Z 004149a0 f i DraggingDemo.obj
 0001:000139f0       ??$?0V?$allocator@D@std@@$$V@?$_Compressed_pair@V?$allocator@D@std@@V?$_String_val@U?$_Simple_types@D@std@@@2@$00@std@@QAE@U_One_then_variadic_args_t@1@$$QAV?$allocator@D@1@@Z 004149f0 f i DraggingDemo.obj
 0001:00013a20       ??$?0V?$basic_string@DU?$char_traits@D@std@@V?$allocator@D@2@@std@@V?$shared_ptr@VRawImageData@@@1@$0A@@?$pair@$$CBV?$basic_string@DU?$char_traits@D@std@@V?$allocator@D@2@@std@@V?$shared_ptr@VRawImageData@@@2@@std@@QAE@$$QAU?$pair@V?$basic_string@DU?$char_traits@D@std@@V?$allocator@D@2@@std@@V?$shared_ptr@VRawImageData@@@2@@1@@Z 00414a20 f i DraggingDemo.obj
 0001:00013a70       ??$?0V?$basic_string@DU?$char_traits@D@std@@V?$allocator@D@2@@std@@V?$weak_ptr@VRawImageData@@@1@$0A@@?$pair@$$CBV?$basic_string@DU?$char_traits@D@std@@V?$allocator@D@2@@std@@V?$weak_ptr@VRawImageData@@@2@@std@@QAE@$$QAU?$pair@V?$basic_string@DU?$char_traits@D@std@@V?$allocator@D@2@@std@@V?$weak_ptr@VRawImageData@@@2@@1@@Z 00414a70 f i DraggingDemo.obj
 0001:00013ac0       ??$?0VRawImageData@@$0A@@?$shared_ptr@VRawImageData@@@std@@QAE@PAVRawImageData@@@Z 00414ac0 f i DraggingDemo.obj
 0001:00013bb0       ??$?0VRawImageData@@$0A@@?$weak_ptr@VRawImageData@@@std@@QAE@ABV?$shared_ptr@VRawImageData@@@1@@Z 00414bb0 f i DraggingDemo.obj
 0001:00013be0       ??$?6DU?$char_traits@D@std@@V?$allocator@D@1@@std@@YAAAV?$basic_ostream@DU?$char_traits@D@std@@@0@AAV10@ABV?$basic_string@DU?$char_traits@D@std@@V?$allocator@D@2@@0@@Z 00414be0 f i DraggingDemo.obj
 0001:00013c10       ??$?9VRawImageData@@@std@@YA_NABV?$shared_ptr@VRawImageData@@@0@$$T@Z 00414c10 f i DraggingDemo.obj
 0001:00013c40       ??$_Atomic_address_as@$$CBJ$$CCJ@std@@YAPDJACJ@Z 00414c40 f i DraggingDemo.obj
 0001:00013c50       ??$_Buyheadnode@V?$allocator@U?$_Tree_node@U?$pair@$$CBV?$basic_string@DU?$char_traits@D@std@@V?$allocator@D@2@@std@@V?$shared_ptr@VRawImageData@@@2@@std@@PAX@std@@@std@@@?$_Tree_node@U?$pair@$$CBV?$basic_string@DU?$char_traits@D@std@@V?$allocator@D@2@@std@@V?$shared_ptr@VRawImageData@@@2@@std@@PAX@std@@SAPAU01@AAV?$allocator@U?$_Tree_node@U?$pair@$$CBV?$basic_string@DU?$char_traits@D@std@@V?$allocator@D@2@@std@@V?$shared_ptr@VRawImageData@@@2@@std@@PAX@std@@@1@@Z 00414c50 f i DraggingDemo.obj
 0001:00013cd0       ??$_Buyheadnode@V?$allocator@U?$_Tree_node@U?$pair@$$CBV?$basic_string@DU?$char_traits@D@std@@V?$allocator@D@2@@std@@V?$weak_ptr@VRawImageData@@@2@@std@@PAX@std@@@std@@@?$_Tree_node@U?$pair@$$CBV?$basic_string@DU?$char_traits@D@std@@V?$allocator@D@2@@std@@V?$weak_ptr@VRawImageData@@@2@@std@@PAX@std@@SAPAU01@AAV?$allocator@U?$_Tree_node@U?$pair@$$CBV?$basic_string@DU?$char_traits@D@std@@V?$allocator@D@2@@std@@V?$weak_ptr@VRawImageData@@@2@@std@@PAX@std@@@1@@Z 00414cd0 f i DraggingDemo.obj
 0001:00013d50       ??$_Construct_from_weak@VRawImageData@@@?$_Ptr_base@VRawImageData@@@std@@IAE_NABV?$weak_ptr@VRawImageData@@@1@@Z 00414d50 f i DraggingDemo.obj
 0001:00013db0       ??$_Construct_in_place@PAU?$_Tree_node@U?$pair@$$CBV?$basic_string@DU?$char_traits@D@std@@V?$allocator@D@2@@std@@V?$shared_ptr@VRawImageData@@@2@@std@@PAX@std@@AAPAU12@@std@@YAXAAPAU?$_Tree_node@U?$pair@$$CBV?$basic_string@DU?$char_traits@D@std@@V?$allocator@D@2@@std@@V?$shared_ptr@VRawImageData@@@2@@std@@PAX@0@0@Z 00414db0 f i DraggingDemo.obj
 0001:00013e00       ??$_Construct_in_place@PAU?$_Tree_node@U?$pair@$$CBV?$basic_string@DU?$char_traits@D@std@@V?$allocator@D@2@@std@@V?$shared_ptr@VRawImageData@@@2@@std@@PAX@std@@ABQAU12@@std@@YAXAAPAU?$_Tree_node@U?$pair@$$CBV?$basic_string@DU?$char_traits@D@std@@V?$allocator@D@2@@std@@V?$shared_ptr@VRawImageData@@@2@@std@@PAX@0@ABQAU10@@Z 00414e00 f i DraggingDemo.obj
 0001:00013e50       ??$_Construct_in_place@PAU?$_Tree_node@U?$pair@$$CBV?$basic_string@DU?$char_traits@D@std@@V?$allocator@D@2@@std@@V?$weak_ptr@VRawImageData@@@2@@std@@PAX@std@@AAPAU12@@std@@YAXAAPAU?$_Tree_node@U?$pair@$$CBV?$basic_string@DU?$char_traits@D@std@@V?$allocator@D@2@@std@@V?$weak_ptr@VRawImageData@@@2@@std@@PAX@0@0@Z 00414e50 f i DraggingDemo.obj
 0001:00013ea0       ??$_Construct_in_place@PAU?$_Tree_node@U?$pair@$$CBV?$basic_string@DU?$char_traits@D@std@@V?$allocator@D@2@@std@@V?$weak_ptr@VRawImageData@@@2@@std@@PAX@std@@ABQAU12@@std@@YAXAAPAU?$_Tree_node@U?$pair@$$CBV?$basic_string@DU?$char_traits@D@std@@V?$allocator@D@2@@std@@V?$weak_ptr@VRawImageData@@@2@@std@@PAX@0@ABQAU10@@Z 00414ea0 f i DraggingDemo.obj
 0001:00013ef0       ??$_Copy_construct_from@VRawImageData@@@?$_Ptr_base@VRawImageData@@@std@@IAEXABV?$shared_ptr@VRawImageData@@@1@@Z 00414ef0 f i DraggingDemo.obj
 0001:00013f40       ??$_Copy_memmove@PAPAVDisplayableObject@@PAPAV1@@std@@YAPAPAVDisplayableObject@@PAPAV1@00@Z 00414f40 f i DraggingDemo.obj
 0001:00013f90       ??$_Destroy_in_place@PAU?$_Tree_node@U?$pair@$$CBV?$basic_string@DU?$char_traits@D@std@@V?$allocator@D@2@@std@@V?$shared_ptr@VRawImageData@@@2@@std@@PAX@std@@@std@@YAXAAPAU?$_Tree_node@U?$pair@$$CBV?$basic_string@DU?$char_traits@D@std@@V?$allocator@D@2@@std@@V?$shared_ptr@VRawImageData@@@2@@std@@PAX@0@@Z 00414f90 f i DraggingDemo.obj
 0001:00013fa0       ??$_Destroy_in_place@PAU?$_Tree_node@U?$pair@$$CBV?$basic_string@DU?$char_traits@D@std@@V?$allocator@D@2@@std@@V?$weak_ptr@VRawImageData@@@2@@std@@PAX@std@@@std@@YAXAAPAU?$_Tree_node@U?$pair@$$CBV?$basic_string@DU?$char_traits@D@std@@V?$allocator@D@2@@std@@V?$weak_ptr@VRawImageData@@@2@@std@@PAX@0@@Z 00414fa0 f i DraggingDemo.obj
 0001:00013fb0       ??$_Destroy_range@V?$allocator@PAVDisplayableObject@@@std@@@std@@YAXPAPAVDisplayableObject@@QAPAV1@AAV?$allocator@PAVDisplayableObject@@@0@@Z 00414fb0 f i DraggingDemo.obj
 0001:00013fc0       ??$_Emplace@U?$pair@V?$basic_string@DU?$char_traits@D@std@@V?$allocator@D@2@@std@@V?$shared_ptr@VRawImageData@@@2@@std@@@?$_Tree@V?$_Tmap_traits@V?$basic_string@DU?$char_traits@D@std@@V?$allocator@D@2@@std@@V?$shared_ptr@VRawImageData@@@2@U?$less@V?$basic_string@DU?$char_traits@D@std@@V?$allocator@D@2@@std@@@2@V?$allocator@U?$pair@$$CBV?$basic_string@DU?$char_traits@D@std@@V?$allocator@D@2@@std@@V?$shared_ptr@VRawImageData@@@2@@std@@@2@$0A@@std@@@std@@IAE?AU?$pair@PAU?$_Tree_node@U?$pair@$$CBV?$basic_string@DU?$char_traits@D@std@@V?$allocator@D@2@@std@@V?$shared_ptr@VRawImageData@@@2@@std@@PAX@std@@_N@1@$$QAU?$pair@V?$basic_string@DU?$char_traits@D@std@@V?$allocator@D@2@@std@@V?$shared_ptr@VRawImageData@@@2@@1@@Z 00414fc0 f i DraggingDemo.obj
 0001:000140f0       ??$_Emplace@U?$pair@V?$basic_string@DU?$char_traits@D@std@@V?$allocator@D@2@@std@@V?$weak_ptr@VRawImageData@@@2@@std@@@?$_Tree@V?$_Tmap_traits@V?$basic_string@DU?$char_traits@D@std@@V?$allocator@D@2@@std@@V?$weak_ptr@VRawImageData@@@2@U?$less@V?$basic_string@DU?$char_traits@D@std@@V?$allocator@D@2@@std@@@2@V?$allocator@U?$pair@$$CBV?$basic_string@DU?$char_traits@D@std@@V?$allocator@D@2@@std@@V?$weak_ptr@VRawImageData@@@2@@std@@@2@$0A@@std@@@std@@IAE?AU?$pair@PAU?$_Tree_node@U?$pair@$$CBV?$basic_string@DU?$char_traits@D@std@@V?$allocator@D@2@@std@@V?$weak_ptr@VRawImageData@@@2@@std@@PAX@std@@_N@1@$$QAU?$pair@V?$basic_string@DU?$char_traits@D@std@@V?$allocator@D@2@@std@@V?$weak_ptr@VRawImageData@@@2@@1@@Z 004150f0 f i DraggingDemo.obj
 0001:00014220       ??$_Erase_head@V?$allocator@U?$_Tree_node@U?$pair@$$CBV?$basic_string@DU?$char_traits@D@std@@V?$allocator@D@2@@std@@V?$shared_ptr@VRawImageData@@@2@@std@@PAX@std@@@std@@@?$_Tree_val@U?$_Tree_simple_types@U?$pair@$$CBV?$basic_string@DU?$char_traits@D@std@@V?$allocator@D@2@@std@@V?$shared_ptr@VRawImageData@@@2@@std@@@std@@@std@@QAEXAAV?$allocator@U?$_Tree_node@U?$pair@$$CBV?$basic_string@DU?$char_traits@D@std@@V?$allocator@D@2@@std@@V?$shared_ptr@VRawImageData@@@2@@std@@PAX@std@@@1@@Z 00415220 f i DraggingDemo.obj
 0001:00014270       ??$_Erase_head@V?$allocator@U?$_Tree_node@U?$pair@$$CBV?$basic_string@DU?$char_traits@D@std@@V?$allocator@D@2@@std@@V?$weak_ptr@VRawImageData@@@2@@std@@PAX@std@@@std@@@?$_Tree_val@U?$_Tree_simple_types@U?$pair@$$CBV?$basic_string@DU?$char_traits@D@std@@V?$allocator@D@2@@std@@V?$weak_ptr@VRawImageData@@@2@@std@@@std@@@std@@QAEXAAV?$allocator@U?$_Tree_node@U?$pair@$$CBV?$basic_string@DU?$char_traits@D@std@@V?$allocator@D@2@@std@@V?$weak_ptr@VRawImageData@@@2@@std@@PAX@std@@@1@@Z 00415270 f i DraggingDemo.obj
 0001:000142c0       ??$_Erase_tree@V?$allocator@U?$_Tree_node@U?$pair@$$CBV?$basic_string@DU?$char_traits@D@std@@V?$allocator@D@2@@std@@V?$shared_ptr@VRawImageData@@@2@@std@@PAX@std@@@std@@@?$_Tree_val@U?$_Tree_simple_types@U?$pair@$$CBV?$basic_string@DU?$char_traits@D@std@@V?$allocator@D@2@@std@@V?$shared_ptr@VRawImageData@@@2@@std@@@std@@@std@@QAEXAAV?$allocator@U?$_Tree_node@U?$pair@$$CBV?$basic_string@DU?$char_traits@D@std@@V?$allocator@D@2@@std@@V?$shared_ptr@VRawImageData@@@2@@std@@PAX@std@@@1@PAU?$_Tree_node@U?$pair@$$CBV?$basic_string@DU?$char_traits@D@std@@V?$allocator@D@2@@std@@V?$shared_ptr@VRawImageData@@@2@@std@@PAX@1@@Z 004152c0 f i DraggingDemo.obj
 0001:00014360       ??$_Erase_tree@V?$allocator@U?$_Tree_node@U?$pair@$$CBV?$basic_string@DU?$char_traits@D@std@@V?$allocator@D@2@@std@@V?$weak_ptr@VRawImageData@@@2@@std@@PAX@std@@@std@@@?$_Tree_val@U?$_Tree_simple_types@U?$pair@$$CBV?$basic_string@DU?$char_traits@D@std@@V?$allocator@D@2@@std@@V?$weak_ptr@VRawImageData@@@2@@std@@@std@@@std@@QAEXAAV?$allocator@U?$_Tree_node@U?$pair@$$CBV?$basic_string@DU?$char_traits@D@std@@V?$allocator@D@2@@std@@V?$weak_ptr@VRawImageData@@@2@@std@@PAX@std@@@1@PAU?$_Tree_node@U?$pair@$$CBV?$basic_string@DU?$char_traits@D@std@@V?$allocator@D@2@@std@@V?$weak_ptr@VRawImageData@@@2@@std@@PAX@1@@Z 00415360 f i DraggingDemo.obj
 0001:00014400       ??$_Find@V?$basic_string@DU?$char_traits@D@std@@V?$allocator@D@2@@std@@@?$_Tree@V?$_Tmap_traits@V?$basic_string@DU?$char_traits@D@std@@V?$allocator@D@2@@std@@V?$weak_ptr@VRawImageData@@@2@U?$less@V?$basic_string@DU?$char_traits@D@std@@V?$allocator@D@2@@std@@@2@V?$allocator@U?$pair@$$CBV?$basic_string@DU?$char_traits@D@std@@V?$allocator@D@2@@std@@V?$weak_ptr@VRawImageData@@@2@@std@@@2@$0A@@std@@@std@@ABEPAU?$_Tree_node@U?$pair@$$CBV?$basic_string@DU?$char_traits@D@std@@V?$allocator@D@2@@std@@V?$weak_ptr@VRawImageData@@@2@@std@@PAX@1@ABV?$basic_string@DU?$char_traits@D@std@@V?$allocator@D@2@@1@@Z 00415400 f i DraggingDemo.obj
 0001:00014460       ??$_Find_lower_bound@V?$basic_string@DU?$char_traits@D@std@@V?$allocator@D@2@@std@@@?$_Tree@V?$_Tmap_traits@V?$basic_string@DU?$char_traits@D@std@@V?$allocator@D@2@@std@@V?$shared_ptr@VRawImageData@@@2@U?$less@V?$basic_string@DU?$char_traits@D@std@@V?$allocator@D@2@@std@@@2@V?$allocator@U?$pair@$$CBV?$basic_string@DU?$char_traits@D@std@@V?$allocator@D@2@@std@@V?$shared_ptr@VRawImageData@@@2@@std@@@2@$0A@@std@@@std@@IBE?AU?$_Tree_find_result@PAU?$_Tree_node@U?$pair@$$CBV?$basic_string@DU?$char_traits@D@std@@V?$allocator@D@2@@std@@V?$shared_ptr@VRawImageData@@@2@@std@@PAX@std@@@1@ABV?$basic_string@DU?$char_traits@D@std@@V?$allocator@D@2@@1@@Z 00415460 f i DraggingDemo.obj
 0001:00014550       ??$_Find_lower_bound@V?$basic_string@DU?$char_traits@D@std@@V?$allocator@D@2@@std@@@?$_Tree@V?$_Tmap_traits@V?$basic_string@DU?$char_traits@D@std@@V?$allocator@D@2@@std@@V?$weak_ptr@VRawImageData@@@2@U?$less@V?$basic_string@DU?$char_traits@D@std@@V?$allocator@D@2@@std@@@2@V?$allocator@U?$pair@$$CBV?$basic_string@DU?$char_traits@D@std@@V?$allocator@D@2@@std@@V?$weak_ptr@VRawImageData@@@2@@std@@@2@$0A@@std@@@std@@IBE?AU?$_Tree_find_result@PAU?$_Tree_node@U?$pair@$$CBV?$basic_string@DU?$char_traits@D@std@@V?$allocator@D@2@@std@@V?$weak_ptr@VRawImageData@@@2@@std@@PAX@std@@@1@ABV?$basic_string@DU?$char_traits@D@std@@V?$allocator@D@2@@1@@Z 00415550 f i DraggingDemo.obj
 0001:00014640       ??$_Freenode0@V?$allocator@U?$_Tree_node@U?$pair@$$CBV?$basic_string@DU?$char_traits@D@std@@V?$allocator@D@2@@std@@V?$shared_ptr@VRawImageData@@@2@@std@@PAX@std@@@std@@@?$_Tree_node@U?$pair@$$CBV?$basic_string@DU?$char_traits@D@std@@V?$allocator@D@2@@std@@V?$shared_ptr@VRawImageData@@@2@@std@@PAX@std@@SAXAAV?$allocator@U?$_Tree_node@U?$pair@$$CBV?$basic_string@DU?$char_traits@D@std@@V?$allocator@D@2@@std@@V?$shared_ptr@VRawImageData@@@2@@std@@PAX@std@@@1@PAU01@@Z 00415640 f i DraggingDemo.obj
 0001:000146d0       ??$_Freenode0@V?$allocator@U?$_Tree_node@U?$pair@$$CBV?$basic_string@DU?$char_traits@D@std@@V?$allocator@D@2@@std@@V?$weak_ptr@VRawImageData@@@2@@std@@PAX@std@@@std@@@?$_Tree_node@U?$pair@$$CBV?$basic_string@DU?$char_traits@D@std@@V?$allocator@D@2@@std@@V?$weak_ptr@VRawImageData@@@2@@std@@PAX@std@@SAXAAV?$allocator@U?$_Tree_node@U?$pair@$$CBV?$basic_string@DU?$char_traits@D@std@@V?$allocator@D@2@@std@@V?$weak_ptr@VRawImageData@@@2@@std@@PAX@std@@@1@PAU01@@Z 004156d0 f i DraggingDemo.obj
 0001:00014760       ??$_Freenode@V?$allocator@U?$_Tree_node@U?$pair@$$CBV?$basic_string@DU?$char_traits@D@std@@V?$allocator@D@2@@std@@V?$shared_ptr@VRawImageData@@@2@@std@@PAX@std@@@std@@@?$_Tree_node@U?$pair@$$CBV?$basic_string@DU?$char_traits@D@std@@V?$allocator@D@2@@std@@V?$shared_ptr@VRawImageData@@@2@@std@@PAX@std@@SAXAAV?$allocator@U?$_Tree_node@U?$pair@$$CBV?$basic_string@DU?$char_traits@D@std@@V?$allocator@D@2@@std@@V?$shared_ptr@VRawImageData@@@2@@std@@PAX@std@@@1@PAU01@@Z 00415760 f i DraggingDemo.obj
 0001:000147e0       ??$_Freenode@V?$allocator@U?$_Tree_node@U?$pair@$$CBV?$basic_string@DU?$char_traits@D@std@@V?$allocator@D@2@@std@@V?$weak_ptr@VRawImageData@@@2@@std@@PAX@std@@@std@@@?$_Tree_node@U?$pair@$$CBV?$basic_string@DU?$char_traits@D@std@@V?$allocator@D@2@@std@@V?$weak_ptr@VRawImageData@@@2@@std@@PAX@std@@SAXAAV?$allocator@U?$_Tree_node@U?$pair@$$CBV?$basic_string@DU?$char_traits@D@std@@V?$allocator@D@2@@std@@V?$weak_ptr@VRawImageData@@@2@@std@@PAX@std@@@1@PAU01@@Z 004157e0 f i DraggingDemo.obj
 0001:00014860       ??$_Get_size_of_n@$03@std@@YAII@Z 00415860 f i DraggingDemo.obj
 0001:000148a0       ??$_Get_size_of_n@$0DE@@std@@YAII@Z 004158a0 f i DraggingDemo.obj
 0001:000148d0       ??$_Get_unwrapped@PAVDisplayableObject@@@std@@YAPAPAVDisplayableObject@@QAPAV1@@Z 004158d0 f i DraggingDemo.obj
 0001:000148e0       ??$_Insert_string@DU?$char_traits@D@std@@I@std@@YAAAV?$basic_ostream@DU?$char_traits@D@std@@@0@AAV10@QBDI@Z 004158e0 f i DraggingDemo.obj
 0001:00014c60       ??$_Kfn@$$CBV?$basic_string@DU?$char_traits@D@std@@V?$allocator@D@2@@std@@V?$shared_ptr@VRawImageData@@@2@@?$_Tmap_traits@V?$basic_string@DU?$char_traits@D@std@@V?$allocator@D@2@@std@@V?$shared_ptr@VRawImageData@@@2@U?$less@V?$basic_string@DU?$char_traits@D@std@@V?$allocator@D@2@@std@@@2@V?$allocator@U?$pair@$$CBV?$basic_string@DU?$char_traits@D@std@@V?$allocator@D@2@@std@@V?$shared_ptr@VRawImageData@@@2@@std@@@2@$0A@@std@@SAABV?$basic_string@DU?$char_traits@D@std@@V?$allocator@D@2@@1@ABU?$pair@$$CBV?$basic_string@DU?$char_traits@D@std@@V?$allocator@D@2@@std@@V?$shared_ptr@VRawImageData@@@2@@1@@Z 00415c60 f i DraggingDemo.obj
 0001:00014c70       ??$_Kfn@$$CBV?$basic_string@DU?$char_traits@D@std@@V?$allocator@D@2@@std@@V?$weak_ptr@VRawImageData@@@2@@?$_Tmap_traits@V?$basic_string@DU?$char_traits@D@std@@V?$allocator@D@2@@std@@V?$weak_ptr@VRawImageData@@@2@U?$less@V?$basic_string@DU?$char_traits@D@std@@V?$allocator@D@2@@std@@@2@V?$allocator@U?$pair@$$CBV?$basic_string@DU?$char_traits@D@std@@V?$allocator@D@2@@std@@V?$weak_ptr@VRawImageData@@@2@@std@@@2@$0A@@std@@SAABV?$basic_string@DU?$char_traits@D@std@@V?$allocator@D@2@@1@ABU?$pair@$$CBV?$basic_string@DU?$char_traits@D@std@@V?$allocator@D@2@@std@@V?$weak_ptr@VRawImageData@@@2@@1@@Z 00415c70 f i DraggingDemo.obj
 0001:00014c80       ??$_Lower_bound_duplicate@V?$basic_string@DU?$char_traits@D@std@@V?$allocator@D@2@@std@@@?$_Tree@V?$_Tmap_traits@V?$basic_string@DU?$char_traits@D@std@@V?$allocator@D@2@@std@@V?$shared_ptr@VRawImageData@@@2@U?$less@V?$basic_string@DU?$char_traits@D@std@@V?$allocator@D@2@@std@@@2@V?$allocator@U?$pair@$$CBV?$basic_string@DU?$char_traits@D@std@@V?$allocator@D@2@@std@@V?$shared_ptr@VRawImageData@@@2@@std@@@2@$0A@@std@@@std@@IBE_NQAU?$_Tree_node@U?$pair@$$CBV?$basic_string@DU?$char_traits@D@std@@V?$allocator@D@2@@std@@V?$shared_ptr@VRawImageData@@@2@@std@@PAX@1@ABV?$basic_string@DU?$char_traits@D@std@@V?$allocator@D@2@@1@@Z 00415c80 f i DraggingDemo.obj
 0001:00014cf0       ??$_Lower_bound_duplicate@V?$basic_string@DU?$char_traits@D@std@@V?$allocator@D@2@@std@@@?$_Tree@V?$_Tmap_traits@V?$basic_string@DU?$char_traits@D@std@@V?$allocator@D@2@@std@@V?$weak_ptr@VRawImageData@@@2@U?$less@V?$basic_string@DU?$char_traits@D@std@@V?$allocator@D@2@@std@@@2@V?$allocator@U?$pair@$$CBV?$basic_string@DU?$char_traits@D@std@@V?$allocator@D@2@@std@@V?$weak_ptr@VRawImageData@@@2@@std@@@2@$0A@@std@@@std@@IBE_NQAU?$_Tree_node@U?$pair@$$CBV?$basic_string@DU?$char_traits@D@std@@V?$allocator@D@2@@std@@V?$weak_ptr@VRawImageData@@@2@@std@@PAX@1@ABV?$basic_string@DU?$char_traits@D@std@@V?$allocator@D@2@@1@@Z 00415cf0 f i DraggingDemo.obj
 0001:00014d60       ??$_Move_construct_from@VRawImageData@@@?$_Ptr_base@VRawImageData@@@std@@IAEX$$QAV01@@Z 00415d60 f i DraggingDemo.obj
 0001:00014db0       ??$_Resize@U_Value_init_tag@std@@@?$vector@PAVDisplayableObject@@V?$allocator@PAVDisplayableObject@@@std@@@std@@AAEXIABU_Value_init_tag@1@@Z 00415db0 f i DraggingDemo.obj
 0001:00014ed0       ??$_Resize_reallocate@U_Value_init_tag@std@@@?$vector@PAVDisplayableObject@@V?$allocator@PAVDisplayableObject@@@std@@@std@@AAEXIABU_Value_init_tag@1@@Z 00415ed0 f i DraggingDemo.obj
 0001:00015080       ??$_Set_ptr_rep_and_enable_shared@VRawImageData@@@?$shared_ptr@VRawImageData@@@std@@AAEXQAVRawImageData@@QAV_Ref_count_base@1@@Z 00416080 f i DraggingDemo.obj
 0001:000150b0       ??$_Unfancy@PAVDisplayableObject@@@std@@YAPAPAVDisplayableObject@@PAPAV1@@Z 004160b0 f i DraggingDemo.obj
 0001:000150c0       ??$_Uninitialized_move@PAPAVDisplayableObject@@V?$allocator@PAVDisplayableObject@@@std@@@std@@YAPAPAVDisplayableObject@@QAPAV1@0PAPAV1@AAV?$allocator@PAVDisplayableObject@@@0@@Z 004160c0 f i DraggingDemo.obj
 0001:00015130       ??$_Uninitialized_value_construct_n@V?$allocator@PAVDisplayableObject@@@std@@@std@@YAPAPAVDisplayableObject@@PAPAV1@IAAV?$allocator@PAVDisplayableObject@@@0@@Z 00416130 f i DraggingDemo.obj
 0001:00015180       ??$_Weakly_construct_from@VRawImageData@@@?$_Ptr_base@VRawImageData@@@std@@IAEXABV01@@Z 00416180 f i DraggingDemo.obj
 0001:000151d0       ??$_Zero_range@PAPAVDisplayableObject@@@std@@YAPAPAVDisplayableObject@@QAPAV1@0@Z 004161d0 f i DraggingDemo.obj
 0001:00015210       ??$addressof@$$CBV?$_Tree_val@U?$_Tree_simple_types@U?$pair@$$CBV?$basic_string@DU?$char_traits@D@std@@V?$allocator@D@2@@std@@V?$shared_ptr@VRawImageData@@@2@@std@@@std@@@std@@@std@@YAPBV?$_Tree_val@U?$_Tree_simple_types@U?$pair@$$CBV?$basic_string@DU?$char_traits@D@std@@V?$allocator@D@2@@std@@V?$shared_ptr@VRawImageData@@@2@@std@@@std@@@0@ABV10@@Z 00416210 f i DraggingDemo.obj
 0001:00015220       ??$addressof@$$CBV?$_Tree_val@U?$_Tree_simple_types@U?$pair@$$CBV?$basic_string@DU?$char_traits@D@std@@V?$allocator@D@2@@std@@V?$weak_ptr@VRawImageData@@@2@@std@@@std@@@std@@@std@@YAPBV?$_Tree_val@U?$_Tree_simple_types@U?$pair@$$CBV?$basic_string@DU?$char_traits@D@std@@V?$allocator@D@2@@std@@V?$weak_ptr@VRawImageData@@@2@@std@@@std@@@0@ABV10@@Z 00416220 f i DraggingDemo.obj
 0001:00015230       ??$addressof@PAU?$_Tree_node@U?$pair@$$CBV?$basic_string@DU?$char_traits@D@std@@V?$allocator@D@2@@std@@V?$shared_ptr@VRawImageData@@@2@@std@@PAX@std@@@std@@YAPAPAU?$_Tree_node@U?$pair@$$CBV?$basic_string@DU?$char_traits@D@std@@V?$allocator@D@2@@std@@V?$shared_ptr@VRawImageData@@@2@@std@@PAX@0@AAPAU10@@Z 00416230 f i DraggingDemo.obj
 0001:00015240       ??$addressof@PAU?$_Tree_node@U?$pair@$$CBV?$basic_string@DU?$char_traits@D@std@@V?$allocator@D@2@@std@@V?$weak_ptr@VRawImageData@@@2@@std@@PAX@std@@@std@@YAPAPAU?$_Tree_node@U?$pair@$$CBV?$basic_string@DU?$char_traits@D@std@@V?$allocator@D@2@@std@@V?$weak_ptr@VRawImageData@@@2@@std@@PAX@0@AAPAU10@@Z 00416240 f i DraggingDemo.obj
 0001:00015250       ??$addressof@U?$pair@$$CBV?$basic_string@DU?$char_traits@D@std@@V?$allocator@D@2@@std@@V?$shared_ptr@VRawImageData@@@2@@std@@@std@@YAPAU?$pair@$$CBV?$basic_string@DU?$char_traits@D@std@@V?$allocator@D@2@@std@@V?$shared_ptr@VRawImageData@@@2@@0@AAU10@@Z 00416250 f i DraggingDemo.obj
 0001:00015260       ??$addressof@U?$pair@$$CBV?$basic_string@DU?$char_traits@D@std@@V?$allocator@D@2@@std@@V?$weak_ptr@VRawImageData@@@2@@std@@@std@@YAPAU?$pair@$$CBV?$basic_string@DU?$char_traits@D@std@@V?$allocator@D@2@@std@@V?$weak_ptr@VRawImageData@@@2@@0@AAU10@@Z 00416260 f i DraggingDemo.obj
 0001:00015270       ??$addressof@V?$_Tree_val@U?$_Tree_simple_types@U?$pair@$$CBV?$basic_string@DU?$char_traits@D@std@@V?$allocator@D@2@@std@@V?$shared_ptr@VRawImageData@@@2@@std@@@std@@@std@@@std@@YAPAV?$_Tree_val@U?$_Tree_simple_types@U?$pair@$$CBV?$basic_string@DU?$char_traits@D@std@@V?$allocator@D@2@@std@@V?$shared_ptr@VRawImageData@@@2@@std@@@std@@@0@AAV10@@Z 00416270 f i DraggingDemo.obj
 0001:00015280       ??$addressof@V?$_Tree_val@U?$_Tree_simple_types@U?$pair@$$CBV?$basic_string@DU?$char_traits@D@std@@V?$allocator@D@2@@std@@V?$weak_ptr@VRawImageData@@@2@@std@@@std@@@std@@@std@@YAPAV?$_Tree_val@U?$_Tree_simple_types@U?$pair@$$CBV?$basic_string@DU?$char_traits@D@std@@V?$allocator@D@2@@std@@V?$weak_ptr@VRawImageData@@@2@@std@@@std@@@0@AAV10@@Z 00416280 f i DraggingDemo.obj
 0001:00015290       ??$construct@U?$pair@$$CBV?$basic_string@DU?$char_traits@D@std@@V?$allocator@D@2@@std@@V?$shared_ptr@VRawImageData@@@2@@std@@U?$pair@V?$basic_string@DU?$char_traits@D@std@@V?$allocator@D@2@@std@@V?$shared_ptr@VRawImageData@@@2@@2@@?$_Default_allocator_traits@V?$allocator@U?$_Tree_node@U?$pair@$$CBV?$basic_string@DU?$char_traits@D@std@@V?$allocator@D@2@@std@@V?$shared_ptr@VRawImageData@@@2@@std@@PAX@std@@@std@@@std@@SAXAAV?$allocator@U?$_Tree_node@U?$pair@$$CBV?$basic_string@DU?$char_traits@D@std@@V?$allocator@D@2@@std@@V?$shared_ptr@VRawImageData@@@2@@std@@PAX@std@@@1@QAU?$pair@$$CBV?$basic_string@DU?$char_traits@D@std@@V?$allocator@D@2@@std@@V?$shared_ptr@VRawImageData@@@2@@1@$$QAU?$pair@V?$basic_string@DU?$char_traits@D@std@@V?$allocator@D@2@@std@@V?$shared_ptr@VRawImageData@@@2@@1@@Z 00416290 f i DraggingDemo.obj
 0001:000152d0       ??$construct@U?$pair@$$CBV?$basic_string@DU?$char_traits@D@std@@V?$allocator@D@2@@std@@V?$weak_ptr@VRawImageData@@@2@@std@@U?$pair@V?$basic_string@DU?$char_traits@D@std@@V?$allocator@D@2@@std@@V?$weak_ptr@VRawImageData@@@2@@2@@?$_Default_allocator_traits@V?$allocator@U?$_Tree_node@U?$pair@$$CBV?$basic_string@DU?$char_traits@D@std@@V?$allocator@D@2@@std@@V?$weak_ptr@VRawImageData@@@2@@std@@PAX@std@@@std@@@std@@SAXAAV?$allocator@U?$_Tree_node@U?$pair@$$CBV?$basic_string@DU?$char_traits@D@std@@V?$allocator@D@2@@std@@V?$weak_ptr@VRawImageData@@@2@@std@@PAX@std@@@1@QAU?$pair@$$CBV?$basic_string@DU?$char_traits@D@std@@V?$allocator@D@2@@std@@V?$weak_ptr@VRawImageData@@@2@@1@$$QAU?$pair@V?$basic_string@DU?$char_traits@D@std@@V?$allocator@D@2@@std@@V?$weak_ptr@VRawImageData@@@2@@1@@Z 004162d0 f i DraggingDemo.obj
 0001:00015310       ??$destroy@U?$pair@$$CBV?$basic_string@DU?$char_traits@D@std@@V?$allocator@D@2@@std@@V?$shared_ptr@VRawImageData@@@2@@std@@@?$_Default_allocator_traits@V?$allocator@U?$_Tree_node@U?$pair@$$CBV?$basic_string@DU?$char_traits@D@std@@V?$allocator@D@2@@std@@V?$shared_ptr@VRawImageData@@@2@@std@@PAX@std@@@std@@@std@@SAXAAV?$allocator@U?$_Tree_node@U?$pair@$$CBV?$basic_string@DU?$char_traits@D@std@@V?$allocator@D@2@@std@@V?$shared_ptr@VRawImageData@@@2@@std@@PAX@std@@@1@QAU?$pair@$$CBV?$basic_string@DU?$char_traits@D@std@@V?$allocator@D@2@@std@@V?$shared_ptr@VRawImageData@@@2@@1@@Z 00416310 f i DraggingDemo.obj
 0001:00015330       ??$destroy@U?$pair@$$CBV?$basic_string@DU?$char_traits@D@std@@V?$allocator@D@2@@std@@V?$weak_ptr@VRawImageData@@@2@@std@@@?$_Default_allocator_traits@V?$allocator@U?$_Tree_node@U?$pair@$$CBV?$basic_string@DU?$char_traits@D@std@@V?$allocator@D@2@@std@@V?$weak_ptr@VRawImageData@@@2@@std@@PAX@std@@@std@@@std@@SAXAAV?$allocator@U?$_Tree_node@U?$pair@$$CBV?$basic_string@DU?$char_traits@D@std@@V?$allocator@D@2@@std@@V?$weak_ptr@VRawImageData@@@2@@std@@PAX@std@@@1@QAU?$pair@$$CBV?$basic_string@DU?$char_traits@D@std@@V?$allocator@D@2@@std@@V?$weak_ptr@VRawImageData@@@2@@1@@Z 00416330 f i DraggingDemo.obj
 0001:00015350       ??$emplace@U?$pair@V?$basic_string@DU?$char_traits@D@std@@V?$allocator@D@2@@std@@V?$shared_ptr@VRawImageData@@@2@@std@@@?$_Tree@V?$_Tmap_traits@V?$basic_string@DU?$char_traits@D@std@@V?$allocator@D@2@@std@@V?$shared_ptr@VRawImageData@@@2@U?$less@V?$basic_string@DU?$char_traits@D@std@@V?$allocator@D@2@@std@@@2@V?$allocator@U?$pair@$$CBV?$basic_string@DU?$char_traits@D@std@@V?$allocator@D@2@@std@@V?$shared_ptr@VRawImageData@@@2@@std@@@2@$0A@@std@@@std@@QAE?AU?$pair@V?$_Tree_iterator@V?$_Tree_val@U?$_Tree_simple_types@U?$pair@$$CBV?$basic_string@DU?$char_traits@D@std@@V?$allocator@D@2@@std@@V?$shared_ptr@VRawImageData@@@2@@std@@@std@@@std@@@std@@_N@1@$$QAU?$pair@V?$basic_string@DU?$char_traits@D@std@@V?$allocator@D@2@@std@@V?$shared_ptr@VRawImageData@@@2@@1@@Z 00416350 f i DraggingDemo.obj
 0001:000153e0       ??$emplace@U?$pair@V?$basic_string@DU?$char_traits@D@std@@V?$allocator@D@2@@std@@V?$weak_ptr@VRawImageData@@@2@@std@@@?$_Tree@V?$_Tmap_traits@V?$basic_string@DU?$char_traits@D@std@@V?$allocator@D@2@@std@@V?$weak_ptr@VRawImageData@@@2@U?$less@V?$basic_string@DU?$char_traits@D@std@@V?$allocator@D@2@@std@@@2@V?$allocator@U?$pair@$$CBV?$basic_string@DU?$char_traits@D@std@@V?$allocator@D@2@@std@@V?$weak_ptr@VRawImageData@@@2@@std@@@2@$0A@@std@@@std@@QAE?AU?$pair@V?$_Tree_iterator@V?$_Tree_val@U?$_Tree_simple_types@U?$pair@$$CBV?$basic_string@DU?$char_traits@D@std@@V?$allocator@D@2@@std@@V?$weak_ptr@VRawImageData@@@2@@std@@@std@@@std@@@std@@_N@1@$$QAU?$pair@V?$basic_string@DU?$char_traits@D@std@@V?$allocator@D@2@@std@@V?$weak_ptr@VRawImageData@@@2@@1@@Z 004163e0 f i DraggingDemo.obj
 0001:00015470       ??$endl@DU?$char_traits@D@std@@@std@@YAAAV?$basic_ostream@DU?$char_traits@D@std@@@0@AAV10@@Z 00416470 f i DraggingDemo.obj
 0001:000154b0       ??$erase@V?$_Tree_iterator@V?$_Tree_val@U?$_Tree_simple_types@U?$pair@$$CBV?$basic_string@DU?$char_traits@D@std@@V?$allocator@D@2@@std@@V?$weak_ptr@VRawImageData@@@2@@std@@@std@@@std@@@std@@X@?$_Tree@V?$_Tmap_traits@V?$basic_string@DU?$char_traits@D@std@@V?$allocator@D@2@@std@@V?$weak_ptr@VRawImageData@@@2@U?$less@V?$basic_string@DU?$char_traits@D@std@@V?$allocator@D@2@@std@@@2@V?$allocator@U?$pair@$$CBV?$basic_string@DU?$char_traits@D@std@@V?$allocator@D@2@@std@@V?$weak_ptr@VRawImageData@@@2@@std@@@2@$0A@@std@@@std@@QAE?AV?$_Tree_iterator@V?$_Tree_val@U?$_Tree_simple_types@U?$pair@$$CBV?$basic_string@DU?$char_traits@D@std@@V?$allocator@D@2@@std@@V?$weak_ptr@VRawImageData@@@2@@std@@@std@@@std@@@1@V21@@Z 004164b0 f i DraggingDemo.obj
 0001:00015630       ??$exchange@PAU?$_Tree_node@U?$pair@$$CBV?$basic_string@DU?$char_traits@D@std@@V?$allocator@D@2@@std@@V?$shared_ptr@VRawImageData@@@2@@std@@PAX@std@@$$T@std@@YAPAU?$_Tree_node@U?$pair@$$CBV?$basic_string@DU?$char_traits@D@std@@V?$allocator@D@2@@std@@V?$shared_ptr@VRawImageData@@@2@@std@@PAX@0@AAPAU10@$$QA$$T@Z 00416630 f i DraggingDemo.obj
 0001:00015660       ??$exchange@PAU?$_Tree_node@U?$pair@$$CBV?$basic_string@DU?$char_traits@D@std@@V?$allocator@D@2@@std@@V?$shared_ptr@VRawImageData@@@2@@std@@PAX@std@@AAPAU12@@std@@YAPAU?$_Tree_node@U?$pair@$$CBV?$basic_string@DU?$char_traits@D@std@@V?$allocator@D@2@@std@@V?$shared_ptr@VRawImageData@@@2@@std@@PAX@0@AAPAU10@0@Z 00416660 f i DraggingDemo.obj
 0001:00015690       ??$exchange@PAU?$_Tree_node@U?$pair@$$CBV?$basic_string@DU?$char_traits@D@std@@V?$allocator@D@2@@std@@V?$weak_ptr@VRawImageData@@@2@@std@@PAX@std@@$$T@std@@YAPAU?$_Tree_node@U?$pair@$$CBV?$basic_string@DU?$char_traits@D@std@@V?$allocator@D@2@@std@@V?$weak_ptr@VRawImageData@@@2@@std@@PAX@0@AAPAU10@$$QA$$T@Z 00416690 f i DraggingDemo.obj
 0001:000156c0       ??$exchange@PAU?$_Tree_node@U?$pair@$$CBV?$basic_string@DU?$char_traits@D@std@@V?$allocator@D@2@@std@@V?$weak_ptr@VRawImageData@@@2@@std@@PAX@std@@AAPAU12@@std@@YAPAU?$_Tree_node@U?$pair@$$CBV?$basic_string@DU?$char_traits@D@std@@V?$allocator@D@2@@std@@V?$weak_ptr@VRawImageData@@@2@@std@@PAX@0@AAPAU10@0@Z 004166c0 f i DraggingDemo.obj
 0001:000156f0       ??$forward@AAPAU?$_Tree_node@U?$pair@$$CBV?$basic_string@DU?$char_traits@D@std@@V?$allocator@D@2@@std@@V?$shared_ptr@VRawImageData@@@2@@std@@PAX@std@@@std@@YAAAPAU?$_Tree_node@U?$pair@$$CBV?$basic_string@DU?$char_traits@D@std@@V?$allocator@D@2@@std@@V?$shared_ptr@VRawImageData@@@2@@std@@PAX@0@AAPAU10@@Z 004166f0 f i DraggingDemo.obj
 0001:00015700       ??$forward@AAPAU?$_Tree_node@U?$pair@$$CBV?$basic_string@DU?$char_traits@D@std@@V?$allocator@D@2@@std@@V?$weak_ptr@VRawImageData@@@2@@std@@PAX@std@@@std@@YAAAPAU?$_Tree_node@U?$pair@$$CBV?$basic_string@DU?$char_traits@D@std@@V?$allocator@D@2@@std@@V?$weak_ptr@VRawImageData@@@2@@std@@PAX@0@AAPAU10@@Z 00416700 f i DraggingDemo.obj
 0001:00015710       ??$forward@AAV?$basic_string@DU?$char_traits@D@std@@V?$allocator@D@2@@std@@@std@@YAAAV?$basic_string@DU?$char_traits@D@std@@V?$allocator@D@2@@0@AAV10@@Z 00416710 f i DraggingDemo.obj
 0001:00015720       ??$forward@AAV?$shared_ptr@VRawImageData@@@std@@@std@@YAAAV?$shared_ptr@VRawImageData@@@0@AAV10@@Z 00416720 f i DraggingDemo.obj
 0001:00015730       ??$forward@AAV?$weak_ptr@VRawImageData@@@std@@@std@@YAAAV?$weak_ptr@VRawImageData@@@0@AAV10@@Z 00416730 f i DraggingDemo.obj
 0001:00015740       ??$forward@ABQAU?$_Tree_node@U?$pair@$$CBV?$basic_string@DU?$char_traits@D@std@@V?$allocator@D@2@@std@@V?$shared_ptr@VRawImageData@@@2@@std@@PAX@std@@@std@@YAABQAU?$_Tree_node@U?$pair@$$CBV?$basic_string@DU?$char_traits@D@std@@V?$allocator@D@2@@std@@V?$shared_ptr@VRawImageData@@@2@@std@@PAX@0@ABQAU10@@Z 00416740 f i DraggingDemo.obj
 0001:00015750       ??$forward@ABQAU?$_Tree_node@U?$pair@$$CBV?$basic_string@DU?$char_traits@D@std@@V?$allocator@D@2@@std@@V?$weak_ptr@VRawImageData@@@2@@std@@PAX@std@@@std@@YAABQAU?$_Tree_node@U?$pair@$$CBV?$basic_string@DU?$char_traits@D@std@@V?$allocator@D@2@@std@@V?$weak_ptr@VRawImageData@@@2@@std@@PAX@0@ABQAU10@@Z 00416750 f i DraggingDemo.obj
 0001:00015760       ??$forward@PAU?$_Tree_node@U?$pair@$$CBV?$basic_string@DU?$char_traits@D@std@@V?$allocator@D@2@@std@@V?$shared_ptr@VRawImageData@@@2@@std@@PAX@std@@@std@@YA$$QAPAU?$_Tree_node@U?$pair@$$CBV?$basic_string@DU?$char_traits@D@std@@V?$allocator@D@2@@std@@V?$shared_ptr@VRawImageData@@@2@@std@@PAX@0@AAPAU10@@Z 00416760 f i DraggingDemo.obj
 0001:00015770       ??$forward@PAU?$_Tree_node@U?$pair@$$CBV?$basic_string@DU?$char_traits@D@std@@V?$allocator@D@2@@std@@V?$weak_ptr@VRawImageData@@@2@@std@@PAX@std@@@std@@YA$$QAPAU?$_Tree_node@U?$pair@$$CBV?$basic_string@DU?$char_traits@D@std@@V?$allocator@D@2@@std@@V?$weak_ptr@VRawImageData@@@2@@std@@PAX@0@AAPAU10@@Z 00416770 f i DraggingDemo.obj
 0001:00015780       ??$forward@U?$pair@V?$basic_string@DU?$char_traits@D@std@@V?$allocator@D@2@@std@@V?$shared_ptr@VRawImageData@@@2@@std@@@std@@YA$$QAU?$pair@V?$basic_string@DU?$char_traits@D@std@@V?$allocator@D@2@@std@@V?$shared_ptr@VRawImageData@@@2@@0@AAU10@@Z 00416780 f i DraggingDemo.obj
 0001:00015790       ??$forward@U?$pair@V?$basic_string@DU?$char_traits@D@std@@V?$allocator@D@2@@std@@V?$weak_ptr@VRawImageData@@@2@@std@@@std@@YA$$QAU?$pair@V?$basic_string@DU?$char_traits@D@std@@V?$allocator@D@2@@std@@V?$weak_ptr@VRawImageData@@@2@@0@AAU10@@Z 00416790 f i DraggingDemo.obj
 0001:000157a0       ??$forward@V?$_Tree_iterator@V?$_Tree_val@U?$_Tree_simple_types@U?$pair@$$CBV?$basic_string@DU?$char_traits@D@std@@V?$allocator@D@2@@std@@V?$shared_ptr@VRawImageData@@@2@@std@@@std@@@std@@@std@@@std@@YA$$QAV?$_Tree_iterator@V?$_Tree_val@U?$_Tree_simple_types@U?$pair@$$CBV?$basic_string@DU?$char_traits@D@std@@V?$allocator@D@2@@std@@V?$shared_ptr@VRawImageData@@@2@@std@@@std@@@std@@@0@AAV10@@Z 004167a0 f i DraggingDemo.obj
 0001:000157b0       ??$forward@V?$_Tree_iterator@V?$_Tree_val@U?$_Tree_simple_types@U?$pair@$$CBV?$basic_string@DU?$char_traits@D@std@@V?$allocator@D@2@@std@@V?$weak_ptr@VRawImageData@@@2@@std@@@std@@@std@@@std@@@std@@YA$$QAV?$_Tree_iterator@V?$_Tree_val@U?$_Tree_simple_types@U?$pair@$$CBV?$basic_string@DU?$char_traits@D@std@@V?$allocator@D@2@@std@@V?$weak_ptr@VRawImageData@@@2@@std@@@std@@@std@@@0@AAV10@@Z 004167b0 f i DraggingDemo.obj
 0001:000157c0       ??$forward@V?$allocator@D@std@@@std@@YA$$QAV?$allocator@D@0@AAV10@@Z 004167c0 f i DraggingDemo.obj
 0001:000157d0       ??$forward@V?$basic_string@DU?$char_traits@D@std@@V?$allocator@D@2@@std@@@std@@YA$$QAV?$basic_string@DU?$char_traits@D@std@@V?$allocator@D@2@@0@AAV10@@Z 004167d0 f i DraggingDemo.obj
 0001:000157e0       ??$forward@V?$shared_ptr@VRawImageData@@@std@@@std@@YA$$QAV?$shared_ptr@VRawImageData@@@0@AAV10@@Z 004167e0 f i DraggingDemo.obj
 0001:000157f0       ??$forward@V?$weak_ptr@VRawImageData@@@std@@@std@@YA$$QAV?$weak_ptr@VRawImageData@@@0@AAV10@@Z 004167f0 f i DraggingDemo.obj
 0001:00015800       ??$insert@U?$pair@V?$basic_string@DU?$char_traits@D@std@@V?$allocator@D@2@@std@@V?$shared_ptr@VRawImageData@@@2@@std@@X@?$map@V?$basic_string@DU?$char_traits@D@std@@V?$allocator@D@2@@std@@V?$shared_ptr@VRawImageData@@@2@U?$less@V?$basic_string@DU?$char_traits@D@std@@V?$allocator@D@2@@std@@@2@V?$allocator@U?$pair@$$CBV?$basic_string@DU?$char_traits@D@std@@V?$allocator@D@2@@std@@V?$shared_ptr@VRawImageData@@@2@@std@@@2@@std@@QAE?AU?$pair@V?$_Tree_iterator@V?$_Tree_val@U?$_Tree_simple_types@U?$pair@$$CBV?$basic_string@DU?$char_traits@D@std@@V?$allocator@D@2@@std@@V?$shared_ptr@VRawImageData@@@2@@std@@@std@@@std@@@std@@_N@1@$$QAU?$pair@V?$basic_string@DU?$char_traits@D@std@@V?$allocator@D@2@@std@@V?$shared_ptr@VRawImageData@@@2@@1@@Z 00416800 f i DraggingDemo.obj
 0001:00015850       ??$insert@U?$pair@V?$basic_string@DU?$char_traits@D@std@@V?$allocator@D@2@@std@@V?$weak_ptr@VRawImageData@@@2@@std@@X@?$map@V?$basic_string@DU?$char_traits@D@std@@V?$allocator@D@2@@std@@V?$weak_ptr@VRawImageData@@@2@U?$less@V?$basic_string@DU?$char_traits@D@std@@V?$allocator@D@2@@std@@@2@V?$allocator@U?$pair@$$CBV?$basic_string@DU?$char_traits@D@std@@V?$allocator@D@2@@std@@V?$weak_ptr@VRawImageData@@@2@@std@@@2@@std@@QAE?AU?$pair@V?$_Tree_iterator@V?$_Tree_val@U?$_Tree_simple_types@U?$pair@$$CBV?$basic_string@DU?$char_traits@D@std@@V?$allocator@D@2@@std@@V?$weak_ptr@VRawImageData@@@2@@std@@@std@@@std@@@std@@_N@1@$$QAU?$pair@V?$basic_string@DU?$char_traits@D@std@@V?$allocator@D@2@@std@@V?$weak_ptr@VRawImageData@@@2@@1@@Z 00416850 f i DraggingDemo.obj
 0001:000158a0       ??$move@AAD@std@@YA$$QADAAD@Z 004168a0 f i DraggingDemo.obj
 0001:000158b0       ??$move@AAV?$shared_ptr@VRawImageData@@@std@@@std@@YA$$QAV?$shared_ptr@VRawImageData@@@0@AAV10@@Z 004168b0 f i DraggingDemo.obj
 0001:000158c0       ??$move@AAV?$weak_ptr@VRawImageData@@@std@@@std@@YA$$QAV?$weak_ptr@VRawImageData@@@0@AAV10@@Z 004168c0 f i DraggingDemo.obj
 0001:000158d0       ??$swap@DX@std@@YAXAAD0@Z  004168d0 f i DraggingDemo.obj
 0001:00015920       ??0?$_Alloc_construct_ptr@V?$allocator@U?$_Tree_node@U?$pair@$$CBV?$basic_string@DU?$char_traits@D@std@@V?$allocator@D@2@@std@@V?$shared_ptr@VRawImageData@@@2@@std@@PAX@std@@@std@@@std@@QAE@AAV?$allocator@U?$_Tree_node@U?$pair@$$CBV?$basic_string@DU?$char_traits@D@std@@V?$allocator@D@2@@std@@V?$shared_ptr@VRawImageData@@@2@@std@@PAX@std@@@1@@Z 00416920 f i DraggingDemo.obj
 0001:00015950       ??0?$_Alloc_construct_ptr@V?$allocator@U?$_Tree_node@U?$pair@$$CBV?$basic_string@DU?$char_traits@D@std@@V?$allocator@D@2@@std@@V?$weak_ptr@VRawImageData@@@2@@std@@PAX@std@@@std@@@std@@QAE@AAV?$allocator@U?$_Tree_node@U?$pair@$$CBV?$basic_string@DU?$char_traits@D@std@@V?$allocator@D@2@@std@@V?$weak_ptr@VRawImageData@@@2@@std@@PAX@std@@@1@@Z 00416950 f i DraggingDemo.obj
 0001:00015980       ??0?$_Ptr_base@VRawImageData@@@std@@IAE@XZ 00416980 f i DraggingDemo.obj
 0001:000159b0       ??0?$_Ref_count@VRawImageData@@@std@@QAE@PAVRawImageData@@@Z 004169b0 f i DraggingDemo.obj
 0001:00015a00       ??0?$_Temporary_owner@VRawImageData@@@std@@QAE@QAVRawImageData@@@Z 00416a00 f i DraggingDemo.obj
 0001:00015a20       ??0?$_Tree@V?$_Tmap_traits@V?$basic_string@DU?$char_traits@D@std@@V?$allocator@D@2@@std@@V?$shared_ptr@VRawImageData@@@2@U?$less@V?$basic_string@DU?$char_traits@D@std@@V?$allocator@D@2@@std@@@2@V?$allocator@U?$pair@$$CBV?$basic_string@DU?$char_traits@D@std@@V?$allocator@D@2@@std@@V?$shared_ptr@VRawImageData@@@2@@std@@@2@$0A@@std@@@std@@QAE@ABU?$less@V?$basic_string@DU?$char_traits@D@std@@V?$allocator@D@2@@std@@@1@@Z 00416a20 f i DraggingDemo.obj
 0001:00015a60       ??0?$_Tree@V?$_Tmap_traits@V?$basic_string@DU?$char_traits@D@std@@V?$allocator@D@2@@std@@V?$weak_ptr@VRawImageData@@@2@U?$less@V?$basic_string@DU?$char_traits@D@std@@V?$allocator@D@2@@std@@@2@V?$allocator@U?$pair@$$CBV?$basic_string@DU?$char_traits@D@std@@V?$allocator@D@2@@std@@V?$weak_ptr@VRawImageData@@@2@@std@@@2@$0A@@std@@@std@@QAE@ABU?$less@V?$basic_string@DU?$char_traits@D@std@@V?$allocator@D@2@@std@@@1@@Z 00416a60 f i DraggingDemo.obj
 0001:00015aa0       ??0?$_Tree_const_iterator@V?$_Tree_val@U?$_Tree_simple_types@U?$pair@$$CBV?$basic_string@DU?$char_traits@D@std@@V?$allocator@D@2@@std@@V?$shared_ptr@VRawImageData@@@2@@std@@@std@@@std@@@std@@QAE@$$QAV01@@Z 00416aa0 f i DraggingDemo.obj
 0001:00015ad0       ??0?$_Tree_const_iterator@V?$_Tree_val@U?$_Tree_simple_types@U?$pair@$$CBV?$basic_string@DU?$char_traits@D@std@@V?$allocator@D@2@@std@@V?$shared_ptr@VRawImageData@@@2@@std@@@std@@@std@@@std@@QAE@PAU?$_Tree_node@U?$pair@$$CBV?$basic_string@DU?$char_traits@D@std@@V?$allocator@D@2@@std@@V?$shared_ptr@VRawImageData@@@2@@std@@PAX@1@PBV?$_Tree_val@U?$_Tree_simple_types@U?$pair@$$CBV?$basic_string@DU?$char_traits@D@std@@V?$allocator@D@2@@std@@V?$shared_ptr@VRawImageData@@@2@@std@@@std@@@1@@Z 00416ad0 f i DraggingDemo.obj
 0001:00015b00       ??0?$_Tree_const_iterator@V?$_Tree_val@U?$_Tree_simple_types@U?$pair@$$CBV?$basic_string@DU?$char_traits@D@std@@V?$allocator@D@2@@std@@V?$weak_ptr@VRawImageData@@@2@@std@@@std@@@std@@@std@@QAE@$$QAV01@@Z 00416b00 f i DraggingDemo.obj
 0001:00015b30       ??0?$_Tree_const_iterator@V?$_Tree_val@U?$_Tree_simple_types@U?$pair@$$CBV?$basic_string@DU?$char_traits@D@std@@V?$allocator@D@2@@std@@V?$weak_ptr@VRawImageData@@@2@@std@@@std@@@std@@@std@@QAE@ABV01@@Z 00416b30 f i DraggingDemo.obj
 0001:00015b60       ??0?$_Tree_const_iterator@V?$_Tree_val@U?$_Tree_simple_types@U?$pair@$$CBV?$basic_string@DU?$char_traits@D@std@@V?$allocator@D@2@@std@@V?$weak_ptr@VRawImageData@@@2@@std@@@std@@@std@@@std@@QAE@PAU?$_Tree_node@U?$pair@$$CBV?$basic_string@DU?$char_traits@D@std@@V?$allocator@D@2@@std@@V?$weak_ptr@VRawImageData@@@2@@std@@PAX@1@PBV?$_Tree_val@U?$_Tree_simple_types@U?$pair@$$CBV?$basic_string@DU?$char_traits@D@std@@V?$allocator@D@2@@std@@V?$weak_ptr@VRawImageData@@@2@@std@@@std@@@1@@Z 00416b60 f i DraggingDemo.obj
 0001:00015b90       ??0?$_Tree_iterator@V?$_Tree_val@U?$_Tree_simple_types@U?$pair@$$CBV?$basic_string@DU?$char_traits@D@std@@V?$allocator@D@2@@std@@V?$shared_ptr@VRawImageData@@@2@@std@@@std@@@std@@@std@@QAE@$$QAV01@@Z 00416b90 f i DraggingDemo.obj
 0001:00015bc0       ??0?$_Tree_iterator@V?$_Tree_val@U?$_Tree_simple_types@U?$pair@$$CBV?$basic_string@DU?$char_traits@D@std@@V?$allocator@D@2@@std@@V?$shared_ptr@VRawImageData@@@2@@std@@@std@@@std@@@std@@QAE@PAU?$_Tree_node@U?$pair@$$CBV?$basic_string@DU?$char_traits@D@std@@V?$allocator@D@2@@std@@V?$shared_ptr@VRawImageData@@@2@@std@@PAX@1@PBV?$_Tree_val@U?$_Tree_simple_types@U?$pair@$$CBV?$basic_string@DU?$char_traits@D@std@@V?$allocator@D@2@@std@@V?$shared_ptr@VRawImageData@@@2@@std@@@std@@@1@@Z 00416bc0 f i DraggingDemo.obj
 0001:00015bf0       ??0?$_Tree_iterator@V?$_Tree_val@U?$_Tree_simple_types@U?$pair@$$CBV?$basic_string@DU?$char_traits@D@std@@V?$allocator@D@2@@std@@V?$weak_ptr@VRawImageData@@@2@@std@@@std@@@std@@@std@@QAE@$$QAV01@@Z 00416bf0 f i DraggingDemo.obj
 0001:00015c20       ??0?$_Tree_iterator@V?$_Tree_val@U?$_Tree_simple_types@U?$pair@$$CBV?$basic_string@DU?$char_traits@D@std@@V?$allocator@D@2@@std@@V?$weak_ptr@VRawImageData@@@2@@std@@@std@@@std@@@std@@QAE@ABV01@@Z 00416c20 f i DraggingDemo.obj
 0001:00015c50       ??0?$_Tree_iterator@V?$_Tree_val@U?$_Tree_simple_types@U?$pair@$$CBV?$basic_string@DU?$char_traits@D@std@@V?$allocator@D@2@@std@@V?$weak_ptr@VRawImageData@@@2@@std@@@std@@@std@@@std@@QAE@PAU?$_Tree_node@U?$pair@$$CBV?$basic_string@DU?$char_traits@D@std@@V?$allocator@D@2@@std@@V?$weak_ptr@VRawImageData@@@2@@std@@PAX@1@PBV?$_Tree_val@U?$_Tree_simple_types@U?$pair@$$CBV?$basic_string@DU?$char_traits@D@std@@V?$allocator@D@2@@std@@V?$weak_ptr@VRawImageData@@@2@@std@@@std@@@1@@Z 00416c50 f i DraggingDemo.obj
 0001:00015c80       ??0?$_Tree_temp_node_alloc@V?$allocator@U?$_Tree_node@U?$pair@$$CBV?$basic_string@DU?$char_traits@D@std@@V?$allocator@D@2@@std@@V?$shared_ptr@VRawImageData@@@2@@std@@PAX@std@@@std@@@std@@QAE@AAV?$allocator@U?$_Tree_node@U?$pair@$$CBV?$basic_string@DU?$char_traits@D@std@@V?$allocator@D@2@@std@@V?$shared_ptr@VRawImageData@@@2@@std@@PAX@std@@@1@@Z 00416c80 f i DraggingDemo.obj
 0001:00015d00       ??0?$_Tree_temp_node_alloc@V?$allocator@U?$_Tree_node@U?$pair@$$CBV?$basic_string@DU?$char_traits@D@std@@V?$allocator@D@2@@std@@V?$weak_ptr@VRawImageData@@@2@@std@@PAX@std@@@std@@@std@@QAE@AAV?$allocator@U?$_Tree_node@U?$pair@$$CBV?$basic_string@DU?$char_traits@D@std@@V?$allocator@D@2@@std@@V?$weak_ptr@VRawImageData@@@2@@std@@PAX@std@@@1@@Z 00416d00 f i DraggingDemo.obj
 0001:00015d80       ??0?$_Tree_unchecked_const_iterator@V?$_Tree_val@U?$_Tree_simple_types@U?$pair@$$CBV?$basic_string@DU?$char_traits@D@std@@V?$allocator@D@2@@std@@V?$shared_ptr@VRawImageData@@@2@@std@@@std@@@std@@U_Iterator_base12@2@@std@@QAE@$$QAV01@@Z 00416d80 f i DraggingDemo.obj
 0001:00015dc0       ??0?$_Tree_unchecked_const_iterator@V?$_Tree_val@U?$_Tree_simple_types@U?$pair@$$CBV?$basic_string@DU?$char_traits@D@std@@V?$allocator@D@2@@std@@V?$shared_ptr@VRawImageData@@@2@@std@@@std@@@std@@U_Iterator_base12@2@@std@@QAE@PAU?$_Tree_node@U?$pair@$$CBV?$basic_string@DU?$char_traits@D@std@@V?$allocator@D@2@@std@@V?$shared_ptr@VRawImageData@@@2@@std@@PAX@1@PBV?$_Tree_val@U?$_Tree_simple_types@U?$pair@$$CBV?$basic_string@DU?$char_traits@D@std@@V?$allocator@D@2@@std@@V?$shared_ptr@VRawImageData@@@2@@std@@@std@@@1@@Z 00416dc0 f i DraggingDemo.obj
 0001:00015e00       ??0?$_Tree_unchecked_const_iterator@V?$_Tree_val@U?$_Tree_simple_types@U?$pair@$$CBV?$basic_string@DU?$char_traits@D@std@@V?$allocator@D@2@@std@@V?$weak_ptr@VRawImageData@@@2@@std@@@std@@@std@@U_Iterator_base0@2@@std@@QAE@PAU?$_Tree_node@U?$pair@$$CBV?$basic_string@DU?$char_traits@D@std@@V?$allocator@D@2@@std@@V?$weak_ptr@VRawImageData@@@2@@std@@PAX@1@PBV?$_Tree_val@U?$_Tree_simple_types@U?$pair@$$CBV?$basic_string@DU?$char_traits@D@std@@V?$allocator@D@2@@std@@V?$weak_ptr@VRawImageData@@@2@@std@@@std@@@1@@Z 00416e00 f i DraggingDemo.obj
 0001:00015e30       ??0?$_Tree_unchecked_const_iterator@V?$_Tree_val@U?$_Tree_simple_types@U?$pair@$$CBV?$basic_string@DU?$char_traits@D@std@@V?$allocator@D@2@@std@@V?$weak_ptr@VRawImageData@@@2@@std@@@std@@@std@@U_Iterator_base12@2@@std@@QAE@$$QAV01@@Z 00416e30 f i DraggingDemo.obj
 0001:00015e70       ??0?$_Tree_unchecked_const_iterator@V?$_Tree_val@U?$_Tree_simple_types@U?$pair@$$CBV?$basic_string@DU?$char_traits@D@std@@V?$allocator@D@2@@std@@V?$weak_ptr@VRawImageData@@@2@@std@@@std@@@std@@U_Iterator_base12@2@@std@@QAE@ABV01@@Z 00416e70 f i DraggingDemo.obj
 0001:00015eb0       ??0?$_Tree_unchecked_const_iterator@V?$_Tree_val@U?$_Tree_simple_types@U?$pair@$$CBV?$basic_string@DU?$char_traits@D@std@@V?$allocator@D@2@@std@@V?$weak_ptr@VRawImageData@@@2@@std@@@std@@@std@@U_Iterator_base12@2@@std@@QAE@PAU?$_Tree_node@U?$pair@$$CBV?$basic_string@DU?$char_traits@D@std@@V?$allocator@D@2@@std@@V?$weak_ptr@VRawImageData@@@2@@std@@PAX@1@PBV?$_Tree_val@U?$_Tree_simple_types@U?$pair@$$CBV?$basic_string@DU?$char_traits@D@std@@V?$allocator@D@2@@std@@V?$weak_ptr@VRawImageData@@@2@@std@@@std@@@1@@Z 00416eb0 f i DraggingDemo.obj
 0001:00015ef0       ??0?$_Tree_unchecked_iterator@V?$_Tree_val@U?$_Tree_simple_types@U?$pair@$$CBV?$basic_string@DU?$char_traits@D@std@@V?$allocator@D@2@@std@@V?$weak_ptr@VRawImageData@@@2@@std@@@std@@@std@@@std@@QAE@PAU?$_Tree_node@U?$pair@$$CBV?$basic_string@DU?$char_traits@D@std@@V?$allocator@D@2@@std@@V?$weak_ptr@VRawImageData@@@2@@std@@PAX@1@PBV?$_Tree_val@U?$_Tree_simple_types@U?$pair@$$CBV?$basic_string@DU?$char_traits@D@std@@V?$allocator@D@2@@std@@V?$weak_ptr@VRawImageData@@@2@@std@@@std@@@1@@Z 00416ef0 f i DraggingDemo.obj
 0001:00015f20       ??0?$_Tree_val@U?$_Tree_simple_types@U?$pair@$$CBV?$basic_string@DU?$char_traits@D@std@@V?$allocator@D@2@@std@@V?$shared_ptr@VRawImageData@@@2@@std@@@std@@@std@@QAE@XZ 00416f20 f i DraggingDemo.obj
 0001:00015f60       ??0?$_Tree_val@U?$_Tree_simple_types@U?$pair@$$CBV?$basic_string@DU?$char_traits@D@std@@V?$allocator@D@2@@std@@V?$weak_ptr@VRawImageData@@@2@@std@@@std@@@std@@QAE@XZ 00416f60 f i DraggingDemo.obj
 0001:00015fa0       ??0?$allocator@U?$_Tree_node@U?$pair@$$CBV?$basic_string@DU?$char_traits@D@std@@V?$allocator@D@2@@std@@V?$shared_ptr@VRawImageData@@@2@@std@@PAX@std@@@std@@QAE@XZ 00416fa0 f i DraggingDemo.obj
 0001:00015fc0       ??0?$allocator@U?$_Tree_node@U?$pair@$$CBV?$basic_string@DU?$char_traits@D@std@@V?$allocator@D@2@@std@@V?$weak_ptr@VRawImageData@@@2@@std@@PAX@std@@@std@@QAE@XZ 00416fc0 f i DraggingDemo.obj
 0001:00015fe0       ??0?$basic_string@DU?$char_traits@D@std@@V?$allocator@D@2@@std@@QAE@$$QAV01@@Z 00416fe0 f i DraggingDemo.obj
 0001:00016090       ??0?$basic_string@DU?$char_traits@D@std@@V?$allocator@D@2@@std@@QAE@ABV01@@Z 00417090 f i DraggingDemo.obj
 0001:00016180       ??0?$map@V?$basic_string@DU?$char_traits@D@std@@V?$allocator@D@2@@std@@V?$shared_ptr@VRawImageData@@@2@U?$less@V?$basic_string@DU?$char_traits@D@std@@V?$allocator@D@2@@std@@@2@V?$allocator@U?$pair@$$CBV?$basic_string@DU?$char_traits@D@std@@V?$allocator@D@2@@std@@V?$shared_ptr@VRawImageData@@@2@@std@@@2@@std@@QAE@XZ 00417180 f i DraggingDemo.obj
 0001:000161b0       ??0?$map@V?$basic_string@DU?$char_traits@D@std@@V?$allocator@D@2@@std@@V?$weak_ptr@VRawImageData@@@2@U?$less@V?$basic_string@DU?$char_traits@D@std@@V?$allocator@D@2@@std@@@2@V?$allocator@U?$pair@$$CBV?$basic_string@DU?$char_traits@D@std@@V?$allocator@D@2@@std@@V?$weak_ptr@VRawImageData@@@2@@std@@@2@@std@@QAE@XZ 004171b0 f i DraggingDemo.obj
 0001:000161e0       ??0?$shared_ptr@VRawImageData@@@std@@QAE@$$QAV01@@Z 004171e0 f i DraggingDemo.obj
 0001:00016220       ??0?$shared_ptr@VRawImageData@@@std@@QAE@$$T@Z 00417220 f i DraggingDemo.obj
 0001:00016240       ??0?$shared_ptr@VRawImageData@@@std@@QAE@ABV01@@Z 00417240 f i DraggingDemo.obj
 0001:00016270       ??0?$shared_ptr@VRawImageData@@@std@@QAE@XZ 00417270 f i DraggingDemo.obj
 0001:00016290       ??0?$weak_ptr@VRawImageData@@@std@@QAE@$$QAV01@@Z 00417290 f i DraggingDemo.obj
 0001:000162d0       ??0?$weak_ptr@VRawImageData@@@std@@QAE@ABV01@@Z 004172d0 f i DraggingDemo.obj
 0001:00016300       ??0DragableBaseClassObject@@QAE@HHPAVBaseEngine@@HH_N@Z 00417300 f i DraggingDemo.obj
 0001:00016360       ??0DragableBaseClassObject@@QAE@PAVBaseEngine@@HH_N@Z 00417360 f i DraggingDemo.obj
 0001:000163b0       ??0DragableImageObject@@QAE@HHPAVBaseEngine@@V?$basic_string@DU?$char_traits@D@std@@V?$allocator@D@2@@std@@_N2@Z 004173b0 f i DraggingDemo.obj
 0001:00016550       ??0DragableObject@@QAE@HHPAVBaseEngine@@HH_N1@Z 00417550 f i DraggingDemo.obj
 0001:00016600       ??0DragableObject@@QAE@PAVBaseEngine@@HH_N1@Z 00417600 f i DraggingDemo.obj
 0001:000166b0       ??0ImageManager@@QAE@XZ    004176b0 f i DraggingDemo.obj
 0001:00016730       ??0ImageObject@@QAE@HHPAVBaseEngine@@V?$basic_string@DU?$char_traits@D@std@@V?$allocator@D@2@@std@@_N2@Z 00417730 f i DraggingDemo.obj
 0001:000168c0       ??0RawImageData@@QAE@V?$basic_string@DU?$char_traits@D@std@@V?$allocator@D@2@@std@@@Z 004178c0 f i DraggingDemo.obj
 0001:00016970       ??0_Ref_count_base@std@@IAE@XZ 00417970 f i DraggingDemo.obj
 0001:000169a0       ??1?$_Alloc_construct_ptr@V?$allocator@U?$_Tree_node@U?$pair@$$CBV?$basic_string@DU?$char_traits@D@std@@V?$allocator@D@2@@std@@V?$shared_ptr@VRawImageData@@@2@@std@@PAX@std@@@std@@@std@@QAE@XZ 004179a0 f i DraggingDemo.obj
 0001:00016a10       ??1?$_Alloc_construct_ptr@V?$allocator@U?$_Tree_node@U?$pair@$$CBV?$basic_string@DU?$char_traits@D@std@@V?$allocator@D@2@@std@@V?$weak_ptr@VRawImageData@@@2@@std@@PAX@std@@@std@@@std@@QAE@XZ 00417a10 f i DraggingDemo.obj
 0001:00016a80       ??1?$_Ref_count@VRawImageData@@@std@@UAE@XZ 00417a80 f i DraggingDemo.obj
 0001:00016aa0       ??1?$_Temporary_owner@VRawImageData@@@std@@QAE@XZ 00417aa0 f i DraggingDemo.obj
 0001:00016ae0       ??1?$_Tree@V?$_Tmap_traits@V?$basic_string@DU?$char_traits@D@std@@V?$allocator@D@2@@std@@V?$shared_ptr@VRawImageData@@@2@U?$less@V?$basic_string@DU?$char_traits@D@std@@V?$allocator@D@2@@std@@@2@V?$allocator@U?$pair@$$CBV?$basic_string@DU?$char_traits@D@std@@V?$allocator@D@2@@std@@V?$shared_ptr@VRawImageData@@@2@@std@@@2@$0A@@std@@@std@@QAE@XZ 00417ae0 f i DraggingDemo.obj
 0001:00016b50       ??1?$_Tree@V?$_Tmap_traits@V?$basic_string@DU?$char_traits@D@std@@V?$allocator@D@2@@std@@V?$weak_ptr@VRawImageData@@@2@U?$less@V?$basic_string@DU?$char_traits@D@std@@V?$allocator@D@2@@std@@@2@V?$allocator@U?$pair@$$CBV?$basic_string@DU?$char_traits@D@std@@V?$allocator@D@2@@std@@V?$weak_ptr@VRawImageData@@@2@@std@@@2@$0A@@std@@@std@@QAE@XZ 00417b50 f i DraggingDemo.obj
 0001:00016bc0       ??1?$_Tree_const_iterator@V?$_Tree_val@U?$_Tree_simple_types@U?$pair@$$CBV?$basic_string@DU?$char_traits@D@std@@V?$allocator@D@2@@std@@V?$shared_ptr@VRawImageData@@@2@@std@@@std@@@std@@@std@@QAE@XZ 00417bc0 f i DraggingDemo.obj
 0001:00016be0       ??1?$_Tree_const_iterator@V?$_Tree_val@U?$_Tree_simple_types@U?$pair@$$CBV?$basic_string@DU?$char_traits@D@std@@V?$allocator@D@2@@std@@V?$weak_ptr@VRawImageData@@@2@@std@@@std@@@std@@@std@@QAE@XZ 00417be0 f i DraggingDemo.obj
 0001:00016c00       ??1?$_Tree_iterator@V?$_Tree_val@U?$_Tree_simple_types@U?$pair@$$CBV?$basic_string@DU?$char_traits@D@std@@V?$allocator@D@2@@std@@V?$shared_ptr@VRawImageData@@@2@@std@@@std@@@std@@@std@@QAE@XZ 00417c00 f i DraggingDemo.obj
 0001:00016c20       ??1?$_Tree_iterator@V?$_Tree_val@U?$_Tree_simple_types@U?$pair@$$CBV?$basic_string@DU?$char_traits@D@std@@V?$allocator@D@2@@std@@V?$weak_ptr@VRawImageData@@@2@@std@@@std@@@std@@@std@@QAE@XZ 00417c20 f i DraggingDemo.obj
 0001:00016c40       ??1?$_Tree_temp_node@V?$allocator@U?$_Tree_node@U?$pair@$$CBV?$basic_string@DU?$char_traits@D@std@@V?$allocator@D@2@@std@@V?$shared_ptr@VRawImageData@@@2@@std@@PAX@std@@@std@@@std@@QAE@XZ 00417c40 f i DraggingDemo.obj
 0001:00016d00       ??1?$_Tree_temp_node@V?$allocator@U?$_Tree_node@U?$pair@$$CBV?$basic_string@DU?$char_traits@D@std@@V?$allocator@D@2@@std@@V?$weak_ptr@VRawImageData@@@2@@std@@PAX@std@@@std@@@std@@QAE@XZ 00417d00 f i DraggingDemo.obj
 0001:00016dc0       ??1?$_Tree_temp_node_alloc@V?$allocator@U?$_Tree_node@U?$pair@$$CBV?$basic_string@DU?$char_traits@D@std@@V?$allocator@D@2@@std@@V?$shared_ptr@VRawImageData@@@2@@std@@PAX@std@@@std@@@std@@QAE@XZ 00417dc0 f i DraggingDemo.obj
 0001:00016de0       ??1?$_Tree_temp_node_alloc@V?$allocator@U?$_Tree_node@U?$pair@$$CBV?$basic_string@DU?$char_traits@D@std@@V?$allocator@D@2@@std@@V?$weak_ptr@VRawImageData@@@2@@std@@PAX@std@@@std@@@std@@QAE@XZ 00417de0 f i DraggingDemo.obj
 0001:00016e00       ??1?$_Tree_unchecked_const_iterator@V?$_Tree_val@U?$_Tree_simple_types@U?$pair@$$CBV?$basic_string@DU?$char_traits@D@std@@V?$allocator@D@2@@std@@V?$shared_ptr@VRawImageData@@@2@@std@@@std@@@std@@U_Iterator_base12@2@@std@@QAE@XZ 00417e00 f i DraggingDemo.obj
 0001:00016e20       ??1?$_Tree_unchecked_const_iterator@V?$_Tree_val@U?$_Tree_simple_types@U?$pair@$$CBV?$basic_string@DU?$char_traits@D@std@@V?$allocator@D@2@@std@@V?$weak_ptr@VRawImageData@@@2@@std@@@std@@@std@@U_Iterator_base12@2@@std@@QAE@XZ 00417e20 f i DraggingDemo.obj
 0001:00016e40       ??1?$map@V?$basic_string@DU?$char_traits@D@std@@V?$allocator@D@2@@std@@V?$shared_ptr@VRawImageData@@@2@U?$less@V?$basic_string@DU?$char_traits@D@std@@V?$allocator@D@2@@std@@@2@V?$allocator@U?$pair@$$CBV?$basic_string@DU?$char_traits@D@std@@V?$allocator@D@2@@std@@V?$shared_ptr@VRawImageData@@@2@@std@@@2@@std@@QAE@XZ 00417e40 f i DraggingDemo.obj
 0001:00016e60       ??1?$map@V?$basic_string@DU?$char_traits@D@std@@V?$allocator@D@2@@std@@V?$weak_ptr@VRawImageData@@@2@U?$less@V?$basic_string@DU?$char_traits@D@std@@V?$allocator@D@2@@std@@@2@V?$allocator@U?$pair@$$CBV?$basic_string@DU?$char_traits@D@std@@V?$allocator@D@2@@std@@V?$weak_ptr@VRawImageData@@@2@@std@@@2@@std@@QAE@XZ 00417e60 f i DraggingDemo.obj
 0001:00016e80       ??1?$pair@$$CBV?$basic_string@DU?$char_traits@D@std@@V?$allocator@D@2@@std@@V?$shared_ptr@VRawImageData@@@2@@std@@QAE@XZ 00417e80 f i DraggingDemo.obj
 0001:00016eb0       ??1?$pair@$$CBV?$basic_string@DU?$char_traits@D@std@@V?$allocator@D@2@@std@@V?$weak_ptr@VRawImageData@@@2@@std@@QAE@XZ 00417eb0 f i DraggingDemo.obj
 0001:00016ee0       ??1?$pair@V?$_Tree_iterator@V?$_Tree_val@U?$_Tree_simple_types@U?$pair@$$CBV?$basic_string@DU?$char_traits@D@std@@V?$allocator@D@2@@std@@V?$shared_ptr@VRawImageData@@@2@@std@@@std@@@std@@@std@@_N@std@@QAE@XZ 00417ee0 f i DraggingDemo.obj
 0001:00016f00       ??1?$pair@V?$_Tree_iterator@V?$_Tree_val@U?$_Tree_simple_types@U?$pair@$$CBV?$basic_string@DU?$char_traits@D@std@@V?$allocator@D@2@@std@@V?$weak_ptr@VRawImageData@@@2@@std@@@std@@@std@@@std@@_N@std@@QAE@XZ 00417f00 f i DraggingDemo.obj
 0001:00016f20       ??1?$pair@V?$basic_string@DU?$char_traits@D@std@@V?$allocator@D@2@@std@@V?$shared_ptr@VRawImageData@@@2@@std@@QAE@XZ 00417f20 f i DraggingDemo.obj
 0001:00016f50       ??1?$pair@V?$basic_string@DU?$char_traits@D@std@@V?$allocator@D@2@@std@@V?$weak_ptr@VRawImageData@@@2@@std@@QAE@XZ 00417f50 f i DraggingDemo.obj
 0001:00016f80       ??1?$weak_ptr@VRawImageData@@@std@@QAE@XZ 00417f80 f i DraggingDemo.obj
 0001:00016fa0       ??1DragableBaseClassObject@@UAE@XZ 00417fa0 f i DraggingDemo.obj
 0001:00016fc0       ??1DragableImageObject@@UAE@XZ 00417fc0 f i DraggingDemo.obj
 0001:00016ff0       ??1DragableObject@@UAE@XZ  00417ff0 f i DraggingDemo.obj
 0001:00017010       ??1ImageObject@@UAE@XZ     00418010 f i DraggingDemo.obj
 0001:00017040       ??1RawImageData@@QAE@XZ    00418040 f i DraggingDemo.obj
 0001:000170a0       ??1_Ref_count_base@std@@UAE@XZ 004180a0 f i DraggingDemo.obj
 0001:000170b0       ??8?$_Tree_const_iterator@V?$_Tree_val@U?$_Tree_simple_types@U?$pair@$$CBV?$basic_string@DU?$char_traits@D@std@@V?$allocator@D@2@@std@@V?$weak_ptr@VRawImageData@@@2@@std@@@std@@@std@@@std@@QBE_NABV01@@Z 004180b0 f i DraggingDemo.obj
 0001:00017170       ??9?$_Tree_const_iterator@V?$_Tree_val@U?$_Tree_simple_types@U?$pair@$$CBV?$basic_string@DU?$char_traits@D@std@@V?$allocator@D@2@@std@@V?$weak_ptr@VRawImageData@@@2@@std@@@std@@@std@@@std@@QBE_NABV01@@Z 00418170 f i DraggingDemo.obj
 0001:000171c0       ??A?$vector@PAVDisplayableObject@@V?$allocator@PAVDisplayableObject@@@std@@@std@@QAEAAPAVDisplayableObject@@I@Z 004181c0 f i DraggingDemo.obj
 0001:00017270       ??C?$_Tree_iterator@V?$_Tree_val@U?$_Tree_simple_types@U?$pair@$$CBV?$basic_string@DU?$char_traits@D@std@@V?$allocator@D@2@@std@@V?$weak_ptr@VRawImageData@@@2@@std@@@std@@@std@@@std@@QBEPAU?$pair@$$CBV?$basic_string@DU?$char_traits@D@std@@V?$allocator@D@2@@std@@V?$weak_ptr@VRawImageData@@@2@@1@XZ 00418270 f i DraggingDemo.obj
 0001:000172a0       ??D?$_Tree_const_iterator@V?$_Tree_val@U?$_Tree_simple_types@U?$pair@$$CBV?$basic_string@DU?$char_traits@D@std@@V?$allocator@D@2@@std@@V?$weak_ptr@VRawImageData@@@2@@std@@@std@@@std@@@std@@QBEABU?$pair@$$CBV?$basic_string@DU?$char_traits@D@std@@V?$allocator@D@2@@std@@V?$weak_ptr@VRawImageData@@@2@@1@XZ 004182a0 f i DraggingDemo.obj
 0001:000173b0       ??D?$_Tree_iterator@V?$_Tree_val@U?$_Tree_simple_types@U?$pair@$$CBV?$basic_string@DU?$char_traits@D@std@@V?$allocator@D@2@@std@@V?$weak_ptr@VRawImageData@@@2@@std@@@std@@@std@@@std@@QBEAAU?$pair@$$CBV?$basic_string@DU?$char_traits@D@std@@V?$allocator@D@2@@std@@V?$weak_ptr@VRawImageData@@@2@@1@XZ 004183b0 f i DraggingDemo.obj
 0001:000173d0       ??E?$_Tree_unchecked_const_iterator@V?$_Tree_val@U?$_Tree_simple_types@U?$pair@$$CBV?$basic_string@DU?$char_traits@D@std@@V?$allocator@D@2@@std@@V?$weak_ptr@VRawImageData@@@2@@std@@@std@@@std@@U_Iterator_base0@2@@std@@QAEAAV01@XZ 004183d0 f i DraggingDemo.obj
 0001:00017460       ??_E?$_Ref_count@VRawImageData@@@std@@UAEPAXI@Z 00418460 f i DraggingDemo.obj
 0001:00017460       ??_G?$_Ref_count@VRawImageData@@@std@@UAEPAXI@Z 00418460 f i DraggingDemo.obj
 0001:000174a0       ??_G?$pair@$$CBV?$basic_string@DU?$char_traits@D@std@@V?$allocator@D@2@@std@@V?$shared_ptr@VRawImageData@@@2@@std@@QAEPAXI@Z 004184a0 f i DraggingDemo.obj
 0001:000174e0       ??_G?$pair@$$CBV?$basic_string@DU?$char_traits@D@std@@V?$allocator@D@2@@std@@V?$weak_ptr@VRawImageData@@@2@@std@@QAEPAXI@Z 004184e0 f i DraggingDemo.obj
 0001:00017520       ??_EDragableBaseClassObject@@UAEPAXI@Z 00418520 f i DraggingDemo.obj
 0001:00017520       ??_GDragableBaseClassObject@@UAEPAXI@Z 00418520 f i DraggingDemo.obj
 0001:00017560       ??_EDragableImageObject@@UAEPAXI@Z 00418560 f i DraggingDemo.obj
 0001:00017560       ??_GDragableImageObject@@UAEPAXI@Z 00418560 f i DraggingDemo.obj
 0001:000175a0       ??_EDragableObject@@UAEPAXI@Z 004185a0 f i DraggingDemo.obj
 0001:000175a0       ??_GDragableObject@@UAEPAXI@Z 004185a0 f i DraggingDemo.obj
 0001:000175e0       ??_GImageObject@@UAEPAXI@Z 004185e0 f i DraggingDemo.obj
 0001:000175e0       ??_EImageObject@@UAEPAXI@Z 004185e0 f i DraggingDemo.obj
 0001:00017620       ??_GRawImageData@@QAEPAXI@Z 00418620 f i DraggingDemo.obj
 0001:00017660       ?_Adopt@_Iterator_base0@std@@QAEXPBX@Z 00418660 f i DraggingDemo.obj
 0001:00017670       ?_Alloc_sentinel_and_proxy@?$_Tree@V?$_Tmap_traits@V?$basic_string@DU?$char_traits@D@std@@V?$allocator@D@2@@std@@V?$shared_ptr@VRawImageData@@@2@U?$less@V?$basic_string@DU?$char_traits@D@std@@V?$allocator@D@2@@std@@@2@V?$allocator@U?$pair@$$CBV?$basic_string@DU?$char_traits@D@std@@V?$allocator@D@2@@std@@V?$shared_ptr@VRawImageData@@@2@@std@@@2@$0A@@std@@@std@@IAEXXZ 00418670 f i DraggingDemo.obj
 0001:00017740       ?_Alloc_sentinel_and_proxy@?$_Tree@V?$_Tmap_traits@V?$basic_string@DU?$char_traits@D@std@@V?$allocator@D@2@@std@@V?$weak_ptr@VRawImageData@@@2@U?$less@V?$basic_string@DU?$char_traits@D@std@@V?$allocator@D@2@@std@@@2@V?$allocator@U?$pair@$$CBV?$basic_string@DU?$char_traits@D@std@@V?$allocator@D@2@@std@@V?$weak_ptr@VRawImageData@@@2@@std@@@2@$0A@@std@@@std@@IAEXXZ 00418740 f i DraggingDemo.obj
 0001:00017810       ?_Allocate@?$_Alloc_construct_ptr@V?$allocator@U?$_Tree_node@U?$pair@$$CBV?$basic_string@DU?$char_traits@D@std@@V?$allocator@D@2@@std@@V?$shared_ptr@VRawImageData@@@2@@std@@PAX@std@@@std@@@std@@QAEXXZ 00418810 f i DraggingDemo.obj
 0001:00017840       ?_Allocate@?$_Alloc_construct_ptr@V?$allocator@U?$_Tree_node@U?$pair@$$CBV?$basic_string@DU?$char_traits@D@std@@V?$allocator@D@2@@std@@V?$weak_ptr@VRawImageData@@@2@@std@@PAX@std@@@std@@@std@@QAEXXZ 00418840 f i DraggingDemo.obj
 0001:00017870       ?_Calculate_growth@?$vector@PAVDisplayableObject@@V?$allocator@PAVDisplayableObject@@@std@@@std@@ABEII@Z 00418870 f i DraggingDemo.obj
 0001:000178e0       ?_Change_array@?$vector@PAVDisplayableObject@@V?$allocator@PAVDisplayableObject@@@std@@@std@@AAEXQAPAVDisplayableObject@@II@Z 004188e0 f i DraggingDemo.obj
 0001:000179b0       ?_Check_grow_by_1@?$_Tree@V?$_Tmap_traits@V?$basic_string@DU?$char_traits@D@std@@V?$allocator@D@2@@std@@V?$shared_ptr@VRawImageData@@@2@U?$less@V?$basic_string@DU?$char_traits@D@std@@V?$allocator@D@2@@std@@@2@V?$allocator@U?$pair@$$CBV?$basic_string@DU?$char_traits@D@std@@V?$allocator@D@2@@std@@V?$shared_ptr@VRawImageData@@@2@@std@@@2@$0A@@std@@@std@@IAEXXZ 004189b0 f i DraggingDemo.obj
 0001:000179f0       ?_Check_grow_by_1@?$_Tree@V?$_Tmap_traits@V?$basic_string@DU?$char_traits@D@std@@V?$allocator@D@2@@std@@V?$weak_ptr@VRawImageData@@@2@U?$less@V?$basic_string@DU?$char_traits@D@std@@V?$allocator@D@2@@std@@@2@V?$allocator@U?$pair@$$CBV?$basic_string@DU?$char_traits@D@std@@V?$allocator@D@2@@std@@V?$weak_ptr@VRawImageData@@@2@@std@@@2@$0A@@std@@@std@@IAEXXZ 004189f0 f i DraggingDemo.obj
 0001:00017a30       ?_Construct_lv_contents@?$basic_string@DU?$char_traits@D@std@@V?$allocator@D@2@@std@@AAEXABV12@@Z 00418a30 f i DraggingDemo.obj
 0001:00017b60       ?_Decwref@?$_Ptr_base@VRawImageData@@@std@@IAEXXZ 00418b60 f i DraggingDemo.obj
 0001:00017b90       ?_Delete_this@?$_Ref_count@VRawImageData@@@std@@EAEXXZ 00418b90 f i DraggingDemo.obj
 0001:00017be0       ?_Destroy@?$_Ref_count@VRawImageData@@@std@@EAEXXZ 00418be0 f i DraggingDemo.obj
 0001:00017c20       ?_Destroy@?$vector@PAVDisplayableObject@@V?$allocator@PAVDisplayableObject@@@std@@@std@@AAEXPAPAVDisplayableObject@@0@Z 00418c20 f i DraggingDemo.obj
 0001:00017c50       ?_Erase_unchecked@?$_Tree@V?$_Tmap_traits@V?$basic_string@DU?$char_traits@D@std@@V?$allocator@D@2@@std@@V?$weak_ptr@VRawImageData@@@2@U?$less@V?$basic_string@DU?$char_traits@D@std@@V?$allocator@D@2@@std@@@2@V?$allocator@U?$pair@$$CBV?$basic_string@DU?$char_traits@D@std@@V?$allocator@D@2@@std@@V?$weak_ptr@VRawImageData@@@2@@std@@@2@$0A@@std@@@std@@AAEPAU?$_Tree_node@U?$pair@$$CBV?$basic_string@DU?$char_traits@D@std@@V?$allocator@D@2@@std@@V?$weak_ptr@VRawImageData@@@2@@std@@PAX@2@V?$_Tree_unchecked_const_iterator@V?$_Tree_val@U?$_Tree_simple_types@U?$pair@$$CBV?$basic_string@DU?$char_traits@D@std@@V?$allocator@D@2@@std@@V?$weak_ptr@VRawImageData@@@2@@std@@@std@@@std@@U_Iterator_base0@2@@2@@Z 00418c50 f i DraggingDemo.obj
 0001:00017d00       ?_Extract@?$_In_place_key_extract_map@V?$basic_string@DU?$char_traits@D@std@@V?$allocator@D@2@@std@@U?$pair@V?$basic_string@DU?$char_traits@D@std@@V?$allocator@D@2@@std@@V?$shared_ptr@VRawImageData@@@2@@2@@std@@SAABV?$basic_string@DU?$char_traits@D@std@@V?$allocator@D@2@@2@ABU?$pair@V?$basic_string@DU?$char_traits@D@std@@V?$allocator@D@2@@std@@V?$shared_ptr@VRawImageData@@@2@@2@@Z 00418d00 f i DraggingDemo.obj
 0001:00017d10       ?_Extract@?$_In_place_key_extract_map@V?$basic_string@DU?$char_traits@D@std@@V?$allocator@D@2@@std@@U?$pair@V?$basic_string@DU?$char_traits@D@std@@V?$allocator@D@2@@std@@V?$weak_ptr@VRawImageData@@@2@@2@@std@@SAABV?$basic_string@DU?$char_traits@D@std@@V?$allocator@D@2@@2@ABU?$pair@V?$basic_string@DU?$char_traits@D@std@@V?$allocator@D@2@@std@@V?$weak_ptr@VRawImageData@@@2@@2@@Z 00418d10 f i DraggingDemo.obj
 0001:00017d20       ?_Extract@?$_Tree_val@U?$_Tree_simple_types@U?$pair@$$CBV?$basic_string@DU?$char_traits@D@std@@V?$allocator@D@2@@std@@V?$weak_ptr@VRawImageData@@@2@@std@@@std@@@std@@QAEPAU?$_Tree_node@U?$pair@$$CBV?$basic_string@DU?$char_traits@D@std@@V?$allocator@D@2@@std@@V?$weak_ptr@VRawImageData@@@2@@std@@PAX@2@V?$_Tree_unchecked_const_iterator@V?$_Tree_val@U?$_Tree_simple_types@U?$pair@$$CBV?$basic_string@DU?$char_traits@D@std@@V?$allocator@D@2@@std@@V?$weak_ptr@VRawImageData@@@2@@std@@@std@@@std@@U_Iterator_base0@2@@2@@Z 00418d20 f i DraggingDemo.obj
 0001:00018290       ?_Get_deleter@_Ref_count_base@std@@UBEPAXABVtype_info@@@Z 00419290 f i DraggingDemo.obj
 0001:000182b0       ?_Get_first@?$_Compressed_pair@U?$less@V?$basic_string@DU?$char_traits@D@std@@V?$allocator@D@2@@std@@@std@@V?$_Compressed_pair@V?$allocator@U?$_Tree_node@U?$pair@$$CBV?$basic_string@DU?$char_traits@D@std@@V?$allocator@D@2@@std@@V?$shared_ptr@VRawImageData@@@2@@std@@PAX@std@@@std@@V?$_Tree_val@U?$_Tree_simple_types@U?$pair@$$CBV?$basic_string@DU?$char_traits@D@std@@V?$allocator@D@2@@std@@V?$shared_ptr@VRawImageData@@@2@@std@@@std@@@2@$00@2@$00@std@@QBEABU?$less@V?$basic_string@DU?$char_traits@D@std@@V?$allocator@D@2@@std@@@2@XZ 004192b0 f i DraggingDemo.obj
 0001:000182d0       ?_Get_first@?$_Compressed_pair@U?$less@V?$basic_string@DU?$char_traits@D@std@@V?$allocator@D@2@@std@@@std@@V?$_Compressed_pair@V?$allocator@U?$_Tree_node@U?$pair@$$CBV?$basic_string@DU?$char_traits@D@std@@V?$allocator@D@2@@std@@V?$weak_ptr@VRawImageData@@@2@@std@@PAX@std@@@std@@V?$_Tree_val@U?$_Tree_simple_types@U?$pair@$$CBV?$basic_string@DU?$char_traits@D@std@@V?$allocator@D@2@@std@@V?$weak_ptr@VRawImageData@@@2@@std@@@std@@@2@$00@2@$00@std@@QBEABU?$less@V?$basic_string@DU?$char_traits@D@std@@V?$allocator@D@2@@std@@@2@XZ 004192d0 f i DraggingDemo.obj
 0001:000182f0       ?_Get_first@?$_Compressed_pair@V?$allocator@PAVDisplayableObject@@@std@@V?$_Vector_val@U?$_Simple_types@PAVDisplayableObject@@@std@@@2@$00@std@@QAEAAV?$allocator@PAVDisplayableObject@@@2@XZ 004192f0 f i DraggingDemo.obj
 0001:00018310       ?_Get_first@?$_Compressed_pair@V?$allocator@PAVDisplayableObject@@@std@@V?$_Vector_val@U?$_Simple_types@PAVDisplayableObject@@@std@@@2@$00@std@@QBEABV?$allocator@PAVDisplayableObject@@@2@XZ 00419310 f i DraggingDemo.obj
 0001:00018330       ?_Get_first@?$_Compressed_pair@V?$allocator@U?$_Tree_node@U?$pair@$$CBV?$basic_string@DU?$char_traits@D@std@@V?$allocator@D@2@@std@@V?$shared_ptr@VRawImageData@@@2@@std@@PAX@std@@@std@@V?$_Tree_val@U?$_Tree_simple_types@U?$pair@$$CBV?$basic_string@DU?$char_traits@D@std@@V?$allocator@D@2@@std@@V?$shared_ptr@VRawImageData@@@2@@std@@@std@@@2@$00@std@@QAEAAV?$allocator@U?$_Tree_node@U?$pair@$$CBV?$basic_string@DU?$char_traits@D@std@@V?$allocator@D@2@@std@@V?$shared_ptr@VRawImageData@@@2@@std@@PAX@std@@@2@XZ 00419330 f i DraggingDemo.obj
 0001:00018350       ?_Get_first@?$_Compressed_pair@V?$allocator@U?$_Tree_node@U?$pair@$$CBV?$basic_string@DU?$char_traits@D@std@@V?$allocator@D@2@@std@@V?$shared_ptr@VRawImageData@@@2@@std@@PAX@std@@@std@@V?$_Tree_val@U?$_Tree_simple_types@U?$pair@$$CBV?$basic_string@DU?$char_traits@D@std@@V?$allocator@D@2@@std@@V?$shared_ptr@VRawImageData@@@2@@std@@@std@@@2@$00@std@@QBEABV?$allocator@U?$_Tree_node@U?$pair@$$CBV?$basic_string@DU?$char_traits@D@std@@V?$allocator@D@2@@std@@V?$shared_ptr@VRawImageData@@@2@@std@@PAX@std@@@2@XZ 00419350 f i DraggingDemo.obj
 0001:00018370       ?_Get_first@?$_Compressed_pair@V?$allocator@U?$_Tree_node@U?$pair@$$CBV?$basic_string@DU?$char_traits@D@std@@V?$allocator@D@2@@std@@V?$weak_ptr@VRawImageData@@@2@@std@@PAX@std@@@std@@V?$_Tree_val@U?$_Tree_simple_types@U?$pair@$$CBV?$basic_string@DU?$char_traits@D@std@@V?$allocator@D@2@@std@@V?$weak_ptr@VRawImageData@@@2@@std@@@std@@@2@$00@std@@QAEAAV?$allocator@U?$_Tree_node@U?$pair@$$CBV?$basic_string@DU?$char_traits@D@std@@V?$allocator@D@2@@std@@V?$weak_ptr@VRawImageData@@@2@@std@@PAX@std@@@2@XZ 00419370 f i DraggingDemo.obj
 0001:00018390       ?_Get_first@?$_Compressed_pair@V?$allocator@U?$_Tree_node@U?$pair@$$CBV?$basic_string@DU?$char_traits@D@std@@V?$allocator@D@2@@std@@V?$weak_ptr@VRawImageData@@@2@@std@@PAX@std@@@std@@V?$_Tree_val@U?$_Tree_simple_types@U?$pair@$$CBV?$basic_string@DU?$char_traits@D@std@@V?$allocator@D@2@@std@@V?$weak_ptr@VRawImageData@@@2@@std@@@std@@@2@$00@std@@QBEABV?$allocator@U?$_Tree_node@U?$pair@$$CBV?$basic_string@DU?$char_traits@D@std@@V?$allocator@D@2@@std@@V?$weak_ptr@VRawImageData@@@2@@std@@PAX@std@@@2@XZ 00419390 f i DraggingDemo.obj
 0001:000183b0       ?_Get_scary@?$_Tree@V?$_Tmap_traits@V?$basic_string@DU?$char_traits@D@std@@V?$allocator@D@2@@std@@V?$shared_ptr@VRawImageData@@@2@U?$less@V?$basic_string@DU?$char_traits@D@std@@V?$allocator@D@2@@std@@@2@V?$allocator@U?$pair@$$CBV?$basic_string@DU?$char_traits@D@std@@V?$allocator@D@2@@std@@V?$shared_ptr@VRawImageData@@@2@@std@@@2@$0A@@std@@@std@@IAEPAV?$_Tree_val@U?$_Tree_simple_types@U?$pair@$$CBV?$basic_string@DU?$char_traits@D@std@@V?$allocator@D@2@@std@@V?$shared_ptr@VRawImageData@@@2@@std@@@std@@@2@XZ 004193b0 f i DraggingDemo.obj
 0001:000183d0       ?_Get_scary@?$_Tree@V?$_Tmap_traits@V?$basic_string@DU?$char_traits@D@std@@V?$allocator@D@2@@std@@V?$shared_ptr@VRawImageData@@@2@U?$less@V?$basic_string@DU?$char_traits@D@std@@V?$allocator@D@2@@std@@@2@V?$allocator@U?$pair@$$CBV?$basic_string@DU?$char_traits@D@std@@V?$allocator@D@2@@std@@V?$shared_ptr@VRawImageData@@@2@@std@@@2@$0A@@std@@@std@@IBEPBV?$_Tree_val@U?$_Tree_simple_types@U?$pair@$$CBV?$basic_string@DU?$char_traits@D@std@@V?$allocator@D@2@@std@@V?$shared_ptr@VRawImageData@@@2@@std@@@std@@@2@XZ 004193d0 f i DraggingDemo.obj
 0001:000183f0       ?_Get_scary@?$_Tree@V?$_Tmap_traits@V?$basic_string@DU?$char_traits@D@std@@V?$allocator@D@2@@std@@V?$weak_ptr@VRawImageData@@@2@U?$less@V?$basic_string@DU?$char_traits@D@std@@V?$allocator@D@2@@std@@@2@V?$allocator@U?$pair@$$CBV?$basic_string@DU?$char_traits@D@std@@V?$allocator@D@2@@std@@V?$weak_ptr@VRawImageData@@@2@@std@@@2@$0A@@std@@@std@@IAEPAV?$_Tree_val@U?$_Tree_simple_types@U?$pair@$$CBV?$basic_string@DU?$char_traits@D@std@@V?$allocator@D@2@@std@@V?$weak_ptr@VRawImageData@@@2@@std@@@std@@@2@XZ 004193f0 f i DraggingDemo.obj
 0001:00018410       ?_Get_scary@?$_Tree@V?$_Tmap_traits@V?$basic_string@DU?$char_traits@D@std@@V?$allocator@D@2@@std@@V?$weak_ptr@VRawImageData@@@2@U?$less@V?$basic_string@DU?$char_traits@D@std@@V?$allocator@D@2@@std@@@2@V?$allocator@U?$pair@$$CBV?$basic_string@DU?$char_traits@D@std@@V?$allocator@D@2@@std@@V?$weak_ptr@VRawImageData@@@2@@std@@@2@$0A@@std@@@std@@IBEPBV?$_Tree_val@U?$_Tree_simple_types@U?$pair@$$CBV?$basic_string@DU?$char_traits@D@std@@V?$allocator@D@2@@std@@V?$weak_ptr@VRawImageData@@@2@@std@@@std@@@2@XZ 00419410 f i DraggingDemo.obj
 0001:00018430       ?_Getal@?$_Tree@V?$_Tmap_traits@V?$basic_string@DU?$char_traits@D@std@@V?$allocator@D@2@@std@@V?$shared_ptr@VRawImageData@@@2@U?$less@V?$basic_string@DU?$char_traits@D@std@@V?$allocator@D@2@@std@@@2@V?$allocator@U?$pair@$$CBV?$basic_string@DU?$char_traits@D@std@@V?$allocator@D@2@@std@@V?$shared_ptr@VRawImageData@@@2@@std@@@2@$0A@@std@@@std@@IAEAAV?$allocator@U?$_Tree_node@U?$pair@$$CBV?$basic_string@DU?$char_traits@D@std@@V?$allocator@D@2@@std@@V?$shared_ptr@VRawImageData@@@2@@std@@PAX@std@@@2@XZ 00419430 f i DraggingDemo.obj
 0001:00018450       ?_Getal@?$_Tree@V?$_Tmap_traits@V?$basic_string@DU?$char_traits@D@std@@V?$allocator@D@2@@std@@V?$shared_ptr@VRawImageData@@@2@U?$less@V?$basic_string@DU?$char_traits@D@std@@V?$allocator@D@2@@std@@@2@V?$allocator@U?$pair@$$CBV?$basic_string@DU?$char_traits@D@std@@V?$allocator@D@2@@std@@V?$shared_ptr@VRawImageData@@@2@@std@@@2@$0A@@std@@@std@@IBEABV?$allocator@U?$_Tree_node@U?$pair@$$CBV?$basic_string@DU?$char_traits@D@std@@V?$allocator@D@2@@std@@V?$shared_ptr@VRawImageData@@@2@@std@@PAX@std@@@2@XZ 00419450 f i DraggingDemo.obj
 0001:00018470       ?_Getal@?$_Tree@V?$_Tmap_traits@V?$basic_string@DU?$char_traits@D@std@@V?$allocator@D@2@@std@@V?$weak_ptr@VRawImageData@@@2@U?$less@V?$basic_string@DU?$char_traits@D@std@@V?$allocator@D@2@@std@@@2@V?$allocator@U?$pair@$$CBV?$basic_string@DU?$char_traits@D@std@@V?$allocator@D@2@@std@@V?$weak_ptr@VRawImageData@@@2@@std@@@2@$0A@@std@@@std@@IAEAAV?$allocator@U?$_Tree_node@U?$pair@$$CBV?$basic_string@DU?$char_traits@D@std@@V?$allocator@D@2@@std@@V?$weak_ptr@VRawImageData@@@2@@std@@PAX@std@@@2@XZ 00419470 f i DraggingDemo.obj
 0001:00018490       ?_Getal@?$_Tree@V?$_Tmap_traits@V?$basic_string@DU?$char_traits@D@std@@V?$allocator@D@2@@std@@V?$weak_ptr@VRawImageData@@@2@U?$less@V?$basic_string@DU?$char_traits@D@std@@V?$allocator@D@2@@std@@@2@V?$allocator@U?$pair@$$CBV?$basic_string@DU?$char_traits@D@std@@V?$allocator@D@2@@std@@V?$weak_ptr@VRawImageData@@@2@@std@@@2@$0A@@std@@@std@@IBEABV?$allocator@U?$_Tree_node@U?$pair@$$CBV?$basic_string@DU?$char_traits@D@std@@V?$allocator@D@2@@std@@V?$weak_ptr@VRawImageData@@@2@@std@@PAX@std@@@2@XZ 00419490 f i DraggingDemo.obj
 0001:000184b0       ?_Getal@?$vector@PAVDisplayableObject@@V?$allocator@PAVDisplayableObject@@@std@@@std@@AAEAAV?$allocator@PAVDisplayableObject@@@2@XZ 004194b0 f i DraggingDemo.obj
 0001:000184d0       ?_Getal@?$vector@PAVDisplayableObject@@V?$allocator@PAVDisplayableObject@@@std@@@std@@ABEABV?$allocator@PAVDisplayableObject@@@2@XZ 004194d0 f i DraggingDemo.obj
 0001:000184f0       ?_Getcomp@?$_Tree@V?$_Tmap_traits@V?$basic_string@DU?$char_traits@D@std@@V?$allocator@D@2@@std@@V?$shared_ptr@VRawImageData@@@2@U?$less@V?$basic_string@DU?$char_traits@D@std@@V?$allocator@D@2@@std@@@2@V?$allocator@U?$pair@$$CBV?$basic_string@DU?$char_traits@D@std@@V?$allocator@D@2@@std@@V?$shared_ptr@VRawImageData@@@2@@std@@@2@$0A@@std@@@std@@IBEABU?$less@V?$basic_string@DU?$char_traits@D@std@@V?$allocator@D@2@@std@@@2@XZ 004194f0 f i DraggingDemo.obj
 0001:00018510       ?_Getcomp@?$_Tree@V?$_Tmap_traits@V?$basic_string@DU?$char_traits@D@std@@V?$allocator@D@2@@std@@V?$weak_ptr@VRawImageData@@@2@U?$less@V?$basic_string@DU?$char_traits@D@std@@V?$allocator@D@2@@std@@@2@V?$allocator@U?$pair@$$CBV?$basic_string@DU?$char_traits@D@std@@V?$allocator@D@2@@std@@V?$weak_ptr@VRawImageData@@@2@@std@@@2@$0A@@std@@@std@@IBEABU?$less@V?$basic_string@DU?$char_traits@D@std@@V?$allocator@D@2@@std@@@2@XZ 00419510 f i DraggingDemo.obj
 0001:00018530       ?_Incref_nz@_Ref_count_base@std@@QAE_NXZ 00419530 f i DraggingDemo.obj
 0001:000185a0       ?_Incwref@_Ref_count_base@std@@QAEXXZ 004195a0 f i DraggingDemo.obj
 0001:000185c0       ?_Insert_node@?$_Tree_val@U?$_Tree_simple_types@U?$pair@$$CBV?$basic_string@DU?$char_traits@D@std@@V?$allocator@D@2@@std@@V?$shared_ptr@VRawImageData@@@2@@std@@@std@@@std@@QAEPAU?$_Tree_node@U?$pair@$$CBV?$basic_string@DU?$char_traits@D@std@@V?$allocator@D@2@@std@@V?$shared_ptr@VRawImageData@@@2@@std@@PAX@2@U?$_Tree_id@PAU?$_Tree_node@U?$pair@$$CBV?$basic_string@DU?$char_traits@D@std@@V?$allocator@D@2@@std@@V?$shared_ptr@VRawImageData@@@2@@std@@PAX@std@@@2@QAU32@@Z 004195c0 f i DraggingDemo.obj
 0001:00018850       ?_Insert_node@?$_Tree_val@U?$_Tree_simple_types@U?$pair@$$CBV?$basic_string@DU?$char_traits@D@std@@V?$allocator@D@2@@std@@V?$weak_ptr@VRawImageData@@@2@@std@@@std@@@std@@QAEPAU?$_Tree_node@U?$pair@$$CBV?$basic_string@DU?$char_traits@D@std@@V?$allocator@D@2@@std@@V?$weak_ptr@VRawImageData@@@2@@std@@PAX@2@U?$_Tree_id@PAU?$_Tree_node@U?$pair@$$CBV?$basic_string@DU?$char_traits@D@std@@V?$allocator@D@2@@std@@V?$weak_ptr@VRawImageData@@@2@@std@@PAX@std@@@2@QAU32@@Z 00419850 f i DraggingDemo.obj
 0001:00018ae0       ?_Lrotate@?$_Tree_val@U?$_Tree_simple_types@U?$pair@$$CBV?$basic_string@DU?$char_traits@D@std@@V?$allocator@D@2@@std@@V?$shared_ptr@VRawImageData@@@2@@std@@@std@@@std@@QAEXPAU?$_Tree_node@U?$pair@$$CBV?$basic_string@DU?$char_traits@D@std@@V?$allocator@D@2@@std@@V?$shared_ptr@VRawImageData@@@2@@std@@PAX@2@@Z 00419ae0 f i DraggingDemo.obj
 0001:00018ba0       ?_Lrotate@?$_Tree_val@U?$_Tree_simple_types@U?$pair@$$CBV?$basic_string@DU?$char_traits@D@std@@V?$allocator@D@2@@std@@V?$weak_ptr@VRawImageData@@@2@@std@@@std@@@std@@QAEXPAU?$_Tree_node@U?$pair@$$CBV?$basic_string@DU?$char_traits@D@std@@V?$allocator@D@2@@std@@V?$weak_ptr@VRawImageData@@@2@@std@@PAX@2@@Z 00419ba0 f i DraggingDemo.obj
 0001:00018c60       ?_Max@?$_Tree_val@U?$_Tree_simple_types@U?$pair@$$CBV?$basic_string@DU?$char_traits@D@std@@V?$allocator@D@2@@std@@V?$weak_ptr@VRawImageData@@@2@@std@@@std@@@std@@SAPAU?$_Tree_node@U?$pair@$$CBV?$basic_string@DU?$char_traits@D@std@@V?$allocator@D@2@@std@@V?$weak_ptr@VRawImageData@@@2@@std@@PAX@2@PAU32@@Z 00419c60 f i DraggingDemo.obj
 0001:00018c90       ?_Min@?$_Tree_val@U?$_Tree_simple_types@U?$pair@$$CBV?$basic_string@DU?$char_traits@D@std@@V?$allocator@D@2@@std@@V?$weak_ptr@VRawImageData@@@2@@std@@@std@@@std@@SAPAU?$_Tree_node@U?$pair@$$CBV?$basic_string@DU?$char_traits@D@std@@V?$allocator@D@2@@std@@V?$weak_ptr@VRawImageData@@@2@@std@@PAX@2@PAU32@@Z 00419c90 f i DraggingDemo.obj
 0001:00018cc0       ?_Orphan_ptr@?$_Tree_val@U?$_Tree_simple_types@U?$pair@$$CBV?$basic_string@DU?$char_traits@D@std@@V?$allocator@D@2@@std@@V?$weak_ptr@VRawImageData@@@2@@std@@@std@@@std@@QAEXQAU?$_Tree_node@U?$pair@$$CBV?$basic_string@DU?$char_traits@D@std@@V?$allocator@D@2@@std@@V?$weak_ptr@VRawImageData@@@2@@std@@PAX@2@@Z 00419cc0 f i DraggingDemo.obj
 0001:00018d70       ?_Orphan_range@?$vector@PAVDisplayableObject@@V?$allocator@PAVDisplayableObject@@@std@@@std@@ABEXPAPAVDisplayableObject@@0@Z 00419d70 f i DraggingDemo.obj
 0001:00018e10       ?_Release@?$_Alloc_construct_ptr@V?$allocator@U?$_Tree_node@U?$pair@$$CBV?$basic_string@DU?$char_traits@D@std@@V?$allocator@D@2@@std@@V?$shared_ptr@VRawImageData@@@2@@std@@PAX@std@@@std@@@std@@QAEPAU?$_Tree_node@U?$pair@$$CBV?$basic_string@DU?$char_traits@D@std@@V?$allocator@D@2@@std@@V?$shared_ptr@VRawImageData@@@2@@std@@PAX@2@XZ 00419e10 f i DraggingDemo.obj
 0001:00018e80       ?_Release@?$_Alloc_construct_ptr@V?$allocator@U?$_Tree_node@U?$pair@$$CBV?$basic_string@DU?$char_traits@D@std@@V?$allocator@D@2@@std@@V?$weak_ptr@VRawImageData@@@2@@std@@PAX@std@@@std@@@std@@QAEPAU?$_Tree_node@U?$pair@$$CBV?$basic_string@DU?$char_traits@D@std@@V?$allocator@D@2@@std@@V?$weak_ptr@VRawImageData@@@2@@std@@PAX@2@XZ 00419e80 f i DraggingDemo.obj
 0001:00018ef0       ?_Rrotate@?$_Tree_val@U?$_Tree_simple_types@U?$pair@$$CBV?$basic_string@DU?$char_traits@D@std@@V?$allocator@D@2@@std@@V?$shared_ptr@VRawImageData@@@2@@std@@@std@@@std@@QAEXPAU?$_Tree_node@U?$pair@$$CBV?$basic_string@DU?$char_traits@D@std@@V?$allocator@D@2@@std@@V?$shared_ptr@VRawImageData@@@2@@std@@PAX@2@@Z 00419ef0 f i DraggingDemo.obj
 0001:00018fc0       ?_Rrotate@?$_Tree_val@U?$_Tree_simple_types@U?$pair@$$CBV?$basic_string@DU?$char_traits@D@std@@V?$allocator@D@2@@std@@V?$weak_ptr@VRawImageData@@@2@@std@@@std@@@std@@QAEXPAU?$_Tree_node@U?$pair@$$CBV?$basic_string@DU?$char_traits@D@std@@V?$allocator@D@2@@std@@V?$weak_ptr@VRawImageData@@@2@@std@@PAX@2@@Z 00419fc0 f i DraggingDemo.obj
 0001:00019090       ?_Ufill@?$vector@PAVDisplayableObject@@V?$allocator@PAVDisplayableObject@@@std@@@std@@AAEPAPAVDisplayableObject@@PAPAV3@IU_Value_init_tag@2@@Z 0041a090 f i DraggingDemo.obj
 0001:000190c0       ?_Umove_if_noexcept1@?$vector@PAVDisplayableObject@@V?$allocator@PAVDisplayableObject@@@std@@@std@@AAEXPAPAVDisplayableObject@@00U?$integral_constant@_N$00@2@@Z 0041a0c0 f i DraggingDemo.obj
 0001:00019100       ?_Umove_if_noexcept@?$vector@PAVDisplayableObject@@V?$allocator@PAVDisplayableObject@@@std@@@std@@AAEXPAPAVDisplayableObject@@00@Z 0041a100 f i DraggingDemo.obj
 0001:00019140       ?_Unwrapped@?$_Tree_iterator@V?$_Tree_val@U?$_Tree_simple_types@U?$pair@$$CBV?$basic_string@DU?$char_traits@D@std@@V?$allocator@D@2@@std@@V?$weak_ptr@VRawImageData@@@2@@std@@@std@@@std@@@std@@QBE?AV?$_Tree_unchecked_iterator@V?$_Tree_val@U?$_Tree_simple_types@U?$pair@$$CBV?$basic_string@DU?$char_traits@D@std@@V?$allocator@D@2@@std@@V?$weak_ptr@VRawImageData@@@2@@std@@@std@@@std@@@2@XZ 0041a140 f i DraggingDemo.obj
 0001:00019180       ?_Use_count@_Ref_count_base@std@@QBEJXZ 0041a180 f i DraggingDemo.obj
 0001:000191a0       ?_Xlength@?$vector@PAVDisplayableObject@@V?$allocator@PAVDisplayableObject@@@std@@@std@@CAXXZ 0041a1a0 f i DraggingDemo.obj
 0001:000191c0       ?allocate@?$allocator@PAVDisplayableObject@@@std@@QAEPAPAVDisplayableObject@@I@Z 0041a1c0 f i DraggingDemo.obj
 0001:000191f0       ?allocate@?$allocator@U?$_Tree_node@U?$pair@$$CBV?$basic_string@DU?$char_traits@D@std@@V?$allocator@D@2@@std@@V?$shared_ptr@VRawImageData@@@2@@std@@PAX@std@@@std@@QAEPAU?$_Tree_node@U?$pair@$$CBV?$basic_string@DU?$char_traits@D@std@@V?$allocator@D@2@@std@@V?$shared_ptr@VRawImageData@@@2@@std@@PAX@2@I@Z 0041a1f0 f i DraggingDemo.obj
 0001:00019220       ?allocate@?$allocator@U?$_Tree_node@U?$pair@$$CBV?$basic_string@DU?$char_traits@D@std@@V?$allocator@D@2@@std@@V?$weak_ptr@VRawImageData@@@2@@std@@PAX@std@@@std@@QAEPAU?$_Tree_node@U?$pair@$$CBV?$basic_string@DU?$char_traits@D@std@@V?$allocator@D@2@@std@@V?$weak_ptr@VRawImageData@@@2@@std@@PAX@2@I@Z 0041a220 f i DraggingDemo.obj
 0001:00019250       ?capacity@?$vector@PAVDisplayableObject@@V?$allocator@PAVDisplayableObject@@@std@@@std@@QBEIXZ 0041a250 f i DraggingDemo.obj
 0001:00019280       ?checkDoDrag@DragableBaseClassObject@@UAEXHH@Z 0041a280 f i DraggingDemo.obj
 0001:00019300       ?checkFinishDrag@DragableBaseClassObject@@UAEXHH@Z 0041a300 f i DraggingDemo.obj
 0001:00019340       ?checkStartDrag@DragableBaseClassObject@@UAEXHH@Z 0041a340 f i DraggingDemo.obj
 0001:000193c0       ?checkWritable@DrawingSurface@@QAEXXZ 0041a3c0 f i DraggingDemo.obj
 0001:00019410       ?createObjectArray@DisplayableObjectContainer@@QAEXH@Z 0041a410 f i DraggingDemo.obj
 0001:00019460       ?data@?$basic_string@DU?$char_traits@D@std@@V?$allocator@D@2@@std@@QBEPBDXZ 0041a460 f i DraggingDemo.obj
 0001:000194b0       ?deallocate@?$_Default_allocator_traits@V?$allocator@U?$_Tree_node@U?$pair@$$CBV?$basic_string@DU?$char_traits@D@std@@V?$allocator@D@2@@std@@V?$shared_ptr@VRawImageData@@@2@@std@@PAX@std@@@std@@@std@@SAXAAV?$allocator@U?$_Tree_node@U?$pair@$$CBV?$basic_string@DU?$char_traits@D@std@@V?$allocator@D@2@@std@@V?$shared_ptr@VRawImageData@@@2@@std@@PAX@std@@@2@QAU?$_Tree_node@U?$pair@$$CBV?$basic_string@DU?$char_traits@D@std@@V?$allocator@D@2@@std@@V?$shared_ptr@VRawImageData@@@2@@std@@PAX@2@I@Z 0041a4b0 f i DraggingDemo.obj
 0001:000194d0       ?deallocate@?$_Default_allocator_traits@V?$allocator@U?$_Tree_node@U?$pair@$$CBV?$basic_string@DU?$char_traits@D@std@@V?$allocator@D@2@@std@@V?$weak_ptr@VRawImageData@@@2@@std@@PAX@std@@@std@@@std@@SAXAAV?$allocator@U?$_Tree_node@U?$pair@$$CBV?$basic_string@DU?$char_traits@D@std@@V?$allocator@D@2@@std@@V?$weak_ptr@VRawImageData@@@2@@std@@PAX@std@@@2@QAU?$_Tree_node@U?$pair@$$CBV?$basic_string@DU?$char_traits@D@std@@V?$allocator@D@2@@std@@V?$weak_ptr@VRawImageData@@@2@@std@@PAX@2@I@Z 0041a4d0 f i DraggingDemo.obj
 0001:000194f0       ?deallocate@?$allocator@PAVDisplayableObject@@@std@@QAEXQAPAVDisplayableObject@@I@Z 0041a4f0 f i DraggingDemo.obj
 0001:00019520       ?deallocate@?$allocator@U?$_Tree_node@U?$pair@$$CBV?$basic_string@DU?$char_traits@D@std@@V?$allocator@D@2@@std@@V?$shared_ptr@VRawImageData@@@2@@std@@PAX@std@@@std@@QAEXQAU?$_Tree_node@U?$pair@$$CBV?$basic_string@DU?$char_traits@D@std@@V?$allocator@D@2@@std@@V?$shared_ptr@VRawImageData@@@2@@std@@PAX@2@I@Z 0041a520 f i DraggingDemo.obj
 0001:00019550       ?deallocate@?$allocator@U?$_Tree_node@U?$pair@$$CBV?$basic_string@DU?$char_traits@D@std@@V?$allocator@D@2@@std@@V?$weak_ptr@VRawImageData@@@2@@std@@PAX@std@@@std@@QAEXQAU?$_Tree_node@U?$pair@$$CBV?$basic_string@DU?$char_traits@D@std@@V?$allocator@D@2@@std@@V?$weak_ptr@VRawImageData@@@2@@std@@PAX@2@I@Z 0041a550 f i DraggingDemo.obj
 0001:00019580       ?doDragRedraw@DragableBaseClassObject@@UAEXXZ 0041a580 f i DraggingDemo.obj
 0001:000195a0       ?drawableObjectsChanged@DisplayableObjectContainer@@QAEXXZ 0041a5a0 f i DraggingDemo.obj
 0001:000195c0       ?end@?$_Tree@V?$_Tmap_traits@V?$basic_string@DU?$char_traits@D@std@@V?$allocator@D@2@@std@@V?$weak_ptr@VRawImageData@@@2@U?$less@V?$basic_string@DU?$char_traits@D@std@@V?$allocator@D@2@@std@@@2@V?$allocator@U?$pair@$$CBV?$basic_string@DU?$char_traits@D@std@@V?$allocator@D@2@@std@@V?$weak_ptr@VRawImageData@@@2@@std@@@2@$0A@@std@@@std@@QAE?AV?$_Tree_iterator@V?$_Tree_val@U?$_Tree_simple_types@U?$pair@$$CBV?$basic_string@DU?$char_traits@D@std@@V?$allocator@D@2@@std@@V?$weak_ptr@VRawImageData@@@2@@std@@@std@@@std@@@2@XZ 0041a5c0 f i DraggingDemo.obj
 0001:00019600       ?expired@?$weak_ptr@VRawImageData@@@std@@QBE_NXZ 0041a600 f i DraggingDemo.obj
 0001:00019640       ?find@?$_Tree@V?$_Tmap_traits@V?$basic_string@DU?$char_traits@D@std@@V?$allocator@D@2@@std@@V?$weak_ptr@VRawImageData@@@2@U?$less@V?$basic_string@DU?$char_traits@D@std@@V?$allocator@D@2@@std@@@2@V?$allocator@U?$pair@$$CBV?$basic_string@DU?$char_traits@D@std@@V?$allocator@D@2@@std@@V?$weak_ptr@VRawImageData@@@2@@std@@@2@$0A@@std@@@std@@QAE?AV?$_Tree_iterator@V?$_Tree_val@U?$_Tree_simple_types@U?$pair@$$CBV?$basic_string@DU?$char_traits@D@std@@V?$allocator@D@2@@std@@V?$weak_ptr@VRawImageData@@@2@@std@@@std@@@std@@@2@ABV?$basic_string@DU?$char_traits@D@std@@V?$allocator@D@2@@2@@Z 0041a640 f i DraggingDemo.obj
 0001:00019690       ?freeSurface@RawImageData@@QAEXXZ 0041a690 f i DraggingDemo.obj
 0001:000196d0       ?get@ImageManager@@SAPAV1@XZ 0041a6d0 f i DraggingDemo.obj
 0001:00019780       ?getImagePtrbyURL@ImageManager@@QAE?AV?$shared_ptr@VRawImageData@@@std@@V?$basic_string@DU?$char_traits@D@std@@V?$allocator@D@2@@3@_N1@Z 0041a780 f i DraggingDemo.obj
 0001:00019bd0       ?getImagebyURL@ImageManager@@QAE?AVSimpleImage@@V?$basic_string@DU?$char_traits@D@std@@V?$allocator@D@2@@std@@_N1@Z 0041abd0 f i DraggingDemo.obj
 0001:00019ca0       ?getIntsPerWindowRow@DrawingSurface@@QBEIXZ 0041aca0 f i DraggingDemo.obj
 0001:00019cc0       ?getSurfaceHeight@DrawingSurface@@QBEHXZ 0041acc0 f i DraggingDemo.obj
 0001:00019ce0       ?getSurfaceWidth@DrawingSurface@@QBEHXZ 0041ace0 f i DraggingDemo.obj
 0001:00019d00       ?getWindowHeight@BaseEngine@@QBEHXZ 0041ad00 f i DraggingDemo.obj
 0001:00019d20       ?getWindowWidth@BaseEngine@@QBEHXZ 0041ad20 f i DraggingDemo.obj
 0001:00019d40       ?getXForRotationAndCrop@RawImageData@@SAHHHHHHH@Z 0041ad40 f i DraggingDemo.obj
 0001:00019db0       ?getYForRotationAndCrop@RawImageData@@SAHHHHHHH@Z 0041adb0 f i DraggingDemo.obj
 0001:00019e20       ?isVisible@DisplayableObject@@QBE_NXZ 0041ae20 f i DraggingDemo.obj
 0001:00019e40       ?loadAsNew@ImageManager@@QAE?AV?$shared_ptr@VRawImageData@@@std@@V?$basic_string@DU?$char_traits@D@std@@V?$allocator@D@2@@3@@Z 0041ae40 f i DraggingDemo.obj
 0001:0001a000       ?loadImage@RawImageData@@QAE_NV?$basic_string@DU?$char_traits@D@std@@V?$allocator@D@2@@std@@HHHHH_N@Z 0041b000 f i DraggingDemo.obj
 0001:0001a310       ?lock@?$weak_ptr@VRawImageData@@@std@@QBE?AV?$shared_ptr@VRawImageData@@@2@XZ 0041b310 f i DraggingDemo.obj
 0001:0001a360       ?max_size@?$_Default_allocator_traits@V?$allocator@PAVDisplayableObject@@@std@@@std@@SAIABV?$allocator@PAVDisplayableObject@@@2@@Z 0041b360 f i DraggingDemo.obj
 0001:0001a370       ?max_size@?$_Default_allocator_traits@V?$allocator@U?$_Tree_node@U?$pair@$$CBV?$basic_string@DU?$char_traits@D@std@@V?$allocator@D@2@@std@@V?$shared_ptr@VRawImageData@@@2@@std@@PAX@std@@@std@@@std@@SAIABV?$allocator@U?$_Tree_node@U?$pair@$$CBV?$basic_string@DU?$char_traits@D@std@@V?$allocator@D@2@@std@@V?$shared_ptr@VRawImageData@@@2@@std@@PAX@std@@@2@@Z 0041b370 f i DraggingDemo.obj
 0001:0001a380       ?max_size@?$_Default_allocator_traits@V?$allocator@U?$_Tree_node@U?$pair@$$CBV?$basic_string@DU?$char_traits@D@std@@V?$allocator@D@2@@std@@V?$weak_ptr@VRawImageData@@@2@@std@@PAX@std@@@std@@@std@@SAIABV?$allocator@U?$_Tree_node@U?$pair@$$CBV?$basic_string@DU?$char_traits@D@std@@V?$allocator@D@2@@std@@V?$weak_ptr@VRawImageData@@@2@@std@@PAX@std@@@2@@Z 0041b380 f i DraggingDemo.obj
 0001:0001a390       ?max_size@?$_Tree@V?$_Tmap_traits@V?$basic_string@DU?$char_traits@D@std@@V?$allocator@D@2@@std@@V?$shared_ptr@VRawImageData@@@2@U?$less@V?$basic_string@DU?$char_traits@D@std@@V?$allocator@D@2@@std@@@2@V?$allocator@U?$pair@$$CBV?$basic_string@DU?$char_traits@D@std@@V?$allocator@D@2@@std@@V?$shared_ptr@VRawImageData@@@2@@std@@@2@$0A@@std@@@std@@QBEIXZ 0041b390 f i DraggingDemo.obj
 0001:0001a3e0       ?max_size@?$_Tree@V?$_Tmap_traits@V?$basic_string@DU?$char_traits@D@std@@V?$allocator@D@2@@std@@V?$weak_ptr@VRawImageData@@@2@U?$less@V?$basic_string@DU?$char_traits@D@std@@V?$allocator@D@2@@std@@@2@V?$allocator@U?$pair@$$CBV?$basic_string@DU?$char_traits@D@std@@V?$allocator@D@2@@std@@V?$weak_ptr@VRawImageData@@@2@@std@@@2@$0A@@std@@@std@@QBEIXZ 0041b3e0 f i DraggingDemo.obj
 0001:0001a430       ?max_size@?$vector@PAVDisplayableObject@@V?$allocator@PAVDisplayableObject@@@std@@@std@@QBEIXZ 0041b430 f i DraggingDemo.obj
 0001:0001a480       ?notifyObjectsAboutMouse@BaseEngine@@QAEX_N@Z 0041b480 f i DraggingDemo.obj
 0001:0001a4a0       ?pointer_to@?$pointer_traits@PAU?$pair@$$CBV?$basic_string@DU?$char_traits@D@std@@V?$allocator@D@2@@std@@V?$weak_ptr@VRawImageData@@@2@@std@@@std@@SAPAU?$pair@$$CBV?$basic_string@DU?$char_traits@D@std@@V?$allocator@D@2@@std@@V?$weak_ptr@VRawImageData@@@2@@2@AAU32@@Z 0041b4a0 f i DraggingDemo.obj
 0001:0001a4c0       ?rawSetPixel@DrawingSurface@@QAEXHHI@Z 0041b4c0 f i DraggingDemo.obj
 0001:0001a570       ?resetOptions@ImageManager@@QAEXXZ 0041b570 f i DraggingDemo.obj
 0001:0001a5b0       ?resize@?$vector@PAVDisplayableObject@@V?$allocator@PAVDisplayableObject@@@std@@@std@@QAEXI@Z 0041b5b0 f i DraggingDemo.obj
 0001:0001a5e0       ?select_on_container_copy_construction@?$_Default_allocator_traits@V?$allocator@D@std@@@std@@SA?AV?$allocator@D@2@ABV32@@Z 0041b5e0 f i DraggingDemo.obj
 0001:0001a5f0       ?setBackgroundPixel@BaseEngine@@QAEXHHI@Z 0041b5f0 f i DraggingDemo.obj
 0001:0001a620       ?setPixel@DrawingSurface@@QAEXHHI@Z 0041b620 f i DraggingDemo.obj
 0001:0001a690       ?setVisible@DisplayableObject@@QAEX_N@Z 0041b690 f i DraggingDemo.obj
 0001:0001a6b0       ?size@?$basic_string@DU?$char_traits@D@std@@V?$allocator@D@2@@std@@QBEIXZ 0041b6b0 f i DraggingDemo.obj
 0001:0001a6d0       ?storeObjectInArray@DisplayableObjectContainer@@QAEXHPAVDisplayableObject@@@Z 0041b6d0 f i DraggingDemo.obj
 0001:0001a710       ?use_count@?$_Ptr_base@VRawImageData@@@std@@QBEJXZ 0041b710 f i DraggingDemo.obj
 0001:0001a750       ?virtDraw@DragableImageObject@@UAEXXZ 0041b750 f i DraggingDemo.obj
 0001:0001a7d0       ?virtDraw@ImageObject@@UAEXXZ 0041b7d0 f i DraggingDemo.obj
 0001:0001a850       ?virtMouseDown@DragableImageObject@@UAEXHHH@Z 0041b850 f i DraggingDemo.obj
 0001:0001a880       ?virtMouseDown@DragableObject@@UAEXHHH@Z 0041b880 f i DraggingDemo.obj
 0001:0001a8b0       ?virtMouseMoved@DragableImageObject@@UAEXHH@Z 0041b8b0 f i DraggingDemo.obj
 0001:0001a8e0       ?virtMouseMoved@DragableObject@@UAEXHH@Z 0041b8e0 f i DraggingDemo.obj
 0001:0001a910       ?virtMouseUp@DragableImageObject@@UAEXHHH@Z 0041b910 f i DraggingDemo.obj
 0001:0001a940       ?virtMouseUp@DragableObject@@UAEXHHH@Z 0041b940 f i DraggingDemo.obj
 0001:0001a980       ??0DrawingSurface@@QAE@PAVBaseEngine@@@Z 0041b980 f   DrawingSurface.obj
 0001:0001aa20       ?drawLine@DrawingSurface@@QAEXNNNNI@Z 0041ba20 f   DrawingSurface.obj
 0001:0001ac00       ?drawThickLine@DrawingSurface@@QAEXNNNNIH@Z 0041bc00 f   DrawingSurface.obj
 0001:0001b0a0       ?drawVerticalSidedRegion@DrawingSurface@@QAEXNNNNNNI@Z 0041c0a0 f   DrawingSurface.obj
 0001:0001b440       ?drawRectangle@DrawingSurface@@QAEXHHHHI@Z 0041c440 f   DrawingSurface.obj
 0001:0001b550       ?drawOval@DrawingSurface@@QAEXHHHHI@Z 0041c550 f   DrawingSurface.obj
 0001:0001b720       ?rawDrawOval@DrawingSurface@@QAEXHHHHI@Z 0041c720 f   DrawingSurface.obj
 0001:0001b880       ?drawHollowOval@DrawingSurface@@QAEXHHHHHHHHI@Z 0041c880 f   DrawingSurface.obj
 0001:0001bba0       ?drawPolygon@DrawingSurface@@QAEXHPAN0I@Z 0041cba0 f   DrawingSurface.obj
 0001:0001c320       ?drawFastString@DrawingSurface@@QAEXHHPBDIPAVFont@@@Z 0041d320 f   DrawingSurface.obj
 0001:0001c410       ?drawScalableString@DrawingSurface@@QAEXHHPBDIPAVFont@@@Z 0041d410 f   DrawingSurface.obj
 0001:0001c5e0       ?drawShortenedArrow@DrawingSurface@@QAEXHHHHHHIHH@Z 0041d5e0 f   DrawingSurface.obj
 0001:0001cb60       ?drawShortenedLine@DrawingSurface@@QAEXHHHHHHIH@Z 0041db60 f   DrawingSurface.obj
 0001:0001cf60       ?drawTriangle@DrawingSurface@@QAEXNNNNNNI@Z 0041df60 f   DrawingSurface.obj
 0001:0001d2b0       ?copyEntireSurface@DrawingSurface@@QAEXPAV1@@Z 0041e2b0 f   DrawingSurface.obj
 0001:0001d300       ?copyRectangleFrom@DrawingSurface@@QAEXPAV1@HHHHHH@Z 0041e300 f   DrawingSurface.obj
 0001:0001d500       ?getAngle@DrawingSurface@@SANNNNN@Z 0041e500 f   DrawingSurface.obj
 0001:0001d5a0       ?getVirtualRedrawMinX@DrawingSurface@@QAEHXZ 0041e5a0 f   DrawingSurface.obj
 0001:0001d5f0       ?getVirtualRedrawMinY@DrawingSurface@@QAEHXZ 0041e5f0 f   DrawingSurface.obj
 0001:0001d640       ?getVirtualRedrawMaxX@DrawingSurface@@QAEHXZ 0041e640 f   DrawingSurface.obj
 0001:0001d6a0       ?getVirtualRedrawMaxY@DrawingSurface@@QAEHXZ 0041e6a0 f   DrawingSurface.obj
 0001:0001d700       ?getRealRedrawMinX@DrawingSurface@@QAEHXZ 0041e700 f   DrawingSurface.obj
 0001:0001d750       ?getRealRedrawMinY@DrawingSurface@@QAEHXZ 0041e750 f   DrawingSurface.obj
 0001:0001d7a0       ?getRealRedrawMaxX@DrawingSurface@@QAEHXZ 0041e7a0 f   DrawingSurface.obj
 0001:0001d7f0       ?getRealRedrawMaxY@DrawingSurface@@QAEHXZ 0041e7f0 f   DrawingSurface.obj
 0001:0001e3f0       ??$swapPoints@H@@YAXAAH0@Z 0041f3f0 f i DrawingSurface.obj
 0001:0001e420       ??$swapPoints@N@@YAXAAN0@Z 0041f420 f i DrawingSurface.obj
 0001:0001e460       ?checkBlitable@DrawingSurface@@QAEXXZ 0041f460 f i DrawingSurface.obj
 0001:0001e4b0       ?convertRealToVirtualXPosition@DrawingSurface@@QAEHH@Z 0041f4b0 f i DrawingSurface.obj
 0001:0001e4f0       ?convertRealToVirtualYPosition@DrawingSurface@@QAEHH@Z 0041f4f0 f i DrawingSurface.obj
 0001:0001e530       ?getDefaultFont@BaseEngine@@QBEPAVFont@@XZ 0041f530 f i DrawingSurface.obj
 0001:0001e550       ?getRedrawAllScreen@BaseEngine@@QAEHXZ 0041f550 f i DrawingSurface.obj
 0001:0001e570       ?getRedrawRectRealBottom@BaseEngine@@QAEHXZ 0041f570 f i DrawingSurface.obj
 0001:0001e590       ?getRedrawRectRealLeft@BaseEngine@@QAEHXZ 0041f590 f i DrawingSurface.obj
 0001:0001e5b0       ?getRedrawRectRealRight@BaseEngine@@QAEHXZ 0041f5b0 f i DrawingSurface.obj
 0001:0001e5d0       ?getRedrawRectRealTop@BaseEngine@@QAEHXZ 0041f5d0 f i DrawingSurface.obj
 0001:0001e5f0       ?getRedrawRectVirtualBottom@BaseEngine@@QAEHXZ 0041f5f0 f i DrawingSurface.obj
 0001:0001e610       ?getRedrawRectVirtualLeft@BaseEngine@@QAEHXZ 0041f610 f i DrawingSurface.obj
 0001:0001e630       ?getRedrawRectVirtualRight@BaseEngine@@QAEHXZ 0041f630 f i DrawingSurface.obj
 0001:0001e650       ?getRedrawRectVirtualTop@BaseEngine@@QAEHXZ 0041f650 f i DrawingSurface.obj
 0001:0001e670       ?getTTFFont@Font@@QAEPAU_TTF_Font@@XZ 0041f670 f i DrawingSurface.obj
 0001:0001e690       ?mySDLTempRelockSurface@DrawingSurface@@QAEXXZ 0041f690 f i DrawingSurface.obj
 0001:0001e6e0       ?mySDLTempUnlockSurface@DrawingSurface@@QAEXXZ 0041f6e0 f i DrawingSurface.obj
 0001:0001e730       ?setDrawPointsFilter@DrawingSurface@@QAEXPAVFilterPoints@@@Z 0041f730 f i DrawingSurface.obj
 0001:0001e750       ??0EnemyCultist@@QAE@PAVBaseEngine@@HH@Z 0041f750 f   EnemyCultist.obj
 0001:0001e8a0       ??1EnemyCultist@@UAE@XZ    0041f8a0 f   EnemyCultist.obj
 0001:0001e8c0       ?turnStart@EnemyCultist@@UAEXXZ 0041f8c0 f   EnemyCultist.obj
 0001:0001e8f0       ?virtDraw@EnemyCultist@@UAEXXZ 0041f8f0 f   EnemyCultist.obj
 0001:0001ea50       ??$?0VBow@@$0A@@?$shared_ptr@VWeapon@@@std@@QAE@PAVBow@@@Z 0041fa50 f i EnemyCultist.obj
 0001:0001eb40       ??$_Set_ptr_rep_and_enable_shared@VBow@@@?$shared_ptr@VWeapon@@@std@@AAEXQAVBow@@QAV_Ref_count_base@1@@Z 0041fb40 f i EnemyCultist.obj
 0001:0001eb70       ??$move@AAPAVRawImageData@@@std@@YA$$QAPAVRawImageData@@AAPAV1@@Z 0041fb70 f i EnemyCultist.obj
 0001:0001eb80       ??$move@AAPAV_Ref_count_base@std@@@std@@YA$$QAPAV_Ref_count_base@0@AAPAV10@@Z 0041fb80 f i EnemyCultist.obj
 0001:0001eb90       ??$swap@PAVRawImageData@@X@std@@YAXAAPAVRawImageData@@0@Z 0041fb90 f i EnemyCultist.obj
 0001:0001ebe0       ??$swap@PAV_Ref_count_base@std@@X@std@@YAXAAPAV_Ref_count_base@0@0@Z 0041fbe0 f i EnemyCultist.obj
 0001:0001ec30       ??0?$_Ref_count@VBow@@@std@@QAE@PAVBow@@@Z 0041fc30 f i EnemyCultist.obj
 0001:0001ec80       ??0?$_Temporary_owner@VBow@@@std@@QAE@QAVBow@@@Z 0041fc80 f i EnemyCultist.obj
 0001:0001eca0       ??0Bow@@QAE@PAVGameEngine@@@Z 0041fca0 f i EnemyCultist.obj
 0001:0001ed60       ??1?$_Ref_count@VBow@@@std@@UAE@XZ 0041fd60 f i EnemyCultist.obj
 0001:0001ed80       ??1?$_Temporary_owner@VBow@@@std@@QAE@XZ 0041fd80 f i EnemyCultist.obj
 0001:0001edc0       ??1Bow@@QAE@XZ             0041fdc0 f i EnemyCultist.obj
 0001:0001ede0       ??4?$shared_ptr@VRawImageData@@@std@@QAEAAV01@ABV01@@Z 0041fde0 f i EnemyCultist.obj
 0001:0001ee20       ??4SimpleImage@@QAEAAV0@ABV0@@Z 0041fe20 f i EnemyCultist.obj
 0001:0001ee70       ??_G?$_Ref_count@VBow@@@std@@UAEPAXI@Z 0041fe70 f i EnemyCultist.obj
 0001:0001ee70       ??_E?$_Ref_count@VBow@@@std@@UAEPAXI@Z 0041fe70 f i EnemyCultist.obj
 0001:0001eeb0       ??_GBow@@QAEPAXI@Z         0041feb0 f i EnemyCultist.obj
 0001:0001eef0       ??_EEnemyCultist@@UAEPAXI@Z 0041fef0 f i EnemyCultist.obj
 0001:0001eef0       ??_GEnemyCultist@@UAEPAXI@Z 0041fef0 f i EnemyCultist.obj
 0001:0001ef30       ?GetAudio@GameEngine@@QAEPAVAudioPlayer@@XZ 0041ff30 f i EnemyCultist.obj
 0001:0001ef50       ?_Delete_this@?$_Ref_count@VBow@@@std@@EAEXXZ 0041ff50 f i EnemyCultist.obj
 0001:0001efa0       ?_Destroy@?$_Ref_count@VBow@@@std@@EAEXXZ 0041ffa0 f i EnemyCultist.obj
 0001:0001efe0       ?_Swap@?$_Ptr_base@VRawImageData@@@std@@IAEXAAV12@@Z 0041ffe0 f i EnemyCultist.obj
 0001:0001f020       ?loadImage@ImageManager@@SA?AVSimpleImage@@V?$basic_string@DU?$char_traits@D@std@@V?$allocator@D@2@@std@@_N@Z 00420020 f i EnemyCultist.obj
 0001:0001f0e0       ?swap@?$shared_ptr@VRawImageData@@@std@@QAEXAAV12@@Z 004200e0 f i EnemyCultist.obj
 0001:0001f100       ??0EnemyDragon@@QAE@PAVBaseEngine@@HH@Z 00420100 f   EnemyDragon.obj
 0001:0001f250       ??1EnemyDragon@@UAE@XZ     00420250 f   EnemyDragon.obj
 0001:0001f270       ?turnStart@EnemyDragon@@UAEXXZ 00420270 f   EnemyDragon.obj
 0001:0001f2a0       ?virtDraw@EnemyDragon@@UAEXXZ 004202a0 f   EnemyDragon.obj
 0001:0001f420       ??$?0VWoodSword@@$0A@@?$shared_ptr@VWeapon@@@std@@QAE@PAVWoodSword@@@Z 00420420 f i EnemyDragon.obj
 0001:0001f510       ??$_Set_ptr_rep_and_enable_shared@VWoodSword@@@?$shared_ptr@VWeapon@@@std@@AAEXQAVWoodSword@@QAV_Ref_count_base@1@@Z 00420510 f i EnemyDragon.obj
 0001:0001f540       ??0?$_Ref_count@VWoodSword@@@std@@QAE@PAVWoodSword@@@Z 00420540 f i EnemyDragon.obj
 0001:0001f590       ??0?$_Temporary_owner@VWoodSword@@@std@@QAE@QAVWoodSword@@@Z 00420590 f i EnemyDragon.obj
 0001:0001f5b0       ??0WoodSword@@QAE@PAVGameEngine@@@Z 004205b0 f i EnemyDragon.obj
 0001:0001f670       ??1?$_Ref_count@VWoodSword@@@std@@UAE@XZ 00420670 f i EnemyDragon.obj
 0001:0001f690       ??1?$_Temporary_owner@VWoodSword@@@std@@QAE@XZ 00420690 f i EnemyDragon.obj
 0001:0001f6d0       ??1WoodSword@@QAE@XZ       004206d0 f i EnemyDragon.obj
 0001:0001f6f0       ??_G?$_Ref_count@VWoodSword@@@std@@UAEPAXI@Z 004206f0 f i EnemyDragon.obj
 0001:0001f6f0       ??_E?$_Ref_count@VWoodSword@@@std@@UAEPAXI@Z 004206f0 f i EnemyDragon.obj
 0001:0001f730       ??_GEnemyDragon@@UAEPAXI@Z 00420730 f i EnemyDragon.obj
 0001:0001f730       ??_EEnemyDragon@@UAEPAXI@Z 00420730 f i EnemyDragon.obj
 0001:0001f770       ??_GWoodSword@@QAEPAXI@Z   00420770 f i EnemyDragon.obj
 0001:0001f7b0       ?_Delete_this@?$_Ref_count@VWoodSword@@@std@@EAEXXZ 004207b0 f i EnemyDragon.obj
 0001:0001f800       ?_Destroy@?$_Ref_count@VWoodSword@@@std@@EAEXXZ 00420800 f i EnemyDragon.obj
 0001:0001f840       ??0EnemyElf@@QAE@PAVBaseEngine@@HH@Z 00420840 f   EnemyElf.obj
 0001:0001f990       ??1EnemyElf@@UAE@XZ        00420990 f   EnemyElf.obj
 0001:0001f9b0       ?turnStart@EnemyElf@@UAEXXZ 004209b0 f   EnemyElf.obj
 0001:0001f9d0       ?virtDraw@EnemyElf@@UAEXXZ 004209d0 f   EnemyElf.obj
 0001:0001fb30       ??_GEnemyElf@@UAEPAXI@Z    00420b30 f i EnemyElf.obj
 0001:0001fb30       ??_EEnemyElf@@UAEPAXI@Z    00420b30 f i EnemyElf.obj
 0001:0001fb70       ??0EnemyObject@@QAE@HHPAVBaseEngine@@HH_NV?$shared_ptr@VWeapon@@@std@@V?$basic_string@DU?$char_traits@D@std@@V?$allocator@D@2@@3@3HHHH@Z 00420b70 f   EnemyObject.obj
 0001:0001fcb0       ??1EnemyObject@@UAE@XZ     00420cb0 f   EnemyObject.obj
 0001:0001fd00       ?virtDoUpdate@EnemyObject@@UAEXH@Z 00420d00 f   EnemyObject.obj
 0001:0001fe70       ?move@EnemyObject@@UAEXHHHH@Z 00420e70 f   EnemyObject.obj
 0001:0001fed0       ?damage@EnemyObject@@QAEXH@Z 00420ed0 f   EnemyObject.obj
 0001:0001ffe0       ?attack@EnemyObject@@UAEXXZ 00420fe0 f   EnemyObject.obj
 0001:00020050       ?onProjectileHit@EnemyObject@@UAEXPAVCharObject@@@Z 00421050 f   EnemyObject.obj
 0001:00020070       ?turnStart@EnemyObject@@UAEXXZ 00421070 f   EnemyObject.obj
 0001:000200e0       ?AI@EnemyObject@@UAEXXZ    004210e0 f   EnemyObject.obj
 0001:00020360       ?calcPath@EnemyObject@@QAE?AV?$list@V?$shared_ptr@VNode@@@std@@V?$allocator@V?$shared_ptr@VNode@@@std@@@2@@std@@HH@Z 00421360 f   EnemyObject.obj
 0001:00020dc0       ?calcHeuristic@EnemyObject@@QAEHVNode@@HH@Z 00421dc0 f   EnemyObject.obj
 0001:000212b0       ??$?0$$V@?$_Compressed_pair@V?$allocator@U?$_List_node@V?$shared_ptr@VNode@@@std@@PAX@std@@@std@@V?$_List_val@U?$_List_simple_types@V?$shared_ptr@VNode@@@std@@@std@@@2@$00@std@@QAE@U_Zero_then_variadic_args_t@1@@Z 004222b0 f i EnemyObject.obj
 0001:000212e0       ??$?0$$V@?$_Compressed_pair@V?$allocator@V?$shared_ptr@VNode@@@std@@@std@@V?$_Deque_val@U?$_Deque_simple_types@V?$shared_ptr@VNode@@@std@@@std@@@2@$00@std@@QAE@U_Zero_then_variadic_args_t@1@@Z 004222e0 f i EnemyObject.obj
 0001:00021310       ??$?0ABV?$shared_ptr@VNode@@@std@@@?$_List_node_emplace_op2@V?$allocator@U?$_List_node@V?$shared_ptr@VNode@@@std@@PAX@std@@@std@@@std@@QAE@AAV?$allocator@U?$_List_node@V?$shared_ptr@VNode@@@std@@PAX@std@@@1@ABV?$shared_ptr@VNode@@@1@@Z 00422310 f i EnemyObject.obj
 0001:000213c0       ??$?0U?$_List_node@V?$shared_ptr@VNode@@@std@@PAX@std@@@?$allocator@U_Container_proxy@std@@@std@@QAE@ABV?$allocator@U?$_List_node@V?$shared_ptr@VNode@@@std@@PAX@std@@@1@@Z 004223c0 f i EnemyObject.obj
 0001:000213e0       ??$?0V?$allocator@U?$_List_node@V?$shared_ptr@VNode@@@std@@PAX@std@@@std@@$$V@?$_Compressed_pair@V?$allocator@U?$_List_node@V?$shared_ptr@VNode@@@std@@PAX@std@@@std@@V?$_List_val@U?$_List_simple_types@V?$shared_ptr@VNode@@@std@@@std@@@2@$00@std@@QAE@U_One_then_variadic_args_t@1@$$QAV?$allocator@U?$_List_node@V?$shared_ptr@VNode@@@std@@PAX@std@@@1@@Z 004223e0 f i EnemyObject.obj
 0001:00021410       ??$?0V?$shared_ptr@VNode@@@std@@@?$_List_node_emplace_op2@V?$allocator@U?$_List_node@V?$shared_ptr@VNode@@@std@@PAX@std@@@std@@@std@@QAE@AAV?$allocator@U?$_List_node@V?$shared_ptr@VNode@@@std@@PAX@std@@@1@$$QAV?$shared_ptr@VNode@@@1@@Z 00422410 f i EnemyObject.obj
 0001:000214c0       ??$?0V?$shared_ptr@VNode@@@std@@@?$allocator@PAV?$shared_ptr@VNode@@@std@@@std@@QAE@ABV?$allocator@V?$shared_ptr@VNode@@@std@@@1@@Z 004224c0 f i EnemyObject.obj
 0001:000214e0       ??$?0V?$shared_ptr@VNode@@@std@@@?$allocator@U_Container_proxy@std@@@std@@QAE@ABV?$allocator@V?$shared_ptr@VNode@@@std@@@1@@Z 004224e0 f i EnemyObject.obj
 0001:00021500       ??$?0VNode@@$0A@@?$shared_ptr@VNode@@@std@@QAE@PAVNode@@@Z 00422500 f i EnemyObject.obj
 0001:000215f0       ??$?8VNode@@V0@@std@@YA_NABV?$shared_ptr@VNode@@@0@0@Z 004225f0 f i EnemyObject.obj
 0001:00021630       ??$?9VNode@@@std@@YA_NABV?$shared_ptr@VNode@@@0@$$T@Z 00422630 f i EnemyObject.obj
 0001:00021660       ??$?CVNode@@$0A@@?$shared_ptr@VNode@@@std@@QBEPAVNode@@XZ 00422660 f i EnemyObject.obj
 0001:00021680       ??$?CVWeapon@@$0A@@?$shared_ptr@VWeapon@@@std@@QBEPAVWeapon@@XZ 00422680 f i EnemyObject.obj
 0001:000216a0       ??$?DVNode@@$0A@@?$shared_ptr@VNode@@@std@@QBEAAVNode@@XZ 004226a0 f i EnemyObject.obj
 0001:000216c0       ??$_Adl_verify_range@PAPAV?$shared_ptr@VNode@@@std@@PAPAV12@@std@@YAXABQAPAV?$shared_ptr@VNode@@@0@0@Z 004226c0 f i EnemyObject.obj
 0001:000216e0       ??$_Adl_verify_range@V?$_Vector_iterator@V?$_Vector_val@U?$_Simple_types@PAVDisplayableObject@@@std@@@std@@@std@@V12@@std@@YAXABV?$_Vector_iterator@V?$_Vector_val@U?$_Simple_types@PAVDisplayableObject@@@std@@@std@@@0@0@Z 004226e0 f i EnemyObject.obj
 0001:00021700       ??$_Construct_in_place@PAU?$_List_node@V?$shared_ptr@VNode@@@std@@PAX@std@@AAPAU12@@std@@YAXAAPAU?$_List_node@V?$shared_ptr@VNode@@@std@@PAX@0@0@Z 00422700 f i EnemyObject.obj
 0001:00021750       ??$_Construct_in_place@PAU?$_List_node@V?$shared_ptr@VNode@@@std@@PAX@std@@ABQAU12@@std@@YAXAAPAU?$_List_node@V?$shared_ptr@VNode@@@std@@PAX@0@ABQAU10@@Z 00422750 f i EnemyObject.obj
 0001:000217a0       ??$_Copy_construct_from@VNode@@@?$_Ptr_base@VNode@@@std@@IAEXABV?$shared_ptr@VNode@@@1@@Z 004227a0 f i EnemyObject.obj
 0001:000217f0       ??$_Copy_memmove@PAPAV?$shared_ptr@VNode@@@std@@PAPAV12@@std@@YAPAPAV?$shared_ptr@VNode@@@0@PAPAV10@00@Z 004227f0 f i EnemyObject.obj
 0001:00021840       ??$_Destroy_in_place@PAU?$_List_node@V?$shared_ptr@VNode@@@std@@PAX@std@@@std@@YAXAAPAU?$_List_node@V?$shared_ptr@VNode@@@std@@PAX@0@@Z 00422840 f i EnemyObject.obj
 0001:00021850       ??$_Destroy_in_place@PAV?$shared_ptr@VNode@@@std@@@std@@YAXAAPAV?$shared_ptr@VNode@@@0@@Z 00422850 f i EnemyObject.obj
 0001:00021860       ??$_Destroy_range@PAPAV?$shared_ptr@VNode@@@std@@@std@@YAXPAPAV?$shared_ptr@VNode@@@0@QAPAV10@@Z 00422860 f i EnemyObject.obj
 0001:00021870       ??$_Emplace@ABV?$shared_ptr@VNode@@@std@@@?$list@V?$shared_ptr@VNode@@@std@@V?$allocator@V?$shared_ptr@VNode@@@std@@@2@@std@@QAEPAU?$_List_node@V?$shared_ptr@VNode@@@std@@PAX@1@QAU21@ABV?$shared_ptr@VNode@@@1@@Z 00422870 f i EnemyObject.obj
 0001:00021920       ??$_Emplace@V?$shared_ptr@VNode@@@std@@@?$list@V?$shared_ptr@VNode@@@std@@V?$allocator@V?$shared_ptr@VNode@@@std@@@2@@std@@QAEPAU?$_List_node@V?$shared_ptr@VNode@@@std@@PAX@1@QAU21@$$QAV?$shared_ptr@VNode@@@1@@Z 00422920 f i EnemyObject.obj
 0001:000219d0       ??$_Emplace_back_internal@V?$shared_ptr@VNode@@@std@@@?$deque@V?$shared_ptr@VNode@@@std@@V?$allocator@V?$shared_ptr@VNode@@@std@@@2@@std@@AAEX$$QAV?$shared_ptr@VNode@@@1@@Z 004229d0 f i EnemyObject.obj
 0001:00021b60       ??$_Find_unchecked1@PAPAVDisplayableObject@@PAV1@@std@@YAPAPAVDisplayableObject@@PAPAV1@QAPAV1@ABQAV1@U?$integral_constant@_N$0A@@0@@Z 00422b60 f i EnemyObject.obj
 0001:00021ba0       ??$_Find_unchecked@PAPAVDisplayableObject@@PAV1@@std@@YAPAPAVDisplayableObject@@QAPAV1@0ABQAV1@@Z 00422ba0 f i EnemyObject.obj
 0001:00021bd0       ??$_Free_non_head@V?$allocator@U?$_List_node@V?$shared_ptr@VNode@@@std@@PAX@std@@@std@@@?$_List_node@V?$shared_ptr@VNode@@@std@@PAX@std@@SAXAAV?$allocator@U?$_List_node@V?$shared_ptr@VNode@@@std@@PAX@std@@@1@PAU01@@Z 00422bd0 f i EnemyObject.obj
 0001:00021c30       ??$_Freenode0@V?$allocator@U?$_List_node@V?$shared_ptr@VNode@@@std@@PAX@std@@@std@@@?$_List_node@V?$shared_ptr@VNode@@@std@@PAX@std@@SAXAAV?$allocator@U?$_List_node@V?$shared_ptr@VNode@@@std@@PAX@std@@@1@PAU01@@Z 00422c30 f i EnemyObject.obj
 0001:00021cb0       ??$_Freenode@V?$allocator@U?$_List_node@V?$shared_ptr@VNode@@@std@@PAX@std@@@std@@@?$_List_node@V?$shared_ptr@VNode@@@std@@PAX@std@@SAXAAV?$allocator@U?$_List_node@V?$shared_ptr@VNode@@@std@@PAX@std@@@1@PAU01@@Z 00422cb0 f i EnemyObject.obj
 0001:00021d30       ??$_Get_unwrapped@PAV?$shared_ptr@VNode@@@std@@@std@@YAPAPAV?$shared_ptr@VNode@@@0@QAPAV10@@Z 00422d30 f i EnemyObject.obj
 0001:00021d40       ??$_Get_unwrapped@V?$_Vector_iterator@V?$_Vector_val@U?$_Simple_types@PAVDisplayableObject@@@std@@@std@@@std@@$0A@@std@@YA@ABV?$_Vector_iterator@V?$_Vector_val@U?$_Simple_types@PAVDisplayableObject@@@std@@@std@@@0@@Z 00422d40 f i EnemyObject.obj
 0001:00021d50       ??$_Get_unwrapped_n@PAV?$shared_ptr@VNode@@@std@@H$0A@@std@@YAPAPAV?$shared_ptr@VNode@@@0@QAPAV10@H@Z 00422d50 f i EnemyObject.obj
 0001:00021d60       ??$_Idl_distance@PAPAV?$shared_ptr@VNode@@@std@@PAPAV12@@std@@YA@ABQAPAV?$shared_ptr@VNode@@@0@0@Z 00422d60 f i EnemyObject.obj
 0001:00021d80       ??$_Move_construct_from@VNode@@@?$_Ptr_base@VNode@@@std@@IAEX$$QAV01@@Z 00422d80 f i EnemyObject.obj
 0001:00021dd0       ??$_Move_unchecked@PAPAVDisplayableObject@@PAPAV1@@std@@YAPAPAVDisplayableObject@@PAPAV1@00@Z 00422dd0 f i EnemyObject.obj
 0001:00021df0       ??$_Pocma@V?$allocator@U?$_List_node@V?$shared_ptr@VNode@@@std@@PAX@std@@@std@@@std@@YAXAAV?$allocator@U?$_List_node@V?$shared_ptr@VNode@@@std@@PAX@std@@@0@0@Z 00422df0 f i EnemyObject.obj
 0001:00021e10       ??$_Refancy@PAPAVDisplayableObject@@$0A@@std@@YAPAPAVDisplayableObject@@PAPAV1@@Z 00422e10 f i EnemyObject.obj
 0001:00021e20       ??$_Seek_wrapped@PAV?$shared_ptr@VNode@@@std@@@std@@YAXAAPAPAV?$shared_ptr@VNode@@@0@QAPAV10@@Z 00422e20 f i EnemyObject.obj
 0001:00021e30       ??$_Seek_wrapped@V?$_Vector_iterator@V?$_Vector_val@U?$_Simple_types@PAVDisplayableObject@@@std@@@std@@@std@@PAPAVDisplayableObject@@@std@@YAXAAV?$_Vector_iterator@V?$_Vector_val@U?$_Simple_types@PAVDisplayableObject@@@std@@@std@@@0@ABQAPAVDisplayableObject@@@Z 00422e30 f i EnemyObject.obj
 0001:00021e50       ??$_Set_ptr_rep_and_enable_shared@VNode@@@?$shared_ptr@VNode@@@std@@AAEXQAVNode@@QAV_Ref_count_base@1@@Z 00422e50 f i EnemyObject.obj
 0001:00021e80       ??$_Swap_adl@PAU?$_List_node@V?$shared_ptr@VNode@@@std@@PAX@std@@@std@@YAXAAPAU?$_List_node@V?$shared_ptr@VNode@@@std@@PAX@0@0@Z 00422e80 f i EnemyObject.obj
 0001:00021ea0       ??$_Unfancy@V?$shared_ptr@VNode@@@std@@@std@@YAPAV?$shared_ptr@VNode@@@0@PAV10@@Z 00422ea0 f i EnemyObject.obj
 0001:00021eb0       ??$_Uninitialized_value_construct_n_unchecked1@PAPAV?$shared_ptr@VNode@@@std@@I@std@@YAPAPAV?$shared_ptr@VNode@@@0@PAPAV10@I@Z 00422eb0 f i EnemyObject.obj
 0001:00021ee0       ??$_Verify_range@PAV?$shared_ptr@VNode@@@std@@@std@@YAXQBQAV?$shared_ptr@VNode@@@0@0@Z 00422ee0 f i EnemyObject.obj
 0001:00021f60       ??$_Zero_range@PAPAV?$shared_ptr@VNode@@@std@@@std@@YAPAPAV?$shared_ptr@VNode@@@0@QAPAV10@0@Z 00422f60 f i EnemyObject.obj
 0001:00021fa0       ??$addressof@PAU?$_List_node@V?$shared_ptr@VNode@@@std@@PAX@std@@@std@@YAPAPAU?$_List_node@V?$shared_ptr@VNode@@@std@@PAX@0@AAPAU10@@Z 00422fa0 f i EnemyObject.obj
 0001:00021fb0       ??$addressof@V?$_Deque_val@U?$_Deque_simple_types@V?$shared_ptr@VNode@@@std@@@std@@@std@@@std@@YAPAV?$_Deque_val@U?$_Deque_simple_types@V?$shared_ptr@VNode@@@std@@@std@@@0@AAV10@@Z 00422fb0 f i EnemyObject.obj
 0001:00021fc0       ??$addressof@V?$_List_val@U?$_List_simple_types@V?$shared_ptr@VNode@@@std@@@std@@@std@@@std@@YAPAV?$_List_val@U?$_List_simple_types@V?$shared_ptr@VNode@@@std@@@std@@@0@AAV10@@Z 00422fc0 f i EnemyObject.obj
 0001:00021fd0       ??$addressof@V?$_Vector_val@U?$_Simple_types@PAVDisplayableObject@@@std@@@std@@@std@@YAPAV?$_Vector_val@U?$_Simple_types@PAVDisplayableObject@@@std@@@0@AAV10@@Z 00422fd0 f i EnemyObject.obj
 0001:00021fe0       ??$addressof@V?$list@V?$shared_ptr@VNode@@@std@@V?$allocator@V?$shared_ptr@VNode@@@std@@@2@@std@@@std@@YAPAV?$list@V?$shared_ptr@VNode@@@std@@V?$allocator@V?$shared_ptr@VNode@@@std@@@2@@0@AAV10@@Z 00422fe0 f i EnemyObject.obj
 0001:00021ff0       ??$addressof@V?$shared_ptr@VNode@@@std@@@std@@YAPAV?$shared_ptr@VNode@@@0@AAV10@@Z 00422ff0 f i EnemyObject.obj
 0001:00022000       ??$construct@V?$shared_ptr@VNode@@@std@@ABV12@@?$_Default_allocator_traits@V?$allocator@U?$_List_node@V?$shared_ptr@VNode@@@std@@PAX@std@@@std@@@std@@SAXAAV?$allocator@U?$_List_node@V?$shared_ptr@VNode@@@std@@PAX@std@@@1@QAV?$shared_ptr@VNode@@@1@ABV31@@Z 00423000 f i EnemyObject.obj
 0001:00022040       ??$construct@V?$shared_ptr@VNode@@@std@@V12@@?$_Default_allocator_traits@V?$allocator@U?$_List_node@V?$shared_ptr@VNode@@@std@@PAX@std@@@std@@@std@@SAXAAV?$allocator@U?$_List_node@V?$shared_ptr@VNode@@@std@@PAX@std@@@1@QAV?$shared_ptr@VNode@@@1@$$QAV31@@Z 00423040 f i EnemyObject.obj
 0001:00022080       ??$construct@V?$shared_ptr@VNode@@@std@@V12@@?$_Default_allocator_traits@V?$allocator@V?$shared_ptr@VNode@@@std@@@std@@@std@@SAXAAV?$allocator@V?$shared_ptr@VNode@@@std@@@1@QAV?$shared_ptr@VNode@@@1@$$QAV31@@Z 00423080 f i EnemyObject.obj
 0001:000220c0       ??$destroy@PAU?$_List_node@V?$shared_ptr@VNode@@@std@@PAX@std@@@?$_Default_allocator_traits@V?$allocator@U?$_List_node@V?$shared_ptr@VNode@@@std@@PAX@std@@@std@@@std@@SAXAAV?$allocator@U?$_List_node@V?$shared_ptr@VNode@@@std@@PAX@std@@@1@QAPAU?$_List_node@V?$shared_ptr@VNode@@@std@@PAX@1@@Z 004230c0 f i EnemyObject.obj
 0001:000220d0       ??$destroy@PAVDisplayableObject@@@?$_Default_allocator_traits@V?$allocator@PAVDisplayableObject@@@std@@@std@@SAXAAV?$allocator@PAVDisplayableObject@@@1@QAPAVDisplayableObject@@@Z 004230d0 f i EnemyObject.obj
 0001:000220e0       ??$destroy@V?$shared_ptr@VNode@@@std@@@?$_Default_allocator_traits@V?$allocator@U?$_List_node@V?$shared_ptr@VNode@@@std@@PAX@std@@@std@@@std@@SAXAAV?$allocator@U?$_List_node@V?$shared_ptr@VNode@@@std@@PAX@std@@@1@QAV?$shared_ptr@VNode@@@1@@Z 004230e0 f i EnemyObject.obj
 0001:00022100       ??$destroy@V?$shared_ptr@VNode@@@std@@@?$_Default_allocator_traits@V?$allocator@V?$shared_ptr@VNode@@@std@@@std@@@std@@SAXAAV?$allocator@V?$shared_ptr@VNode@@@std@@@1@QAV?$shared_ptr@VNode@@@1@@Z 00423100 f i EnemyObject.obj
 0001:00022120       ??$exchange@PAU?$_List_node@V?$shared_ptr@VNode@@@std@@PAX@std@@PAU12@@std@@YAPAU?$_List_node@V?$shared_ptr@VNode@@@std@@PAX@0@AAPAU10@$$QAPAU10@@Z 00423120 f i EnemyObject.obj
 0001:00022150       ??$exchange@PAU_Container_proxy@std@@$$T@std@@YAPAU_Container_proxy@0@AAPAU10@$$QA$$T@Z 00423150 f i EnemyObject.obj
 0001:00022180       ??$find@V?$_Vector_iterator@V?$_Vector_val@U?$_Simple_types@PAVDisplayableObject@@@std@@@std@@@std@@PAVDisplayableObject@@@std@@YA?AV?$_Vector_iterator@V?$_Vector_val@U?$_Simple_types@PAVDisplayableObject@@@std@@@std@@@0@V10@V10@ABQAVDisplayableObject@@@Z 00423180 f i EnemyObject.obj
 0001:00022270       ??$forward@AAPAU?$_List_node@V?$shared_ptr@VNode@@@std@@PAX@std@@@std@@YAAAPAU?$_List_node@V?$shared_ptr@VNode@@@std@@PAX@0@AAPAU10@@Z 00423270 f i EnemyObject.obj
 0001:00022280       ??$forward@ABQAU?$_List_node@V?$shared_ptr@VNode@@@std@@PAX@std@@@std@@YAABQAU?$_List_node@V?$shared_ptr@VNode@@@std@@PAX@0@ABQAU10@@Z 00423280 f i EnemyObject.obj
 0001:00022290       ??$forward@ABV?$shared_ptr@VNode@@@std@@@std@@YAABV?$shared_ptr@VNode@@@0@ABV10@@Z 00423290 f i EnemyObject.obj
 0001:000222a0       ??$forward@V?$allocator@U?$_List_node@V?$shared_ptr@VNode@@@std@@PAX@std@@@std@@@std@@YA$$QAV?$allocator@U?$_List_node@V?$shared_ptr@VNode@@@std@@PAX@std@@@0@AAV10@@Z 004232a0 f i EnemyObject.obj
 0001:000222b0       ??$forward@V?$shared_ptr@VNode@@@std@@@std@@YA$$QAV?$shared_ptr@VNode@@@0@AAV10@@Z 004232b0 f i EnemyObject.obj
 0001:000222c0       ??$move@AAI@std@@YA$$QAIAAI@Z 004232c0 f i EnemyObject.obj
 0001:000222d0       ??$move@AAPAU?$_List_node@V?$shared_ptr@VNode@@@std@@PAX@std@@@std@@YA$$QAPAU?$_List_node@V?$shared_ptr@VNode@@@std@@PAX@0@AAPAU10@@Z 004232d0 f i EnemyObject.obj
 0001:000222e0       ??$move@AAPAVNode@@@std@@YA$$QAPAVNode@@AAPAV1@@Z 004232e0 f i EnemyObject.obj
 0001:000222f0       ??$move@AAV?$allocator@U?$_List_node@V?$shared_ptr@VNode@@@std@@PAX@std@@@std@@@std@@YA$$QAV?$allocator@U?$_List_node@V?$shared_ptr@VNode@@@std@@PAX@std@@@0@AAV10@@Z 004232f0 f i EnemyObject.obj
 0001:00022300       ??$move@AAV?$shared_ptr@VNode@@@std@@@std@@YA$$QAV?$shared_ptr@VNode@@@0@AAV10@@Z 00423300 f i EnemyObject.obj
 0001:00022310       ??$remove_if@V<lambda_fb74a5899e677716be4aaee1512acc1d>@@@?$list@V?$shared_ptr@VNode@@@std@@V?$allocator@V?$shared_ptr@VNode@@@std@@@2@@std@@QAE@V<lambda_fb74a5899e677716be4aaee1512acc1d>@@@Z 00423310 f i EnemyObject.obj
 0001:00022400       ??$round@HX@@YANH@Z        00423400 f i EnemyObject.obj
 0001:00022430       ??$swap@IX@std@@YAXAAI0@Z  00423430 f i EnemyObject.obj
 0001:00022480       ??$swap@PAU?$_List_node@V?$shared_ptr@VNode@@@std@@PAX@std@@X@std@@YAXAAPAU?$_List_node@V?$shared_ptr@VNode@@@std@@PAX@0@0@Z 00423480 f i EnemyObject.obj
 0001:000224d0       ??$swap@PAVNode@@X@std@@YAXAAPAVNode@@0@Z 004234d0 f i EnemyObject.obj
 0001:00022520       ??$uninitialized_copy@PAPAV?$shared_ptr@VNode@@@std@@PAPAV12@@std@@YAPAPAV?$shared_ptr@VNode@@@0@QAPAV10@0PAPAV10@@Z 00423520 f i EnemyObject.obj
 0001:000225d0       ??0<lambda_fb74a5899e677716be4aaee1512acc1d>@@QAE@ABV?$shared_ptr@VNode@@@std@@@Z 004235d0 f i EnemyObject.obj
 0001:000225f0       ??0?$_Alloc_construct_ptr@V?$allocator@U?$_List_node@V?$shared_ptr@VNode@@@std@@PAX@std@@@std@@@std@@QAE@AAV?$allocator@U?$_List_node@V?$shared_ptr@VNode@@@std@@PAX@std@@@1@@Z 004235f0 f i EnemyObject.obj
 0001:00022620       ??0?$_Deque_unchecked_const_iterator@V?$_Deque_val@U?$_Deque_simple_types@V?$shared_ptr@VNode@@@std@@@std@@@std@@@std@@QAE@IPBU_Container_base12@1@@Z 00423620 f i EnemyObject.obj
 0001:00022650       ??0?$_Deque_unchecked_iterator@V?$_Deque_val@U?$_Deque_simple_types@V?$shared_ptr@VNode@@@std@@@std@@@std@@@std@@QAE@IPBU_Container_base12@1@@Z 00423650 f i EnemyObject.obj
 0001:00022680       ??0?$_Deque_val@U?$_Deque_simple_types@V?$shared_ptr@VNode@@@std@@@std@@@std@@QAE@XZ 00423680 f i EnemyObject.obj
 0001:000226d0       ??0?$_List_const_iterator@V?$_List_val@U?$_List_simple_types@V?$shared_ptr@VNode@@@std@@@std@@@std@@@std@@QAE@$$QAV01@@Z 004236d0 f i EnemyObject.obj
 0001:00022700       ??0?$_List_const_iterator@V?$_List_val@U?$_List_simple_types@V?$shared_ptr@VNode@@@std@@@std@@@std@@@std@@QAE@ABV01@@Z 00423700 f i EnemyObject.obj
 0001:00022730       ??0?$_List_const_iterator@V?$_List_val@U?$_List_simple_types@V?$shared_ptr@VNode@@@std@@@std@@@std@@@std@@QAE@PAU?$_List_node@V?$shared_ptr@VNode@@@std@@PAX@1@PBV?$_List_val@U?$_List_simple_types@V?$shared_ptr@VNode@@@std@@@std@@@1@@Z 00423730 f i EnemyObject.obj
 0001:00022760       ??0?$_List_iterator@V?$_List_val@U?$_List_simple_types@V?$shared_ptr@VNode@@@std@@@std@@@std@@@std@@QAE@$$QAV01@@Z 00423760 f i EnemyObject.obj
 0001:00022790       ??0?$_List_iterator@V?$_List_val@U?$_List_simple_types@V?$shared_ptr@VNode@@@std@@@std@@@std@@@std@@QAE@ABV01@@Z 00423790 f i EnemyObject.obj
 0001:000227c0       ??0?$_List_iterator@V?$_List_val@U?$_List_simple_types@V?$shared_ptr@VNode@@@std@@@std@@@std@@@std@@QAE@PAU?$_List_node@V?$shared_ptr@VNode@@@std@@PAX@1@PBV?$_List_val@U?$_List_simple_types@V?$shared_ptr@VNode@@@std@@@std@@@1@@Z 004237c0 f i EnemyObject.obj
 0001:000227f0       ??0?$_List_unchecked_const_iterator@V?$_List_val@U?$_List_simple_types@V?$shared_ptr@VNode@@@std@@@std@@@std@@U_Iterator_base12@2@@std@@QAE@$$QAV01@@Z 004237f0 f i EnemyObject.obj
 0001:00022830       ??0?$_List_unchecked_const_iterator@V?$_List_val@U?$_List_simple_types@V?$shared_ptr@VNode@@@std@@@std@@@std@@U_Iterator_base12@2@@std@@QAE@ABV01@@Z 00423830 f i EnemyObject.obj
 0001:00022870       ??0?$_List_unchecked_const_iterator@V?$_List_val@U?$_List_simple_types@V?$shared_ptr@VNode@@@std@@@std@@@std@@U_Iterator_base12@2@@std@@QAE@PAU?$_List_node@V?$shared_ptr@VNode@@@std@@PAX@1@PBV?$_List_val@U?$_List_simple_types@V?$shared_ptr@VNode@@@std@@@std@@@1@@Z 00423870 f i EnemyObject.obj
 0001:000228b0       ??0?$_List_val@U?$_List_simple_types@V?$shared_ptr@VNode@@@std@@@std@@@std@@QAE@XZ 004238b0 f i EnemyObject.obj
 0001:000228f0       ??0?$_Ptr_base@VNode@@@std@@IAE@XZ 004238f0 f i EnemyObject.obj
 0001:00022920       ??0?$_Ref_count@VNode@@@std@@QAE@PAVNode@@@Z 00423920 f i EnemyObject.obj
 0001:00022970       ??0?$_Temporary_owner@VNode@@@std@@QAE@QAVNode@@@Z 00423970 f i EnemyObject.obj
 0001:00022990       ??0?$_Vector_const_iterator@V?$_Vector_val@U?$_Simple_types@PAVDisplayableObject@@@std@@@std@@@std@@QAE@$$QAV01@@Z 00423990 f i EnemyObject.obj
 0001:000229d0       ??0?$_Vector_const_iterator@V?$_Vector_val@U?$_Simple_types@PAVDisplayableObject@@@std@@@std@@@std@@QAE@ABV01@@Z 004239d0 f i EnemyObject.obj
 0001:00022a10       ??0?$_Vector_const_iterator@V?$_Vector_val@U?$_Simple_types@PAVDisplayableObject@@@std@@@std@@@std@@QAE@PAPAVDisplayableObject@@PBU_Container_base12@1@@Z 00423a10 f i EnemyObject.obj
 0001:00022a50       ??0?$_Vector_iterator@V?$_Vector_val@U?$_Simple_types@PAVDisplayableObject@@@std@@@std@@@std@@QAE@$$QAV01@@Z 00423a50 f i EnemyObject.obj
 0001:00022a80       ??0?$_Vector_iterator@V?$_Vector_val@U?$_Simple_types@PAVDisplayableObject@@@std@@@std@@@std@@QAE@PAPAVDisplayableObject@@PBU_Container_base12@1@@Z 00423a80 f i EnemyObject.obj
 0001:00022ab0       ??0?$allocator@U?$_List_node@V?$shared_ptr@VNode@@@std@@PAX@std@@@std@@QAE@XZ 00423ab0 f i EnemyObject.obj
 0001:00022ad0       ??0?$allocator@V?$shared_ptr@VNode@@@std@@@std@@QAE@XZ 00423ad0 f i EnemyObject.obj
 0001:00022af0       ??0?$deque@V?$shared_ptr@VNode@@@std@@V?$allocator@V?$shared_ptr@VNode@@@std@@@2@@std@@QAE@XZ 00423af0 f i EnemyObject.obj
 0001:00022b40       ??0?$list@V?$shared_ptr@VNode@@@std@@V?$allocator@V?$shared_ptr@VNode@@@std@@@2@@std@@QAE@$$QAV01@@Z 00423b40 f i EnemyObject.obj
 0001:00022ba0       ??0?$list@V?$shared_ptr@VNode@@@std@@V?$allocator@V?$shared_ptr@VNode@@@std@@@2@@std@@QAE@XZ 00423ba0 f i EnemyObject.obj
 0001:00022bd0       ??0?$queue@V?$shared_ptr@VNode@@@std@@V?$deque@V?$shared_ptr@VNode@@@std@@V?$allocator@V?$shared_ptr@VNode@@@std@@@2@@2@@std@@QAE@XZ 00423bd0 f i EnemyObject.obj
 0001:00022c20       ??0?$shared_ptr@VNode@@@std@@QAE@$$QAV01@@Z 00423c20 f i EnemyObject.obj
 0001:00022c60       ??0?$shared_ptr@VNode@@@std@@QAE@$$T@Z 00423c60 f i EnemyObject.obj
 0001:00022c80       ??0?$shared_ptr@VNode@@@std@@QAE@ABV01@@Z 00423c80 f i EnemyObject.obj
 0001:00022cb0       ??0?$shared_ptr@VNode@@@std@@QAE@XZ 00423cb0 f i EnemyObject.obj
 0001:00022cd0       ??0Node@@QAE@ABV0@@Z       00423cd0 f i EnemyObject.obj
 0001:00022d40       ??0Node@@QAE@HHHHV?$shared_ptr@VNode@@@std@@@Z 00423d40 f i EnemyObject.obj
 0001:00022db0       ??0_List_node_remove_op@?$list@V?$shared_ptr@VNode@@@std@@V?$allocator@V?$shared_ptr@VNode@@@std@@@2@@std@@QAE@AAV12@@Z 00423db0 f i EnemyObject.obj
 0001:00022e00       ??1?$_Alloc_construct_ptr@V?$allocator@U?$_List_node@V?$shared_ptr@VNode@@@std@@PAX@std@@@std@@@std@@QAE@XZ 00423e00 f i EnemyObject.obj
 0001:00022e70       ??1?$_List_const_iterator@V?$_List_val@U?$_List_simple_types@V?$shared_ptr@VNode@@@std@@@std@@@std@@@std@@QAE@XZ 00423e70 f i EnemyObject.obj
 0001:00022e90       ??1?$_List_iterator@V?$_List_val@U?$_List_simple_types@V?$shared_ptr@VNode@@@std@@@std@@@std@@@std@@QAE@XZ 00423e90 f i EnemyObject.obj
 0001:00022eb0       ??1?$_List_node_emplace_op2@V?$allocator@U?$_List_node@V?$shared_ptr@VNode@@@std@@PAX@std@@@std@@@std@@QAE@XZ 00423eb0 f i EnemyObject.obj
 0001:00022f30       ??1?$_List_unchecked_const_iterator@V?$_List_val@U?$_List_simple_types@V?$shared_ptr@VNode@@@std@@@std@@@std@@U_Iterator_base12@2@@std@@QAE@XZ 00423f30 f i EnemyObject.obj
 0001:00022f50       ??1?$_Ref_count@VNode@@@std@@UAE@XZ 00423f50 f i EnemyObject.obj
 0001:00022f70       ??1?$_Temporary_owner@VNode@@@std@@QAE@XZ 00423f70 f i EnemyObject.obj
 0001:00022fb0       ??1?$_Vector_const_iterator@V?$_Vector_val@U?$_Simple_types@PAVDisplayableObject@@@std@@@std@@@std@@QAE@XZ 00423fb0 f i EnemyObject.obj
 0001:00022fd0       ??1?$_Vector_iterator@V?$_Vector_val@U?$_Simple_types@PAVDisplayableObject@@@std@@@std@@@std@@QAE@XZ 00423fd0 f i EnemyObject.obj
 0001:00022ff0       ??1?$deque@V?$shared_ptr@VNode@@@std@@V?$allocator@V?$shared_ptr@VNode@@@std@@@2@@std@@QAE@XZ 00423ff0 f i EnemyObject.obj
 0001:00023090       ??1?$list@V?$shared_ptr@VNode@@@std@@V?$allocator@V?$shared_ptr@VNode@@@std@@@2@@std@@QAE@XZ 00424090 f i EnemyObject.obj
 0001:000230e0       ??1?$queue@V?$shared_ptr@VNode@@@std@@V?$deque@V?$shared_ptr@VNode@@@std@@V?$allocator@V?$shared_ptr@VNode@@@std@@@2@@2@@std@@QAE@XZ 004240e0 f i EnemyObject.obj
 0001:00023100       ??1?$shared_ptr@VNode@@@std@@QAE@XZ 00424100 f i EnemyObject.obj
 0001:00023120       ??1Node@@QAE@XZ            00424120 f i EnemyObject.obj
 0001:00023140       ??1_List_node_remove_op@?$list@V?$shared_ptr@VNode@@@std@@V?$allocator@V?$shared_ptr@VNode@@@std@@@2@@std@@QAE@XZ 00424140 f i EnemyObject.obj
 0001:000232d0       ??4?$list@V?$shared_ptr@VNode@@@std@@V?$allocator@V?$shared_ptr@VNode@@@std@@@2@@std@@QAEAAV01@$$QAV01@@Z 004242d0 f i EnemyObject.obj
 0001:00023320       ??4?$shared_ptr@VNode@@@std@@QAEAAV01@ABV01@@Z 00424320 f i EnemyObject.obj
 0001:00023360       ??8?$_List_const_iterator@V?$_List_val@U?$_List_simple_types@V?$shared_ptr@VNode@@@std@@@std@@@std@@@std@@QBE_NABV01@@Z 00424360 f i EnemyObject.obj
 0001:00023420       ??8?$_Vector_const_iterator@V?$_Vector_val@U?$_Simple_types@PAVDisplayableObject@@@std@@@std@@@std@@QBE_NABV01@@Z 00424420 f i EnemyObject.obj
 0001:00023470       ??9?$_List_const_iterator@V?$_List_val@U?$_List_simple_types@V?$shared_ptr@VNode@@@std@@@std@@@std@@@std@@QBE_NABV01@@Z 00424470 f i EnemyObject.obj
 0001:000234c0       ??9?$_Vector_const_iterator@V?$_Vector_val@U?$_Simple_types@PAVDisplayableObject@@@std@@@std@@@std@@QBE_NABV01@@Z 004244c0 f i EnemyObject.obj
 0001:00023510       ??A?$vector@PAVDisplayableObject@@V?$allocator@PAVDisplayableObject@@@std@@@std@@QBEABQAVDisplayableObject@@I@Z 00424510 f i EnemyObject.obj
 0001:000235c0       ??D?$_Deque_unchecked_const_iterator@V?$_Deque_val@U?$_Deque_simple_types@V?$shared_ptr@VNode@@@std@@@std@@@std@@@std@@QBEABV?$shared_ptr@VNode@@@1@XZ 004245c0 f i EnemyObject.obj
 0001:00023620       ??D?$_Deque_unchecked_iterator@V?$_Deque_val@U?$_Deque_simple_types@V?$shared_ptr@VNode@@@std@@@std@@@std@@@std@@QBEAAV?$shared_ptr@VNode@@@1@XZ 00424620 f i EnemyObject.obj
 0001:00023640       ??D?$_List_const_iterator@V?$_List_val@U?$_List_simple_types@V?$shared_ptr@VNode@@@std@@@std@@@std@@@std@@QBEABV?$shared_ptr@VNode@@@1@XZ 00424640 f i EnemyObject.obj
 0001:00023750       ??D?$_List_iterator@V?$_List_val@U?$_List_simple_types@V?$shared_ptr@VNode@@@std@@@std@@@std@@@std@@QBEAAV?$shared_ptr@VNode@@@1@XZ 00424750 f i EnemyObject.obj
 0001:00023770       ??E?$_List_const_iterator@V?$_List_val@U?$_List_simple_types@V?$shared_ptr@VNode@@@std@@@std@@@std@@@std@@QAEAAV01@XZ 00424770 f i EnemyObject.obj
 0001:00023890       ??E?$_List_iterator@V?$_List_val@U?$_List_simple_types@V?$shared_ptr@VNode@@@std@@@std@@@std@@@std@@QAE?AV01@H@Z 00424890 f i EnemyObject.obj
 0001:00023940       ??R<lambda_fb74a5899e677716be4aaee1512acc1d>@@QBE@ABV?$shared_ptr@VNode@@@std@@@Z 00424940 f i EnemyObject.obj
 0001:00023970       ??_G?$_Ref_count@VNode@@@std@@UAEPAXI@Z 00424970 f i EnemyObject.obj
 0001:00023970       ??_E?$_Ref_count@VNode@@@std@@UAEPAXI@Z 00424970 f i EnemyObject.obj
 0001:000239b0       ??_G?$shared_ptr@VNode@@@std@@QAEPAXI@Z 004249b0 f i EnemyObject.obj
 0001:000239f0       ??_GEnemyObject@@UAEPAXI@Z 004249f0 f i EnemyObject.obj
 0001:000239f0       ??_EEnemyObject@@UAEPAXI@Z 004249f0 f i EnemyObject.obj
 0001:00023a30       ??_GNode@@QAEPAXI@Z        00424a30 f i EnemyObject.obj
 0001:00023a70       ?GetPlayer@GameEngine@@QAEPAVPlayerObject@@XZ 00424a70 f i EnemyObject.obj
 0001:00023a90       ?_Alloc_sentinel_and_proxy@?$list@V?$shared_ptr@VNode@@@std@@V?$allocator@V?$shared_ptr@VNode@@@std@@@2@@std@@AAEXXZ 00424a90 f i EnemyObject.obj
 0001:00023b80       ?_Allocate@?$_Alloc_construct_ptr@V?$allocator@U?$_List_node@V?$shared_ptr@VNode@@@std@@PAX@std@@@std@@@std@@QAEXXZ 00424b80 f i EnemyObject.obj
 0001:00023bb0       ?_Compat@?$_Vector_const_iterator@V?$_Vector_val@U?$_Simple_types@PAVDisplayableObject@@@std@@@std@@@std@@QBEXABV12@@Z 00424bb0 f i EnemyObject.obj
 0001:00023c50       ?_Decref@?$_Ptr_base@VNode@@@std@@IAEXXZ 00424c50 f i EnemyObject.obj
 0001:00023c80       ?_Delete_this@?$_Ref_count@VNode@@@std@@EAEXXZ 00424c80 f i EnemyObject.obj
 0001:00023cd0       ?_Destroy@?$_Ref_count@VNode@@@std@@EAEXXZ 00424cd0 f i EnemyObject.obj
 0001:00023d10       ?_Get_data@?$deque@V?$shared_ptr@VNode@@@std@@V?$allocator@V?$shared_ptr@VNode@@@std@@@2@@std@@AAEAAV?$_Deque_val@U?$_Deque_simple_types@V?$shared_ptr@VNode@@@std@@@std@@@2@XZ 00424d10 f i EnemyObject.obj
 0001:00023d30       ?_Get_data@?$deque@V?$shared_ptr@VNode@@@std@@V?$allocator@V?$shared_ptr@VNode@@@std@@@2@@std@@ABEABV?$_Deque_val@U?$_Deque_simple_types@V?$shared_ptr@VNode@@@std@@@std@@@2@XZ 00424d30 f i EnemyObject.obj
 0001:00023d50       ?_Get_first@?$_Compressed_pair@V?$allocator@U?$_List_node@V?$shared_ptr@VNode@@@std@@PAX@std@@@std@@V?$_List_val@U?$_List_simple_types@V?$shared_ptr@VNode@@@std@@@std@@@2@$00@std@@QAEAAV?$allocator@U?$_List_node@V?$shared_ptr@VNode@@@std@@PAX@std@@@2@XZ 00424d50 f i EnemyObject.obj
 0001:00023d70       ?_Get_first@?$_Compressed_pair@V?$allocator@U?$_List_node@V?$shared_ptr@VNode@@@std@@PAX@std@@@std@@V?$_List_val@U?$_List_simple_types@V?$shared_ptr@VNode@@@std@@@std@@@2@$00@std@@QBEABV?$allocator@U?$_List_node@V?$shared_ptr@VNode@@@std@@PAX@std@@@2@XZ 00424d70 f i EnemyObject.obj
 0001:00023d90       ?_Get_first@?$_Compressed_pair@V?$allocator@V?$shared_ptr@VNode@@@std@@@std@@V?$_Deque_val@U?$_Deque_simple_types@V?$shared_ptr@VNode@@@std@@@std@@@2@$00@std@@QAEAAV?$allocator@V?$shared_ptr@VNode@@@std@@@2@XZ 00424d90 f i EnemyObject.obj
 0001:00023db0       ?_Get_first@?$_Compressed_pair@V?$allocator@V?$shared_ptr@VNode@@@std@@@std@@V?$_Deque_val@U?$_Deque_simple_types@V?$shared_ptr@VNode@@@std@@@std@@@2@$00@std@@QBEABV?$allocator@V?$shared_ptr@VNode@@@std@@@2@XZ 00424db0 f i EnemyObject.obj
 0001:00023dd0       ?_Getal@?$deque@V?$shared_ptr@VNode@@@std@@V?$allocator@V?$shared_ptr@VNode@@@std@@@2@@std@@AAEAAV?$allocator@V?$shared_ptr@VNode@@@std@@@2@XZ 00424dd0 f i EnemyObject.obj
 0001:00023df0       ?_Getal@?$deque@V?$shared_ptr@VNode@@@std@@V?$allocator@V?$shared_ptr@VNode@@@std@@@2@@std@@ABEABV?$allocator@V?$shared_ptr@VNode@@@std@@@2@XZ 00424df0 f i EnemyObject.obj
 0001:00023e10       ?_Getal@?$list@V?$shared_ptr@VNode@@@std@@V?$allocator@V?$shared_ptr@VNode@@@std@@@2@@std@@AAEAAV?$allocator@U?$_List_node@V?$shared_ptr@VNode@@@std@@PAX@std@@@2@XZ 00424e10 f i EnemyObject.obj
 0001:00023e30       ?_Getal@?$list@V?$shared_ptr@VNode@@@std@@V?$allocator@V?$shared_ptr@VNode@@@std@@@2@@std@@ABEABV?$allocator@U?$_List_node@V?$shared_ptr@VNode@@@std@@PAX@std@@@2@XZ 00424e30 f i EnemyObject.obj
 0001:00023e50       ?_Getblock@?$_Deque_val@U?$_Deque_simple_types@V?$shared_ptr@VNode@@@std@@@std@@@std@@QBEII@Z 00424e50 f i EnemyObject.obj
 0001:00023e80       ?_Getblock@?$deque@V?$shared_ptr@VNode@@@std@@V?$allocator@V?$shared_ptr@VNode@@@std@@@2@@std@@ABEII@Z 00424e80 f i EnemyObject.obj
 0001:00023eb0       ?_Growmap@?$deque@V?$shared_ptr@VNode@@@std@@V?$allocator@V?$shared_ptr@VNode@@@std@@@2@@std@@AAEXI@Z 00424eb0 f i EnemyObject.obj
 0001:00024190       ?_Map@?$deque@V?$shared_ptr@VNode@@@std@@V?$allocator@V?$shared_ptr@VNode@@@std@@@2@@std@@AAEAAPAPAV?$shared_ptr@VNode@@@2@XZ 00425190 f i EnemyObject.obj
 0001:000241b0       ?_Mapsize@?$deque@V?$shared_ptr@VNode@@@std@@V?$allocator@V?$shared_ptr@VNode@@@std@@@2@@std@@AAEAAIXZ 004251b0 f i EnemyObject.obj
 0001:000241d0       ?_Move_assign@?$list@V?$shared_ptr@VNode@@@std@@V?$allocator@V?$shared_ptr@VNode@@@std@@@2@@std@@AAEXAAV12@U_Equal_allocators@2@@Z 004251d0 f i EnemyObject.obj
 0001:00024220       ?_Myoff@?$deque@V?$shared_ptr@VNode@@@std@@V?$allocator@V?$shared_ptr@VNode@@@std@@@2@@std@@AAEAAIXZ 00425220 f i EnemyObject.obj
 0001:00024240       ?_Myoff@?$deque@V?$shared_ptr@VNode@@@std@@V?$allocator@V?$shared_ptr@VNode@@@std@@@2@@std@@ABEABIXZ 00425240 f i EnemyObject.obj
 0001:00024260       ?_Mysize@?$deque@V?$shared_ptr@VNode@@@std@@V?$allocator@V?$shared_ptr@VNode@@@std@@@2@@std@@AAEAAIXZ 00425260 f i EnemyObject.obj
 0001:00024280       ?_Mysize@?$deque@V?$shared_ptr@VNode@@@std@@V?$allocator@V?$shared_ptr@VNode@@@std@@@2@@std@@ABEABIXZ 00425280 f i EnemyObject.obj
 0001:000242a0       ?_Orphan_all@?$deque@V?$shared_ptr@VNode@@@std@@V?$allocator@V?$shared_ptr@VNode@@@std@@@2@@std@@AAEXXZ 004252a0 f i EnemyObject.obj
 0001:000242c0       ?_Orphan_non_end@?$_List_val@U?$_List_simple_types@V?$shared_ptr@VNode@@@std@@@std@@@std@@QAEXXZ 004252c0 f i EnemyObject.obj
 0001:00024360       ?_Orphan_off@?$deque@V?$shared_ptr@VNode@@@std@@V?$allocator@V?$shared_ptr@VNode@@@std@@@2@@std@@ABEXI@Z 00425360 f i EnemyObject.obj
 0001:00024460       ?_Orphan_ptr2@?$_List_val@U?$_List_simple_types@V?$shared_ptr@VNode@@@std@@@std@@@std@@QAEXPAU?$_List_node@V?$shared_ptr@VNode@@@std@@PAX@2@@Z 00425460 f i EnemyObject.obj
 0001:00024510       ?_Seek_to@?$_Vector_const_iterator@V?$_Vector_val@U?$_Simple_types@PAVDisplayableObject@@@std@@@std@@@std@@QAEXPBQAVDisplayableObject@@@Z 00425510 f i EnemyObject.obj
 0001:00024540       ?_Swap@?$_Ptr_base@VNode@@@std@@IAEXAAV12@@Z 00425540 f i EnemyObject.obj
 0001:00024580       ?_Swap_val@?$list@V?$shared_ptr@VNode@@@std@@V?$allocator@V?$shared_ptr@VNode@@@std@@@2@@std@@AAEXAAV12@@Z 00425580 f i EnemyObject.obj
 0001:000245f0       ?_Tidy@?$deque@V?$shared_ptr@VNode@@@std@@V?$allocator@V?$shared_ptr@VNode@@@std@@@2@@std@@AAEXXZ 004255f0 f i EnemyObject.obj
 0001:00024760       ?_Tidy@?$list@V?$shared_ptr@VNode@@@std@@V?$allocator@V?$shared_ptr@VNode@@@std@@@2@@std@@AAEXXZ 00425760 f i EnemyObject.obj
 0001:000247c0       ?_Transfer_back@_List_node_remove_op@?$list@V?$shared_ptr@VNode@@@std@@V?$allocator@V?$shared_ptr@VNode@@@std@@@2@@std@@QAEPAU?$_List_node@V?$shared_ptr@VNode@@@std@@PAX@3@QAU43@@Z 004257c0 f i EnemyObject.obj
 0001:000248a0       ?_Transfer_before@?$_List_node_emplace_op2@V?$allocator@U?$_List_node@V?$shared_ptr@VNode@@@std@@PAX@std@@@std@@@std@@QAEPAU?$_List_node@V?$shared_ptr@VNode@@@std@@PAX@2@QAU32@@Z 004258a0 f i EnemyObject.obj
 0001:00024930       ?_Unchecked_begin@?$deque@V?$shared_ptr@VNode@@@std@@V?$allocator@V?$shared_ptr@VNode@@@std@@@2@@std@@QAE?AV?$_Deque_unchecked_iterator@V?$_Deque_val@U?$_Deque_simple_types@V?$shared_ptr@VNode@@@std@@@std@@@std@@@2@XZ 00425930 f i EnemyObject.obj
 0001:00024980       ?_Unchecked_erase@?$list@V?$shared_ptr@VNode@@@std@@V?$allocator@V?$shared_ptr@VNode@@@std@@@2@@std@@AAEPAU?$_List_node@V?$shared_ptr@VNode@@@std@@PAX@2@QAU32@@Z 00425980 f i EnemyObject.obj
 0001:00024a00       ?_Unwrapped@?$_Vector_iterator@V?$_Vector_val@U?$_Simple_types@PAVDisplayableObject@@@std@@@std@@@std@@QBEPAPAVDisplayableObject@@XZ 00425a00 f i EnemyObject.obj
 0001:00024a20       ?_Verify_range@std@@YAXABV?$_Vector_const_iterator@V?$_Vector_val@U?$_Simple_types@PAVDisplayableObject@@@std@@@std@@@1@0@Z 00425a20 f i EnemyObject.obj
 0001:00024b20       ?_Xlen@?$deque@V?$shared_ptr@VNode@@@std@@V?$allocator@V?$shared_ptr@VNode@@@std@@@2@@std@@ABEXXZ 00425b20 f i EnemyObject.obj
 0001:00024b40       ?allocate@?$allocator@PAV?$shared_ptr@VNode@@@std@@@std@@QAEPAPAV?$shared_ptr@VNode@@@2@I@Z 00425b40 f i EnemyObject.obj
 0001:00024b70       ?allocate@?$allocator@U?$_List_node@V?$shared_ptr@VNode@@@std@@PAX@std@@@std@@QAEPAU?$_List_node@V?$shared_ptr@VNode@@@std@@PAX@2@I@Z 00425b70 f i EnemyObject.obj
 0001:00024ba0       ?allocate@?$allocator@V?$shared_ptr@VNode@@@std@@@std@@QAEPAV?$shared_ptr@VNode@@@2@I@Z 00425ba0 f i EnemyObject.obj
 0001:00024bd0       ?begin@?$list@V?$shared_ptr@VNode@@@std@@V?$allocator@V?$shared_ptr@VNode@@@std@@@2@@std@@QAE?AV?$_List_iterator@V?$_List_val@U?$_List_simple_types@V?$shared_ptr@VNode@@@std@@@std@@@std@@@2@XZ 00425bd0 f i EnemyObject.obj
 0001:00024c10       ?begin@?$vector@PAVDisplayableObject@@V?$allocator@PAVDisplayableObject@@@std@@@std@@QAE?AV?$_Vector_iterator@V?$_Vector_val@U?$_Simple_types@PAVDisplayableObject@@@std@@@std@@@2@XZ 00425c10 f i EnemyObject.obj
 0001:00024c60       ?clear@?$list@V?$shared_ptr@VNode@@@std@@V?$allocator@V?$shared_ptr@VNode@@@std@@@2@@std@@QAEXXZ 00425c60 f i EnemyObject.obj
 0001:00024cd0       ?deallocate@?$_Default_allocator_traits@V?$allocator@U?$_List_node@V?$shared_ptr@VNode@@@std@@PAX@std@@@std@@@std@@SAXAAV?$allocator@U?$_List_node@V?$shared_ptr@VNode@@@std@@PAX@std@@@2@QAU?$_List_node@V?$shared_ptr@VNode@@@std@@PAX@2@I@Z 00425cd0 f i EnemyObject.obj
 0001:00024cf0       ?deallocate@?$allocator@PAV?$shared_ptr@VNode@@@std@@@std@@QAEXQAPAV?$shared_ptr@VNode@@@2@I@Z 00425cf0 f i EnemyObject.obj
 0001:00024d20       ?deallocate@?$allocator@U?$_List_node@V?$shared_ptr@VNode@@@std@@PAX@std@@@std@@QAEXQAU?$_List_node@V?$shared_ptr@VNode@@@std@@PAX@2@I@Z 00425d20 f i EnemyObject.obj
 0001:00024d50       ?deallocate@?$allocator@V?$shared_ptr@VNode@@@std@@@std@@QAEXQAV?$shared_ptr@VNode@@@2@I@Z 00425d50 f i EnemyObject.obj
 0001:00024d80       ?empty@?$deque@V?$shared_ptr@VNode@@@std@@V?$allocator@V?$shared_ptr@VNode@@@std@@@2@@std@@QBE_NXZ 00425d80 f i EnemyObject.obj
 0001:00024dc0       ?end@?$list@V?$shared_ptr@VNode@@@std@@V?$allocator@V?$shared_ptr@VNode@@@std@@@2@@std@@QAE?AV?$_List_iterator@V?$_List_val@U?$_List_simple_types@V?$shared_ptr@VNode@@@std@@@std@@@std@@@2@XZ 00425dc0 f i EnemyObject.obj
 0001:00024e00       ?end@?$vector@PAVDisplayableObject@@V?$allocator@PAVDisplayableObject@@@std@@@std@@QAE?AV?$_Vector_iterator@V?$_Vector_val@U?$_Simple_types@PAVDisplayableObject@@@std@@@std@@@2@XZ 00425e00 f i EnemyObject.obj
 0001:00024e50       ?erase@?$vector@PAVDisplayableObject@@V?$allocator@PAVDisplayableObject@@@std@@@std@@QAE?AV?$_Vector_iterator@V?$_Vector_val@U?$_Simple_types@PAVDisplayableObject@@@std@@@std@@@2@V?$_Vector_const_iterator@V?$_Vector_val@U?$_Simple_types@PAVDisplayableObject@@@std@@@std@@@2@@Z 00425e50 f i EnemyObject.obj
 0001:00025000       ?front@?$deque@V?$shared_ptr@VNode@@@std@@V?$allocator@V?$shared_ptr@VNode@@@std@@@2@@std@@QAEAAV?$shared_ptr@VNode@@@2@XZ 00426000 f i EnemyObject.obj
 0001:000250e0       ?front@?$list@V?$shared_ptr@VNode@@@std@@V?$allocator@V?$shared_ptr@VNode@@@std@@@2@@std@@QAEAAV?$shared_ptr@VNode@@@2@XZ 004260e0 f i EnemyObject.obj
 0001:00025170       ?front@?$queue@V?$shared_ptr@VNode@@@std@@V?$deque@V?$shared_ptr@VNode@@@std@@V?$allocator@V?$shared_ptr@VNode@@@std@@@2@@2@@std@@QAEAAV?$shared_ptr@VNode@@@2@XZ 00426170 f i EnemyObject.obj
 0001:00025190       ?get@?$_Ptr_base@VNode@@@std@@IBEPAVNode@@XZ 00426190 f i EnemyObject.obj
 0001:000251b0       ?get@?$_Ptr_base@VWeapon@@@std@@IBEPAVWeapon@@XZ 004261b0 f i EnemyObject.obj
 0001:000251d0       ?getContentCount@DisplayableObjectContainer@@QBEHXZ 004261d0 f i EnemyObject.obj
 0001:000251f0       ?getDisplayableObject@DisplayableObjectContainer@@QBEPAVDisplayableObject@@H@Z 004261f0 f i EnemyObject.obj
 0001:00025230       ?getMapXForScreenX@TileManager@@QBEHH@Z 00426230 f i EnemyObject.obj
 0001:00025260       ?getMapYForScreenY@TileManager@@QBEHH@Z 00426260 f i EnemyObject.obj
 0001:00025290       ?hasMovementFinished@MovementPosition@@QBE_NH@Z 00426290 f i EnemyObject.obj
 0001:000252d0       ?max_size@?$_Default_allocator_traits@V?$allocator@U?$_List_node@V?$shared_ptr@VNode@@@std@@PAX@std@@@std@@@std@@SAIABV?$allocator@U?$_List_node@V?$shared_ptr@VNode@@@std@@PAX@std@@@2@@Z 004262d0 f i EnemyObject.obj
 0001:000252e0       ?max_size@?$_Default_allocator_traits@V?$allocator@V?$shared_ptr@VNode@@@std@@@std@@@std@@SAIABV?$allocator@V?$shared_ptr@VNode@@@std@@@2@@Z 004262e0 f i EnemyObject.obj
 0001:000252f0       ?max_size@?$deque@V?$shared_ptr@VNode@@@std@@V?$allocator@V?$shared_ptr@VNode@@@std@@@2@@std@@QBEIXZ 004262f0 f i EnemyObject.obj
 0001:00025340       ?max_size@?$list@V?$shared_ptr@VNode@@@std@@V?$allocator@V?$shared_ptr@VNode@@@std@@@2@@std@@QBEIXZ 00426340 f i EnemyObject.obj
 0001:00025390       ?pop@?$queue@V?$shared_ptr@VNode@@@std@@V?$deque@V?$shared_ptr@VNode@@@std@@V?$allocator@V?$shared_ptr@VNode@@@std@@@2@@2@@std@@QAEXXZ 00426390 f i EnemyObject.obj
 0001:000253b0       ?pop_back@?$deque@V?$shared_ptr@VNode@@@std@@V?$allocator@V?$shared_ptr@VNode@@@std@@@2@@std@@QAEXXZ 004263b0 f i EnemyObject.obj
 0001:00025540       ?pop_front@?$deque@V?$shared_ptr@VNode@@@std@@V?$allocator@V?$shared_ptr@VNode@@@std@@@2@@std@@QAEXXZ 00426540 f i EnemyObject.obj
 0001:000256e0       ?pop_front@?$list@V?$shared_ptr@VNode@@@std@@V?$allocator@V?$shared_ptr@VNode@@@std@@@2@@std@@QAEXXZ 004266e0 f i EnemyObject.obj
 0001:00025780       ?push@?$queue@V?$shared_ptr@VNode@@@std@@V?$deque@V?$shared_ptr@VNode@@@std@@V?$allocator@V?$shared_ptr@VNode@@@std@@@2@@2@@std@@QAEX$$QAV?$shared_ptr@VNode@@@2@@Z 00426780 f i EnemyObject.obj
 0001:000257b0       ?push_back@?$deque@V?$shared_ptr@VNode@@@std@@V?$allocator@V?$shared_ptr@VNode@@@std@@@2@@std@@QAEX$$QAV?$shared_ptr@VNode@@@2@@Z 004267b0 f i EnemyObject.obj
 0001:000257f0       ?push_back@?$list@V?$shared_ptr@VNode@@@std@@V?$allocator@V?$shared_ptr@VNode@@@std@@@2@@std@@QAEX$$QAV?$shared_ptr@VNode@@@2@@Z 004267f0 f i EnemyObject.obj
 0001:00025830       ?push_back@?$list@V?$shared_ptr@VNode@@@std@@V?$allocator@V?$shared_ptr@VNode@@@std@@@2@@std@@QAEXABV?$shared_ptr@VNode@@@2@@Z 00426830 f i EnemyObject.obj
 0001:00025860       ?remove@?$list@V?$shared_ptr@VNode@@@std@@V?$allocator@V?$shared_ptr@VNode@@@std@@@2@@std@@QAE@ABV?$shared_ptr@VNode@@@2@@Z 00426860 f i EnemyObject.obj
 0001:00025890       ?removeDisplayableObject@DisplayableObjectContainer@@QAE_NPAVDisplayableObject@@@Z 00426890 f i EnemyObject.obj
 0001:00025a00       ?reverse@?$list@V?$shared_ptr@VNode@@@std@@V?$allocator@V?$shared_ptr@VNode@@@std@@@2@@std@@QAEXXZ 00426a00 f i EnemyObject.obj
 0001:00025a60       ?size@?$deque@V?$shared_ptr@VNode@@@std@@V?$allocator@V?$shared_ptr@VNode@@@std@@@2@@std@@QBEIXZ 00426a60 f i EnemyObject.obj
 0001:00025a80       ?size@?$list@V?$shared_ptr@VNode@@@std@@V?$allocator@V?$shared_ptr@VNode@@@std@@@2@@std@@QBEIXZ 00426a80 f i EnemyObject.obj
 0001:00025aa0       ?size@?$queue@V?$shared_ptr@VNode@@@std@@V?$deque@V?$shared_ptr@VNode@@@std@@V?$allocator@V?$shared_ptr@VNode@@@std@@@2@@2@@std@@QBEIXZ 00426aa0 f i EnemyObject.obj
 0001:00025ac0       ?size@?$vector@PAVDisplayableObject@@V?$allocator@PAVDisplayableObject@@@std@@@std@@QBEIXZ 00426ac0 f i EnemyObject.obj
 0001:00025af0       ?swap@?$shared_ptr@VNode@@@std@@QAEXAAV12@@Z 00426af0 f i EnemyObject.obj
 0001:00025b10       ??0EnemyZombie@@QAE@PAVBaseEngine@@HH@Z 00426b10 f   EnemyZombie.obj
 0001:00025c60       ??1EnemyZombie@@UAE@XZ     00426c60 f   EnemyZombie.obj
 0001:00025c80       ?turnStart@EnemyZombie@@UAEXXZ 00426c80 f   EnemyZombie.obj
 0001:00025cb0       ?virtDraw@EnemyZombie@@UAEXXZ 00426cb0 f   EnemyZombie.obj
 0001:00025e10       ??_GEnemyZombie@@UAEPAXI@Z 00426e10 f i EnemyZombie.obj
 0001:00025e10       ??_EEnemyZombie@@UAEPAXI@Z 00426e10 f i EnemyZombie.obj
 0001:00025e50       ??0FireballObject@@QAE@PAVBaseEngine@@PAVPsybc5TileManager@@@Z 00426e50 f   FireballObject.obj
 0001:00025f50       ??1FireballObject@@UAE@XZ  00426f50 f   FireballObject.obj
 0001:00025f80       ?setMovement@FireballObject@@QAEXHHHHHHH@Z 00426f80 f   FireballObject.obj
 0001:00026020       ?virtDraw@FireballObject@@UAEXXZ 00427020 f   FireballObject.obj
 0001:000260d0       ?virtDoUpdate@FireballObject@@UAEXH@Z 004270d0 f   FireballObject.obj
 0001:000263b0       ??_GFireballObject@@UAEPAXI@Z 004273b0 f i FireballObject.obj
 0001:000263b0       ??_EFireballObject@@UAEPAXI@Z 004273b0 f i FireballObject.obj
 0001:000263f0       ?getBackgroundSurface@BaseEngine@@QAEPAVDrawingSurface@@XZ 004273f0 f i FireballObject.obj
 0001:00026410       ?isPaused@BaseEngine@@QAE_NXZ 00427410 f i FireballObject.obj
 0001:00026450       ?lockAndSetupBackground@BaseEngine@@QAEXXZ 00427450 f i FireballObject.obj
 0001:00026490       ?lockBackgroundForDrawing@BaseEngine@@QAEXXZ 00427490 f i FireballObject.obj
 0001:000264b0       ?mySDLLockSurface@DrawingSurface@@QAEXXZ 004274b0 f i FireballObject.obj
 0001:00026500       ?mySDLUnlockSurface@DrawingSurface@@QAEXXZ 00427500 f i FireballObject.obj
 0001:00026550       ?redrawDisplay@BaseEngine@@QAEXXZ 00427550 f i FireballObject.obj
 0001:00026570       ?setAndRedrawMapValueAt@TileManager@@QAEXHHHPAVBaseEngine@@PAVDrawingSurface@@@Z 00427570 f i FireballObject.obj
 0001:00026610       ?setMapValue@TileManager@@QAEHHHH@Z 00427610 f i FireballObject.obj
 0001:00026650       ?setShouldDeleteOnRemoval@DisplayableObject@@QAEX_N@Z 00427650 f i FireballObject.obj
 0001:00026670       ?unlockBackgroundForDrawing@BaseEngine@@QAEXXZ 00427670 f i FireballObject.obj
 0001:00026690       ??0FlashingDemo@@QAE@XZ    00427690 f   FlashingDemo.obj
 0001:00026750       ??1FlashingDemo@@UAE@XZ    00427750 f   FlashingDemo.obj
 0001:000267a0       ?virtSetupBackgroundBuffer@FlashingDemo@@UAEXXZ 004277a0 f   FlashingDemo.obj
 0001:00026c20       ?virtMainLoopDoBeforeUpdate@FlashingDemo@@UAEXXZ 00427c20 f   FlashingDemo.obj
 0001:00026ce0       ?virtCreateSurfaces@FlashingDemo@@UAEXXZ 00427ce0 f   FlashingDemo.obj
 0001:00026f00       ??1DrawingSurface@@QAE@XZ  00427f00 f i FlashingDemo.obj
 0001:00026f10       ??_EFlashingDemo@@UAEPAXI@Z 00427f10 f i FlashingDemo.obj
 0001:00026f10       ??_GFlashingDemo@@UAEPAXI@Z 00427f10 f i FlashingDemo.obj
 0001:00026f50       ?copyAllBackgroundBuffer@BaseEngine@@UAEXXZ 00427f50 f i FlashingDemo.obj
 0001:00026f80       ?copyBackgroundPixels@BaseEngine@@UAEXHHHH@Z 00427f80 f i FlashingDemo.obj
 0001:00026fd0       ?createSurface@DrawingSurface@@QAEXHH@Z 00427fd0 f i FlashingDemo.obj
 0001:00027020       ?destroyOldObjects@DisplayableObjectContainer@@UAEX_N@Z 00428020 f i FlashingDemo.obj
 0001:00027110       ?fillBackground@BaseEngine@@UAEXI@Z 00428110 f i FlashingDemo.obj
 0001:00027140       ?fillSurface@DrawingSurface@@QAEXI@Z 00428140 f i FlashingDemo.obj
 0001:000271d0       ?filter@BaseEngine@@UAE_NPAVDrawingSurface@@AAH1AAI@Z 004281d0 f i FlashingDemo.obj
 0001:00027290       ?filterConvertRealToVirtualXPosition@FilterPoints@@UAEHH@Z 00428290 f i FlashingDemo.obj
 0001:000272b0       ?filterConvertRealToVirtualYPosition@FilterPoints@@UAEHH@Z 004282b0 f i FlashingDemo.obj
 0001:000272d0       ?filterConvertVirtualToRealXPosition@FilterPoints@@UAEHH@Z 004282d0 f i FlashingDemo.obj
 0001:000272f0       ?filterConvertVirtualToRealYPosition@FilterPoints@@UAEHH@Z 004282f0 f i FlashingDemo.obj
 0001:00027310       ?getModifiedTime@BaseEngine@@UBEHXZ 00428310 f i FlashingDemo.obj
 0001:00027350       ?virtBackgroundMouseDown@BaseEngine@@UAEXHHHHH@Z 00428350 f i FlashingDemo.obj
 0001:00027360       ?virtMainLoopDoAfterUpdate@BaseEngine@@UAEXXZ 00428360 f i FlashingDemo.obj
 0001:00027370       ?virtMainLoopPostUpdate@BaseEngine@@UAEXXZ 00428370 f i FlashingDemo.obj
 0001:00027380       ?virtMainLoopPreUpdate@BaseEngine@@UAEXXZ 00428380 f i FlashingDemo.obj
 0001:00027390       ?virtMainLoopStartIteration@BaseEngine@@UAEXXZ 00428390 f i FlashingDemo.obj
 0001:000273a0       ?virtMouseWheel@BaseEngine@@UAEXHHHH@Z 004283a0 f i FlashingDemo.obj
 0001:000273b0       ?virtPostDraw@BaseEngine@@UAEXXZ 004283b0 f i FlashingDemo.obj
 0001:000273c0       ?virtPreDraw@BaseEngine@@UAEXXZ 004283c0 f i FlashingDemo.obj
 0001:000273d0       ?virtRealMouseDown@BaseEngine@@UAEXHHH@Z 004283d0 f i FlashingDemo.obj
 0001:000273e0       ?virtRealMouseUp@BaseEngine@@UAEXHHH@Z 004283e0 f i FlashingDemo.obj
 0001:000273f0       ?virtTouchEvent@BaseEngine@@UAEXHH_J0MMMMM@Z 004283f0 f i FlashingDemo.obj
 0001:00027400       ?virtSetupBackgroundBuffer@ImageObjectDemo@@UAEXXZ 00428400 f   ImageObjectDemo.obj
 0001:000275d0       ?virtInitialiseObjects@ImageObjectDemo@@UAEHXZ 004285d0 f   ImageObjectDemo.obj
 0001:00027690       ?virtDrawStringsUnderneath@ImageObjectDemo@@UAEXXZ 00428690 f   ImageObjectDemo.obj
 0001:00027740       ?virtDrawStringsOnTop@ImageObjectDemo@@UAEXXZ 00428740 f   ImageObjectDemo.obj
 0001:000277c0       ?virtMouseDown@ImageObjectDemo@@UAEXHHH@Z 004287c0 f   ImageObjectDemo.obj
 0001:000277e0       ?virtKeyDown@ImageObjectDemo@@UAEXH@Z 004287e0 f   ImageObjectDemo.obj
 0001:00027940       ??0BouncingImageObject@@QAE@PAVBaseEngine@@V?$basic_string@DU?$char_traits@D@std@@V?$allocator@D@2@@std@@@Z 00428940 f i ImageObjectDemo.obj
 0001:00027a30       ??0BouncingObject@@QAE@PAVBaseEngine@@@Z 00428a30 f i ImageObjectDemo.obj
 0001:00027b30       ??1BouncingImageObject@@UAE@XZ 00428b30 f i ImageObjectDemo.obj
 0001:00027b60       ??1BouncingObject@@UAE@XZ  00428b60 f i ImageObjectDemo.obj
 0001:00027b80       ??_GBouncingImageObject@@UAEPAXI@Z 00428b80 f i ImageObjectDemo.obj
 0001:00027b80       ??_EBouncingImageObject@@UAEPAXI@Z 00428b80 f i ImageObjectDemo.obj
 0001:00027bc0       ??_GBouncingObject@@UAEPAXI@Z 00428bc0 f i ImageObjectDemo.obj
 0001:00027bc0       ??_EBouncingObject@@UAEPAXI@Z 00428bc0 f i ImageObjectDemo.obj
 0001:00027c00       ?loadImage@BaseEngine@@QAE?AVSimpleImage@@V?$basic_string@DU?$char_traits@D@std@@V?$allocator@D@2@@std@@_N@Z 00428c00 f i ImageObjectDemo.obj
 0001:00027cc0       ?pause@BaseEngine@@QAEXXZ  00428cc0 f i ImageObjectDemo.obj
 0001:00027cf0       ?shrinkBy@SimpleImage@@QAE?AV1@H@Z 00428cf0 f i ImageObjectDemo.obj
 0001:00027e00       ?unpause@BaseEngine@@QAEXXZ 00428e00 f i ImageObjectDemo.obj
 0001:00027e50       ?virtDoUpdate@BouncingObject@@UAEXH@Z 00428e50 f i ImageObjectDemo.obj
 0001:00028250       ?virtDraw@BouncingImageObject@@UAEXXZ 00429250 f i ImageObjectDemo.obj
 0001:000282d0       ?virtDraw@BouncingObject@@UAEXXZ 004292d0 f i ImageObjectDemo.obj
 0001:00028370       __vsnprintf_l              00429370 f i ImageObjectDemo.obj
 0001:000283e0       __vsprintf_l               004293e0 f i ImageObjectDemo.obj
 0001:00028410       _sprintf                   00429410 f i ImageObjectDemo.obj
 0001:00028450       ??0Item@@QAE@PAVGameEngine@@HV?$basic_string@DU?$char_traits@D@std@@V?$allocator@D@2@@std@@1@Z 00429450 f   Item.obj
 0001:00028500       ??1Item@@QAE@XZ            00429500 f   Item.obj
 0001:00028530       ?virtItemUse@Item@@UAEXXZ  00429530 f   Item.obj
 0001:00028540       ?virtItemExamine@Item@@UAEXXZ 00429540 f   Item.obj
 0001:00028550       ?virtItemDrop@Item@@UAEXXZ 00429550 f   Item.obj
 0001:000285a0       ?savePositions@JigsawDemo@@QAEXXZ 004295a0 f   JigsawDemo.obj
 0001:00028610       ?virtSetupBackgroundBuffer@JigsawDemo@@UAEXXZ 00429610 f   JigsawDemo.obj
 0001:00028630       ?virtInitialise@JigsawDemo@@UAEHXZ 00429630 f   JigsawDemo.obj
 0001:00028680       ?virtInitialiseObjects@JigsawDemo@@UAEHXZ 00429680 f   JigsawDemo.obj
 0001:00028b20       ?virtKeyDown@JigsawDemo@@UAEXH@Z 00429b20 f   JigsawDemo.obj
 0001:00028c20       ?virtMainLoopDoBeforeUpdate@JigsawDemo@@UAEXXZ 00429c20 f   JigsawDemo.obj
 0001:00028c50       ?virtKeyUp@JigsawDemo@@UAEXH@Z 00429c50 f   JigsawDemo.obj
 0001:00028c70       ?virtRealMouseDown@JigsawDemo@@UAEXHHH@Z 00429c70 f   JigsawDemo.obj
 0001:00028e70       ?virtBackgroundMouseDown@JigsawDemo@@UAEXHHHHH@Z 00429e70 f   JigsawDemo.obj
 0001:00028ea0       ?virtMouseMoved@JigsawDemo@@UAEXHH@Z 00429ea0 f   JigsawDemo.obj
 0001:00028ef0       ?virtMouseUp@JigsawDemo@@UAEXHHH@Z 00429ef0 f   JigsawDemo.obj
 0001:00028f50       ?virtMouseWheel@JigsawDemo@@UAEXHHHH@Z 00429f50 f   JigsawDemo.obj
 0001:00029010       ?virtPreDraw@JigsawDemo@@UAEXXZ 0042a010 f   JigsawDemo.obj
 0001:00029020       ?virtPostDraw@JigsawDemo@@UAEXXZ 0042a020 f   JigsawDemo.obj
 0001:000295a0       ??$?0ABV<lambda_2870de01b601283699da779de20905fc>@@X@?$_Func_impl_no_alloc@V<lambda_2870de01b601283699da779de20905fc>@@XPAVDisplayableObject@@@std@@QAE@ABV<lambda_2870de01b601283699da779de20905fc>@@@Z 0042a5a0 f i JigsawDemo.obj
 0001:000295e0       ??$?0ABV<lambda_341a6657abb2758c42a6873833e6116f>@@X@?$_Func_impl_no_alloc@V<lambda_341a6657abb2758c42a6873833e6116f>@@XPAVDisplayableObject@@@std@@QAE@ABV<lambda_341a6657abb2758c42a6873833e6116f>@@@Z 0042a5e0 f i JigsawDemo.obj
 0001:00029630       ??$?0ABV<lambda_369f3aee610e50bbd15c3a78d9c8686f>@@X@?$_Func_impl_no_alloc@V<lambda_369f3aee610e50bbd15c3a78d9c8686f>@@XPAVDisplayableObject@@@std@@QAE@ABV<lambda_369f3aee610e50bbd15c3a78d9c8686f>@@@Z 0042a630 f i JigsawDemo.obj
 0001:000296c0       ??$?0ABV<lambda_4d3c514b9e5ad6cc29096aa3b57f98f2>@@X@?$_Func_impl_no_alloc@V<lambda_4d3c514b9e5ad6cc29096aa3b57f98f2>@@XPAVDisplayableObject@@@std@@QAE@ABV<lambda_4d3c514b9e5ad6cc29096aa3b57f98f2>@@@Z 0042a6c0 f i JigsawDemo.obj
 0001:00029750       ??$?0ABV<lambda_817584b2460f1bcab806f46a25c321a8>@@X@?$_Func_impl_no_alloc@V<lambda_817584b2460f1bcab806f46a25c321a8>@@XPAVDisplayableObject@@@std@@QAE@ABV<lambda_817584b2460f1bcab806f46a25c321a8>@@@Z 0042a750 f i JigsawDemo.obj
 0001:000297f0       ??$?0V<lambda_2870de01b601283699da779de20905fc>@@X@?$_Func_impl_no_alloc@V<lambda_2870de01b601283699da779de20905fc>@@XPAVDisplayableObject@@@std@@QAE@$$QAV<lambda_2870de01b601283699da779de20905fc>@@@Z 0042a7f0 f i JigsawDemo.obj
 0001:00029830       ??$?0V<lambda_2870de01b601283699da779de20905fc>@@X@?$function@$$A6AXPAVDisplayableObject@@@Z@std@@QAE@V<lambda_2870de01b601283699da779de20905fc>@@@Z 0042a830 f i JigsawDemo.obj
 0001:000298b0       ??$?0V<lambda_341a6657abb2758c42a6873833e6116f>@@X@?$_Func_impl_no_alloc@V<lambda_341a6657abb2758c42a6873833e6116f>@@XPAVDisplayableObject@@@std@@QAE@$$QAV<lambda_341a6657abb2758c42a6873833e6116f>@@@Z 0042a8b0 f i JigsawDemo.obj
 0001:00029900       ??$?0V<lambda_341a6657abb2758c42a6873833e6116f>@@X@?$function@$$A6AXPAVDisplayableObject@@@Z@std@@QAE@V<lambda_341a6657abb2758c42a6873833e6116f>@@@Z 0042a900 f i JigsawDemo.obj
 0001:00029980       ??$?0V<lambda_369f3aee610e50bbd15c3a78d9c8686f>@@X@?$_Func_impl_no_alloc@V<lambda_369f3aee610e50bbd15c3a78d9c8686f>@@XPAVDisplayableObject@@@std@@QAE@$$QAV<lambda_369f3aee610e50bbd15c3a78d9c8686f>@@@Z 0042a980 f i JigsawDemo.obj
 0001:000299d0       ??$?0V<lambda_369f3aee610e50bbd15c3a78d9c8686f>@@X@?$function@$$A6AXPAVDisplayableObject@@@Z@std@@QAE@V<lambda_369f3aee610e50bbd15c3a78d9c8686f>@@@Z 0042a9d0 f i JigsawDemo.obj
 0001:00029b10       ??$?0V<lambda_4d3c514b9e5ad6cc29096aa3b57f98f2>@@X@?$_Func_impl_no_alloc@V<lambda_4d3c514b9e5ad6cc29096aa3b57f98f2>@@XPAVDisplayableObject@@@std@@QAE@$$QAV<lambda_4d3c514b9e5ad6cc29096aa3b57f98f2>@@@Z 0042ab10 f i JigsawDemo.obj
 0001:00029b60       ??$?0V<lambda_4d3c514b9e5ad6cc29096aa3b57f98f2>@@X@?$function@$$A6AXPAVDisplayableObject@@@Z@std@@QAE@V<lambda_4d3c514b9e5ad6cc29096aa3b57f98f2>@@@Z 0042ab60 f i JigsawDemo.obj
 0001:00029ca0       ??$?0V<lambda_817584b2460f1bcab806f46a25c321a8>@@X@?$_Func_impl_no_alloc@V<lambda_817584b2460f1bcab806f46a25c321a8>@@XPAVDisplayableObject@@@std@@QAE@$$QAV<lambda_817584b2460f1bcab806f46a25c321a8>@@@Z 0042aca0 f i JigsawDemo.obj
 0001:00029cf0       ??$?0V<lambda_817584b2460f1bcab806f46a25c321a8>@@X@?$function@$$A6AXPAVDisplayableObject@@@Z@std@@QAE@V<lambda_817584b2460f1bcab806f46a25c321a8>@@@Z 0042acf0 f i JigsawDemo.obj
 0001:00029e40       ??$_Adl_verify_range@V?$_Vector_const_iterator@V?$_Vector_val@U?$_Simple_types@PAVDisplayableObject@@@std@@@std@@@std@@V12@@std@@YAXABV?$_Vector_const_iterator@V?$_Vector_val@U?$_Simple_types@PAVDisplayableObject@@@std@@@std@@@0@0@Z 0042ae40 f i JigsawDemo.obj
 0001:00029e60       ??$_Call@AAV<lambda_2870de01b601283699da779de20905fc>@@PAVDisplayableObject@@@?$_Invoker_ret@X$00@std@@SAXAAV<lambda_2870de01b601283699da779de20905fc>@@$$QAPAVDisplayableObject@@@Z 0042ae60 f i JigsawDemo.obj
 0001:00029e90       ??$_Call@AAV<lambda_2870de01b601283699da779de20905fc>@@PAVDisplayableObject@@@_Invoker_functor@std@@SAXAAV<lambda_2870de01b601283699da779de20905fc>@@$$QAPAVDisplayableObject@@@Z 0042ae90 f i JigsawDemo.obj
 0001:00029ec0       ??$_Call@AAV<lambda_341a6657abb2758c42a6873833e6116f>@@PAVDisplayableObject@@@?$_Invoker_ret@X$00@std@@SAXAAV<lambda_341a6657abb2758c42a6873833e6116f>@@$$QAPAVDisplayableObject@@@Z 0042aec0 f i JigsawDemo.obj
 0001:00029ef0       ??$_Call@AAV<lambda_341a6657abb2758c42a6873833e6116f>@@PAVDisplayableObject@@@_Invoker_functor@std@@SAXAAV<lambda_341a6657abb2758c42a6873833e6116f>@@$$QAPAVDisplayableObject@@@Z 0042aef0 f i JigsawDemo.obj
 0001:00029f20       ??$_Call@AAV<lambda_369f3aee610e50bbd15c3a78d9c8686f>@@PAVDisplayableObject@@@?$_Invoker_ret@X$00@std@@SAXAAV<lambda_369f3aee610e50bbd15c3a78d9c8686f>@@$$QAPAVDisplayableObject@@@Z 0042af20 f i JigsawDemo.obj
 0001:00029f50       ??$_Call@AAV<lambda_369f3aee610e50bbd15c3a78d9c8686f>@@PAVDisplayableObject@@@_Invoker_functor@std@@SAXAAV<lambda_369f3aee610e50bbd15c3a78d9c8686f>@@$$QAPAVDisplayableObject@@@Z 0042af50 f i JigsawDemo.obj
 0001:00029fe0       ??$_Call@AAV<lambda_4d3c514b9e5ad6cc29096aa3b57f98f2>@@PAVDisplayableObject@@@?$_Invoker_ret@X$00@std@@SAXAAV<lambda_4d3c514b9e5ad6cc29096aa3b57f98f2>@@$$QAPAVDisplayableObject@@@Z 0042afe0 f i JigsawDemo.obj
 0001:0002a010       ??$_Call@AAV<lambda_4d3c514b9e5ad6cc29096aa3b57f98f2>@@PAVDisplayableObject@@@_Invoker_functor@std@@SAXAAV<lambda_4d3c514b9e5ad6cc29096aa3b57f98f2>@@$$QAPAVDisplayableObject@@@Z 0042b010 f i JigsawDemo.obj
 0001:0002a0a0       ??$_Call@AAV<lambda_817584b2460f1bcab806f46a25c321a8>@@PAVDisplayableObject@@@?$_Invoker_ret@X$00@std@@SAXAAV<lambda_817584b2460f1bcab806f46a25c321a8>@@$$QAPAVDisplayableObject@@@Z 0042b0a0 f i JigsawDemo.obj
 0001:0002a0d0       ??$_Call@AAV<lambda_817584b2460f1bcab806f46a25c321a8>@@PAVDisplayableObject@@@_Invoker_functor@std@@SAXAAV<lambda_817584b2460f1bcab806f46a25c321a8>@@$$QAPAVDisplayableObject@@@Z 0042b0d0 f i JigsawDemo.obj
 0001:0002a160       ??$_Deallocate@$03$0A@@std@@YAXPAXI@Z 0042b160 f i JigsawDemo.obj
 0001:0002a1d0       ??$_Emplace_back_with_unused_capacity@ABQAVDisplayableObject@@@?$vector@PAVDisplayableObject@@V?$allocator@PAVDisplayableObject@@@std@@@std@@AAE@ABQAVDisplayableObject@@@Z 0042b1d0 f i JigsawDemo.obj
 0001:0002a270       ??$_Emplace_reallocate@ABQAVDisplayableObject@@@?$vector@PAVDisplayableObject@@V?$allocator@PAVDisplayableObject@@@std@@@std@@QAEPAPAVDisplayableObject@@QAPAV2@ABQAV2@@Z 0042b270 f i JigsawDemo.obj
 0001:0002a4b0       ??$_Get_unwrapped@V?$_Vector_const_iterator@V?$_Vector_val@U?$_Simple_types@PAVDisplayableObject@@@std@@@std@@@std@@$0A@@std@@YA@ABV?$_Vector_const_iterator@V?$_Vector_val@U?$_Simple_types@PAVDisplayableObject@@@std@@@std@@@0@@Z 0042b4b0 f i JigsawDemo.obj
 0001:0002a4c0       ??$_Reset@V<lambda_2870de01b601283699da779de20905fc>@@@?$_Func_class@XPAVDisplayableObject@@@std@@IAEX$$QAV<lambda_2870de01b601283699da779de20905fc>@@@Z 0042b4c0 f i JigsawDemo.obj
 0001:0002a530       ??$_Reset@V<lambda_341a6657abb2758c42a6873833e6116f>@@@?$_Func_class@XPAVDisplayableObject@@@std@@IAEX$$QAV<lambda_341a6657abb2758c42a6873833e6116f>@@@Z 0042b530 f i JigsawDemo.obj
 0001:0002a5a0       ??$_Reset@V<lambda_369f3aee610e50bbd15c3a78d9c8686f>@@@?$_Func_class@XPAVDisplayableObject@@@std@@IAEX$$QAV<lambda_369f3aee610e50bbd15c3a78d9c8686f>@@@Z 0042b5a0 f i JigsawDemo.obj
 0001:0002a680       ??$_Reset@V<lambda_4d3c514b9e5ad6cc29096aa3b57f98f2>@@@?$_Func_class@XPAVDisplayableObject@@@std@@IAEX$$QAV<lambda_4d3c514b9e5ad6cc29096aa3b57f98f2>@@@Z 0042b680 f i JigsawDemo.obj
 0001:0002a760       ??$_Reset@V<lambda_817584b2460f1bcab806f46a25c321a8>@@@?$_Func_class@XPAVDisplayableObject@@@std@@IAEX$$QAV<lambda_817584b2460f1bcab806f46a25c321a8>@@@Z 0042b760 f i JigsawDemo.obj
 0001:0002a840       ??$_Test_callable@V<lambda_2870de01b601283699da779de20905fc>@@@std@@YA_NABV<lambda_2870de01b601283699da779de20905fc>@@@Z 0042b840 f i JigsawDemo.obj
 0001:0002a850       ??$_Test_callable@V<lambda_341a6657abb2758c42a6873833e6116f>@@@std@@YA_NABV<lambda_341a6657abb2758c42a6873833e6116f>@@@Z 0042b850 f i JigsawDemo.obj
 0001:0002a860       ??$_Test_callable@V<lambda_369f3aee610e50bbd15c3a78d9c8686f>@@@std@@YA_NABV<lambda_369f3aee610e50bbd15c3a78d9c8686f>@@@Z 0042b860 f i JigsawDemo.obj
 0001:0002a880       ??$_Test_callable@V<lambda_4d3c514b9e5ad6cc29096aa3b57f98f2>@@@std@@YA_NABV<lambda_4d3c514b9e5ad6cc29096aa3b57f98f2>@@@Z 0042b880 f i JigsawDemo.obj
 0001:0002a8a0       ??$_Test_callable@V<lambda_817584b2460f1bcab806f46a25c321a8>@@@std@@YA_NABV<lambda_817584b2460f1bcab806f46a25c321a8>@@@Z 0042b8a0 f i JigsawDemo.obj
 0001:0002a8c0       ??$addressof@$$CBV<lambda_2870de01b601283699da779de20905fc>@@@std@@YAPBV<lambda_2870de01b601283699da779de20905fc>@@ABV1@@Z 0042b8c0 f i JigsawDemo.obj
 0001:0002a8d0       ??$addressof@$$CBV<lambda_341a6657abb2758c42a6873833e6116f>@@@std@@YAPBV<lambda_341a6657abb2758c42a6873833e6116f>@@ABV1@@Z 0042b8d0 f i JigsawDemo.obj
 0001:0002a8e0       ??$addressof@$$CBV<lambda_369f3aee610e50bbd15c3a78d9c8686f>@@@std@@YAPBV<lambda_369f3aee610e50bbd15c3a78d9c8686f>@@ABV1@@Z 0042b8e0 f i JigsawDemo.obj
 0001:0002a900       ??$addressof@$$CBV<lambda_4d3c514b9e5ad6cc29096aa3b57f98f2>@@@std@@YAPBV<lambda_4d3c514b9e5ad6cc29096aa3b57f98f2>@@ABV1@@Z 0042b900 f i JigsawDemo.obj
 0001:0002a920       ??$addressof@$$CBV<lambda_817584b2460f1bcab806f46a25c321a8>@@@std@@YAPBV<lambda_817584b2460f1bcab806f46a25c321a8>@@ABV1@@Z 0042b920 f i JigsawDemo.obj
 0001:0002a940       ??$addressof@$$CBV?$_Vector_val@U?$_Simple_types@PAVDisplayableObject@@@std@@@std@@@std@@YAPBV?$_Vector_val@U?$_Simple_types@PAVDisplayableObject@@@std@@@0@ABV10@@Z 0042b940 f i JigsawDemo.obj
 0001:0002a950       ??$construct@PAVDisplayableObject@@ABQAV1@@?$_Default_allocator_traits@V?$allocator@PAVDisplayableObject@@@std@@@std@@SAXAAV?$allocator@PAVDisplayableObject@@@1@QAPAVDisplayableObject@@ABQAV3@@Z 0042b950 f i JigsawDemo.obj
 0001:0002a990       ??$emplace_back@ABQAVDisplayableObject@@@?$vector@PAVDisplayableObject@@V?$allocator@PAVDisplayableObject@@@std@@@std@@QAE@ABQAVDisplayableObject@@@Z 0042b990 f i JigsawDemo.obj
 0001:0002aa10       ??$for_each@V?$_Vector_const_iterator@V?$_Vector_val@U?$_Simple_types@PAVDisplayableObject@@@std@@@std@@@std@@V?$function@$$A6AXPAVDisplayableObject@@@Z@2@@std@@YA?AV?$function@$$A6AXPAVDisplayableObject@@@Z@0@V?$_Vector_const_iterator@V?$_Vector_val@U?$_Simple_types@PAVDisplayableObject@@@std@@@std@@@0@0V10@@Z 0042ba10 f i JigsawDemo.obj
 0001:0002ab20       ??$forward@AAV<lambda_2870de01b601283699da779de20905fc>@@@std@@YAAAV<lambda_2870de01b601283699da779de20905fc>@@AAV1@@Z 0042bb20 f i JigsawDemo.obj
 0001:0002ab30       ??$forward@AAV<lambda_341a6657abb2758c42a6873833e6116f>@@@std@@YAAAV<lambda_341a6657abb2758c42a6873833e6116f>@@AAV1@@Z 0042bb30 f i JigsawDemo.obj
 0001:0002ab40       ??$forward@AAV<lambda_369f3aee610e50bbd15c3a78d9c8686f>@@@std@@YAAAV<lambda_369f3aee610e50bbd15c3a78d9c8686f>@@AAV1@@Z 0042bb40 f i JigsawDemo.obj
 0001:0002ab60       ??$forward@AAV<lambda_4d3c514b9e5ad6cc29096aa3b57f98f2>@@@std@@YAAAV<lambda_4d3c514b9e5ad6cc29096aa3b57f98f2>@@AAV1@@Z 0042bb60 f i JigsawDemo.obj
 0001:0002ab80       ??$forward@AAV<lambda_817584b2460f1bcab806f46a25c321a8>@@@std@@YAAAV<lambda_817584b2460f1bcab806f46a25c321a8>@@AAV1@@Z 0042bb80 f i JigsawDemo.obj
 0001:0002aba0       ??$forward@ABQAVDisplayableObject@@@std@@YAABQAVDisplayableObject@@ABQAV1@@Z 0042bba0 f i JigsawDemo.obj
 0001:0002abb0       ??$forward@ABV<lambda_2870de01b601283699da779de20905fc>@@@std@@YAABV<lambda_2870de01b601283699da779de20905fc>@@ABV1@@Z 0042bbb0 f i JigsawDemo.obj
 0001:0002abc0       ??$forward@ABV<lambda_341a6657abb2758c42a6873833e6116f>@@@std@@YAABV<lambda_341a6657abb2758c42a6873833e6116f>@@ABV1@@Z 0042bbc0 f i JigsawDemo.obj
 0001:0002abd0       ??$forward@ABV<lambda_369f3aee610e50bbd15c3a78d9c8686f>@@@std@@YAABV<lambda_369f3aee610e50bbd15c3a78d9c8686f>@@ABV1@@Z 0042bbd0 f i JigsawDemo.obj
 0001:0002abf0       ??$forward@ABV<lambda_4d3c514b9e5ad6cc29096aa3b57f98f2>@@@std@@YAABV<lambda_4d3c514b9e5ad6cc29096aa3b57f98f2>@@ABV1@@Z 0042bbf0 f i JigsawDemo.obj
 0001:0002ac10       ??$forward@ABV<lambda_817584b2460f1bcab806f46a25c321a8>@@@std@@YAABV<lambda_817584b2460f1bcab806f46a25c321a8>@@ABV1@@Z 0042bc10 f i JigsawDemo.obj
 0001:0002ac30       ??$forward@PAVDisplayableObject@@@std@@YA$$QAPAVDisplayableObject@@AAPAV1@@Z 0042bc30 f i JigsawDemo.obj
 0001:0002ac40       ??$forward@V<lambda_2870de01b601283699da779de20905fc>@@@std@@YA$$QAV<lambda_2870de01b601283699da779de20905fc>@@AAV1@@Z 0042bc40 f i JigsawDemo.obj
 0001:0002ac50       ??$forward@V<lambda_341a6657abb2758c42a6873833e6116f>@@@std@@YA$$QAV<lambda_341a6657abb2758c42a6873833e6116f>@@AAV1@@Z 0042bc50 f i JigsawDemo.obj
 0001:0002ac60       ??$forward@V<lambda_369f3aee610e50bbd15c3a78d9c8686f>@@@std@@YA$$QAV<lambda_369f3aee610e50bbd15c3a78d9c8686f>@@AAV1@@Z 0042bc60 f i JigsawDemo.obj
 0001:0002ac80       ??$forward@V<lambda_4d3c514b9e5ad6cc29096aa3b57f98f2>@@@std@@YA$$QAV<lambda_4d3c514b9e5ad6cc29096aa3b57f98f2>@@AAV1@@Z 0042bc80 f i JigsawDemo.obj
 0001:0002aca0       ??$forward@V<lambda_817584b2460f1bcab806f46a25c321a8>@@@std@@YA$$QAV<lambda_817584b2460f1bcab806f46a25c321a8>@@AAV1@@Z 0042bca0 f i JigsawDemo.obj
 0001:0002acc0       ??$invoke@AAV<lambda_2870de01b601283699da779de20905fc>@@PAVDisplayableObject@@@std@@YAXAAV<lambda_2870de01b601283699da779de20905fc>@@$$QAPAVDisplayableObject@@@Z 0042bcc0 f i JigsawDemo.obj
 0001:0002acf0       ??$invoke@AAV<lambda_341a6657abb2758c42a6873833e6116f>@@PAVDisplayableObject@@@std@@YAXAAV<lambda_341a6657abb2758c42a6873833e6116f>@@$$QAPAVDisplayableObject@@@Z 0042bcf0 f i JigsawDemo.obj
 0001:0002ad20       ??$invoke@AAV<lambda_369f3aee610e50bbd15c3a78d9c8686f>@@PAVDisplayableObject@@@std@@YAXAAV<lambda_369f3aee610e50bbd15c3a78d9c8686f>@@$$QAPAVDisplayableObject@@@Z 0042bd20 f i JigsawDemo.obj
 0001:0002ad80       ??$invoke@AAV<lambda_4d3c514b9e5ad6cc29096aa3b57f98f2>@@PAVDisplayableObject@@@std@@YAXAAV<lambda_4d3c514b9e5ad6cc29096aa3b57f98f2>@@$$QAPAVDisplayableObject@@@Z 0042bd80 f i JigsawDemo.obj
 0001:0002ade0       ??$invoke@AAV<lambda_817584b2460f1bcab806f46a25c321a8>@@PAVDisplayableObject@@@std@@YAXAAV<lambda_817584b2460f1bcab806f46a25c321a8>@@$$QAPAVDisplayableObject@@@Z 0042bde0 f i JigsawDemo.obj
 0001:0002ae40       ??$move@AAH@std@@YA$$QAHAAH@Z 0042be40 f i JigsawDemo.obj
 0001:0002ae50       ??$move@AAV<lambda_2870de01b601283699da779de20905fc>@@@std@@YA$$QAV<lambda_2870de01b601283699da779de20905fc>@@AAV1@@Z 0042be50 f i JigsawDemo.obj
 0001:0002ae60       ??$move@AAV<lambda_341a6657abb2758c42a6873833e6116f>@@@std@@YA$$QAV<lambda_341a6657abb2758c42a6873833e6116f>@@AAV1@@Z 0042be60 f i JigsawDemo.obj
 0001:0002ae70       ??$move@AAV<lambda_369f3aee610e50bbd15c3a78d9c8686f>@@@std@@YA$$QAV<lambda_369f3aee610e50bbd15c3a78d9c8686f>@@AAV1@@Z 0042be70 f i JigsawDemo.obj
 0001:0002ae90       ??$move@AAV<lambda_4d3c514b9e5ad6cc29096aa3b57f98f2>@@@std@@YA$$QAV<lambda_4d3c514b9e5ad6cc29096aa3b57f98f2>@@AAV1@@Z 0042be90 f i JigsawDemo.obj
 0001:0002aeb0       ??$move@AAV<lambda_817584b2460f1bcab806f46a25c321a8>@@@std@@YA$$QAV<lambda_817584b2460f1bcab806f46a25c321a8>@@AAV1@@Z 0042beb0 f i JigsawDemo.obj
 0001:0002aed0       ??$move@AAV?$function@$$A6AXPAVDisplayableObject@@@Z@std@@@std@@YA$$QAV?$function@$$A6AXPAVDisplayableObject@@@Z@0@AAV10@@Z 0042bed0 f i JigsawDemo.obj
 0001:0002aee0       ??$swap@HX@std@@YAXAAH0@Z  0042bee0 f i JigsawDemo.obj
 0001:0002af30       ??0<lambda_341a6657abb2758c42a6873833e6116f>@@QAE@QAVJigsawPiece@@@Z 0042bf30 f i JigsawDemo.obj
 0001:0002af50       ??0<lambda_369f3aee610e50bbd15c3a78d9c8686f>@@QAE@QAVJigsawPiece@@@Z 0042bf50 f i JigsawDemo.obj
 0001:0002af70       ??0<lambda_4d3c514b9e5ad6cc29096aa3b57f98f2>@@QAE@QAVJigsawPiece@@@Z 0042bf70 f i JigsawDemo.obj
 0001:0002af90       ??0<lambda_817584b2460f1bcab806f46a25c321a8>@@QAE@QAVJigsawPiece@@@Z 0042bf90 f i JigsawDemo.obj
 0001:0002afe0       ??0?$_Func_base@XPAVDisplayableObject@@@std@@QAE@XZ 0042bfe0 f i JigsawDemo.obj
 0001:0002b000       ??0?$_Func_class@XPAVDisplayableObject@@@std@@QAE@XZ 0042c000 f i JigsawDemo.obj
 0001:0002b020       ??0?$function@$$A6AXPAVDisplayableObject@@@Z@std@@QAE@$$QAV01@@Z 0042c020 f i JigsawDemo.obj
 0001:0002b060       ??0?$function@$$A6AXPAVDisplayableObject@@@Z@std@@QAE@ABV01@@Z 0042c060 f i JigsawDemo.obj
 0001:0002b0e0       ??0JigsawPiece@@QAE@PAU_iobuf@@HHPAVJigsawDemo@@V?$basic_string@DU?$char_traits@D@std@@V?$allocator@D@2@@std@@HH@Z 0042c0e0 f i JigsawDemo.obj
 0001:0002b4d0       ??1?$_Func_class@XPAVDisplayableObject@@@std@@QAE@XZ 0042c4d0 f i JigsawDemo.obj
 0001:0002b4f0       ??1?$function@$$A6AXPAVDisplayableObject@@@Z@std@@QAE@XZ 0042c4f0 f i JigsawDemo.obj
 0001:0002b510       ??1JigsawPiece@@UAE@XZ     0042c510 f i JigsawDemo.obj
 0001:0002b530       ??R<lambda_2870de01b601283699da779de20905fc>@@QBE@PAVDisplayableObject@@@Z 0042c530 f i JigsawDemo.obj
 0001:0002b560       ??R<lambda_341a6657abb2758c42a6873833e6116f>@@QBE@PAVDisplayableObject@@@Z 0042c560 f i JigsawDemo.obj
 0001:0002b590       ??R<lambda_369f3aee610e50bbd15c3a78d9c8686f>@@QBE@PAVDisplayableObject@@@Z 0042c590 f i JigsawDemo.obj
 0001:0002b5f0       ??R<lambda_4d3c514b9e5ad6cc29096aa3b57f98f2>@@QBE@PAVDisplayableObject@@@Z 0042c5f0 f i JigsawDemo.obj
 0001:0002b650       ??R<lambda_817584b2460f1bcab806f46a25c321a8>@@QBE@PAVDisplayableObject@@@Z 0042c650 f i JigsawDemo.obj
 0001:0002b6e0       ??R?$_Func_class@XPAVDisplayableObject@@@std@@QBEXPAVDisplayableObject@@@Z 0042c6e0 f i JigsawDemo.obj
 0001:0002b740       ??_EJigsawPiece@@UAEPAXI@Z 0042c740 f i JigsawDemo.obj
 0001:0002b740       ??_GJigsawPiece@@UAEPAXI@Z 0042c740 f i JigsawDemo.obj
 0001:0002b780       ?_Copy@?$_Func_impl_no_alloc@V<lambda_2870de01b601283699da779de20905fc>@@XPAVDisplayableObject@@@std@@EBEPAV?$_Func_base@XPAVDisplayableObject@@@2@PAX@Z 0042c780 f i JigsawDemo.obj
 0001:0002b7c0       ?_Copy@?$_Func_impl_no_alloc@V<lambda_341a6657abb2758c42a6873833e6116f>@@XPAVDisplayableObject@@@std@@EBEPAV?$_Func_base@XPAVDisplayableObject@@@2@PAX@Z 0042c7c0 f i JigsawDemo.obj
 0001:0002b800       ?_Copy@?$_Func_impl_no_alloc@V<lambda_369f3aee610e50bbd15c3a78d9c8686f>@@XPAVDisplayableObject@@@std@@EBEPAV?$_Func_base@XPAVDisplayableObject@@@2@PAX@Z 0042c800 f i JigsawDemo.obj
 0001:0002b880       ?_Copy@?$_Func_impl_no_alloc@V<lambda_4d3c514b9e5ad6cc29096aa3b57f98f2>@@XPAVDisplayableObject@@@std@@EBEPAV?$_Func_base@XPAVDisplayableObject@@@2@PAX@Z 0042c880 f i JigsawDemo.obj
 0001:0002b900       ?_Copy@?$_Func_impl_no_alloc@V<lambda_817584b2460f1bcab806f46a25c321a8>@@XPAVDisplayableObject@@@std@@EBEPAV?$_Func_base@XPAVDisplayableObject@@@2@PAX@Z 0042c900 f i JigsawDemo.obj
 0001:0002b980       ?_Delete_this@?$_Func_impl_no_alloc@V<lambda_2870de01b601283699da779de20905fc>@@XPAVDisplayableObject@@@std@@EAEX_N@Z 0042c980 f i JigsawDemo.obj
 0001:0002b9b0       ?_Delete_this@?$_Func_impl_no_alloc@V<lambda_341a6657abb2758c42a6873833e6116f>@@XPAVDisplayableObject@@@std@@EAEX_N@Z 0042c9b0 f i JigsawDemo.obj
 0001:0002b9e0       ?_Delete_this@?$_Func_impl_no_alloc@V<lambda_369f3aee610e50bbd15c3a78d9c8686f>@@XPAVDisplayableObject@@@std@@EAEX_N@Z 0042c9e0 f i JigsawDemo.obj
 0001:0002ba40       ?_Delete_this@?$_Func_impl_no_alloc@V<lambda_4d3c514b9e5ad6cc29096aa3b57f98f2>@@XPAVDisplayableObject@@@std@@EAEX_N@Z 0042ca40 f i JigsawDemo.obj
 0001:0002baa0       ?_Delete_this@?$_Func_impl_no_alloc@V<lambda_817584b2460f1bcab806f46a25c321a8>@@XPAVDisplayableObject@@@std@@EAEX_N@Z 0042caa0 f i JigsawDemo.obj
 0001:0002bb00       ?_Do_call@?$_Func_impl_no_alloc@V<lambda_2870de01b601283699da779de20905fc>@@XPAVDisplayableObject@@@std@@EAEX$$QAPAVDisplayableObject@@@Z 0042cb00 f i JigsawDemo.obj
 0001:0002bb40       ?_Do_call@?$_Func_impl_no_alloc@V<lambda_341a6657abb2758c42a6873833e6116f>@@XPAVDisplayableObject@@@std@@EAEX$$QAPAVDisplayableObject@@@Z 0042cb40 f i JigsawDemo.obj
 0001:0002bb80       ?_Do_call@?$_Func_impl_no_alloc@V<lambda_369f3aee610e50bbd15c3a78d9c8686f>@@XPAVDisplayableObject@@@std@@EAEX$$QAPAVDisplayableObject@@@Z 0042cb80 f i JigsawDemo.obj
 0001:0002bc00       ?_Do_call@?$_Func_impl_no_alloc@V<lambda_4d3c514b9e5ad6cc29096aa3b57f98f2>@@XPAVDisplayableObject@@@std@@EAEX$$QAPAVDisplayableObject@@@Z 0042cc00 f i JigsawDemo.obj
 0001:0002bc80       ?_Do_call@?$_Func_impl_no_alloc@V<lambda_817584b2460f1bcab806f46a25c321a8>@@XPAVDisplayableObject@@@std@@EAEX$$QAPAVDisplayableObject@@@Z 0042cc80 f i JigsawDemo.obj
 0001:0002bd00       ?_Empty@?$_Func_class@XPAVDisplayableObject@@@std@@IBE_NXZ 0042cd00 f i JigsawDemo.obj
 0001:0002bd40       ?_Get@?$_Func_impl_no_alloc@V<lambda_2870de01b601283699da779de20905fc>@@XPAVDisplayableObject@@@std@@EBEPBXXZ 0042cd40 f i JigsawDemo.obj
 0001:0002bd60       ?_Get@?$_Func_impl_no_alloc@V<lambda_341a6657abb2758c42a6873833e6116f>@@XPAVDisplayableObject@@@std@@EBEPBXXZ 0042cd60 f i JigsawDemo.obj
 0001:0002bd80       ?_Get@?$_Func_impl_no_alloc@V<lambda_369f3aee610e50bbd15c3a78d9c8686f>@@XPAVDisplayableObject@@@std@@EBEPBXXZ 0042cd80 f i JigsawDemo.obj
 0001:0002bdc0       ?_Get@?$_Func_impl_no_alloc@V<lambda_4d3c514b9e5ad6cc29096aa3b57f98f2>@@XPAVDisplayableObject@@@std@@EBEPBXXZ 0042cdc0 f i JigsawDemo.obj
 0001:0002be00       ?_Get@?$_Func_impl_no_alloc@V<lambda_817584b2460f1bcab806f46a25c321a8>@@XPAVDisplayableObject@@@std@@EBEPBXXZ 0042ce00 f i JigsawDemo.obj
 0001:0002be40       ?_Getimpl@?$_Func_class@XPAVDisplayableObject@@@std@@ABEPAV?$_Func_base@XPAVDisplayableObject@@@2@XZ 0042ce40 f i JigsawDemo.obj
 0001:0002be60       ?_Local@?$_Func_class@XPAVDisplayableObject@@@std@@ABE_NXZ 0042ce60 f i JigsawDemo.obj
 0001:0002bea0       ?_Move@?$_Func_impl_no_alloc@V<lambda_2870de01b601283699da779de20905fc>@@XPAVDisplayableObject@@@std@@EAEPAV?$_Func_base@XPAVDisplayableObject@@@2@PAX@Z 0042cea0 f i JigsawDemo.obj
 0001:0002bf20       ?_Move@?$_Func_impl_no_alloc@V<lambda_341a6657abb2758c42a6873833e6116f>@@XPAVDisplayableObject@@@std@@EAEPAV?$_Func_base@XPAVDisplayableObject@@@2@PAX@Z 0042cf20 f i JigsawDemo.obj
 0001:0002bfa0       ?_Move@?$_Func_impl_no_alloc@V<lambda_369f3aee610e50bbd15c3a78d9c8686f>@@XPAVDisplayableObject@@@std@@EAEPAV?$_Func_base@XPAVDisplayableObject@@@2@PAX@Z 0042cfa0 f i JigsawDemo.obj
 0001:0002c0a0       ?_Move@?$_Func_impl_no_alloc@V<lambda_4d3c514b9e5ad6cc29096aa3b57f98f2>@@XPAVDisplayableObject@@@std@@EAEPAV?$_Func_base@XPAVDisplayableObject@@@2@PAX@Z 0042d0a0 f i JigsawDemo.obj
 0001:0002c1a0       ?_Move@?$_Func_impl_no_alloc@V<lambda_817584b2460f1bcab806f46a25c321a8>@@XPAVDisplayableObject@@@std@@EAEPAV?$_Func_base@XPAVDisplayableObject@@@2@PAX@Z 0042d1a0 f i JigsawDemo.obj
 0001:0002c2a0       ?_Reset_copy@?$_Func_class@XPAVDisplayableObject@@@std@@IAEXABV12@@Z 0042d2a0 f i JigsawDemo.obj
 0001:0002c300       ?_Reset_move@?$_Func_class@XPAVDisplayableObject@@@std@@IAEX$$QAV12@@Z 0042d300 f i JigsawDemo.obj
 0001:0002c3a0       ?_Set@?$_Func_class@XPAVDisplayableObject@@@std@@AAEXPAV?$_Func_base@XPAVDisplayableObject@@@2@@Z 0042d3a0 f i JigsawDemo.obj
 0001:0002c3d0       ?_Target_type@?$_Func_impl_no_alloc@V<lambda_2870de01b601283699da779de20905fc>@@XPAVDisplayableObject@@@std@@EBEABVtype_info@@XZ 0042d3d0 f i JigsawDemo.obj
 0001:0002c3f0       ?_Target_type@?$_Func_impl_no_alloc@V<lambda_341a6657abb2758c42a6873833e6116f>@@XPAVDisplayableObject@@@std@@EBEABVtype_info@@XZ 0042d3f0 f i JigsawDemo.obj
 0001:0002c410       ?_Target_type@?$_Func_impl_no_alloc@V<lambda_369f3aee610e50bbd15c3a78d9c8686f>@@XPAVDisplayableObject@@@std@@EBEABVtype_info@@XZ 0042d410 f i JigsawDemo.obj
 0001:0002c450       ?_Target_type@?$_Func_impl_no_alloc@V<lambda_4d3c514b9e5ad6cc29096aa3b57f98f2>@@XPAVDisplayableObject@@@std@@EBEABVtype_info@@XZ 0042d450 f i JigsawDemo.obj
 0001:0002c490       ?_Target_type@?$_Func_impl_no_alloc@V<lambda_817584b2460f1bcab806f46a25c321a8>@@XPAVDisplayableObject@@@std@@EBEABVtype_info@@XZ 0042d490 f i JigsawDemo.obj
 0001:0002c4d0       ?_Tidy@?$_Func_class@XPAVDisplayableObject@@@std@@IAEXXZ 0042d4d0 f i JigsawDemo.obj
 0001:0002c550       ?_Umove@?$vector@PAVDisplayableObject@@V?$allocator@PAVDisplayableObject@@@std@@@std@@AAEPAPAVDisplayableObject@@PAPAV3@00@Z 0042d550 f i JigsawDemo.obj
 0001:0002c590       ?_Unwrapped@?$_Vector_const_iterator@V?$_Vector_val@U?$_Simple_types@PAVDisplayableObject@@@std@@@std@@@std@@QBEPBQAVDisplayableObject@@XZ 0042d590 f i JigsawDemo.obj
 0001:0002c5b0       ?applyToAll@DisplayableObjectContainer@@QBEXV?$function@$$A6AXPAVDisplayableObject@@@Z@std@@@Z 0042d5b0 f i JigsawDemo.obj
 0001:0002c690       ?begin@?$vector@PAVDisplayableObject@@V?$allocator@PAVDisplayableObject@@@std@@@std@@QBE?AV?$_Vector_const_iterator@V?$_Vector_val@U?$_Simple_types@PAVDisplayableObject@@@std@@@std@@@2@XZ 0042d690 f i JigsawDemo.obj
 0001:0002c6e0       ?changeOffset@FilterPointsTranslation@@QAEXHH@Z 0042d6e0 f i JigsawDemo.obj
 0001:0002c720       ?checkForLinksWithOthers@JigsawPiece@@QAEXXZ 0042d720 f i JigsawDemo.obj
 0001:0002c840       ?checkJoinBottom@JigsawPiece@@QAEXPAV1@@Z 0042d840 f i JigsawDemo.obj
 0001:0002c910       ?checkJoinLeft@JigsawPiece@@QAEXPAV1@@Z 0042d910 f i JigsawDemo.obj
 0001:0002c9e0       ?checkJoinRight@JigsawPiece@@QAEXPAV1@@Z 0042d9e0 f i JigsawDemo.obj
 0001:0002cab0       ?checkJoinTop@JigsawPiece@@QAEXPAV1@@Z 0042dab0 f i JigsawDemo.obj
 0001:0002cb80       ?compress@FilterPointsScaling@@QAEXXZ 0042db80 f i JigsawDemo.obj
 0001:0002cbb0       ?compressX@FilterPointsScaling@@QAEXXZ 0042dbb0 f i JigsawDemo.obj
 0001:0002cc00       ?compressY@FilterPointsScaling@@QAEXXZ 0042dc00 f i JigsawDemo.obj
 0001:0002cc50       ?convertClickedToVirtualPixelXPosition@BaseEngine@@QAEHH@Z 0042dc50 f i JigsawDemo.obj
 0001:0002cc80       ?convertClickedToVirtualPixelYPosition@BaseEngine@@QAEHH@Z 0042dc80 f i JigsawDemo.obj
 0001:0002ccb0       ?doDragRedraw@JigsawPiece@@UAEXXZ 0042dcb0 f i JigsawDemo.obj
 0001:0002ccd0       ?end@?$vector@PAVDisplayableObject@@V?$allocator@PAVDisplayableObject@@@std@@@std@@QBE?AV?$_Vector_const_iterator@V?$_Vector_val@U?$_Simple_types@PAVDisplayableObject@@@std@@@std@@@2@XZ 0042dcd0 f i JigsawDemo.obj
 0001:0002cd20       ?getMode@JigsawDemo@@QAE?AW4mode@1@XZ 0042dd20 f i JigsawDemo.obj
 0001:0002cd40       ?getXInImage@JigsawPiece@@QAEHXZ 0042dd40 f i JigsawDemo.obj
 0001:0002cd60       ?getYInImage@JigsawPiece@@QAEHXZ 0042dd60 f i JigsawDemo.obj
 0001:0002cd80       ?joinBottom@JigsawPiece@@QAEXPAV1@@Z 0042dd80 f i JigsawDemo.obj
 0001:0002cdb0       ?joinLeft@JigsawPiece@@QAEXPAV1@@Z 0042ddb0 f i JigsawDemo.obj
 0001:0002cde0       ?joinRight@JigsawPiece@@QAEXPAV1@@Z 0042dde0 f i JigsawDemo.obj
 0001:0002ce10       ?joinTop@JigsawPiece@@QAEXPAV1@@Z 0042de10 f i JigsawDemo.obj
 0001:0002ce40       ?mapCoordinates@JigsawPiece@@UAE_NAAN0ABVSimpleImage@@@Z 0042de40 f i JigsawDemo.obj
 0001:0002d010       ?moveToLast@DisplayableObjectContainer@@QAE_NPAVDisplayableObject@@@Z 0042e010 f i JigsawDemo.obj
 0001:0002d1a0       ?push_back@?$vector@PAVDisplayableObject@@V?$allocator@PAVDisplayableObject@@@std@@@std@@QAEXABQAVDisplayableObject@@@Z 0042e1a0 f i JigsawDemo.obj
 0001:0002d1c0       ?recursiveDrag@JigsawPiece@@UAEXHH@Z 0042e1c0 f i JigsawDemo.obj
 0001:0002d320       ?setFilter@JigsawPiece@@QAEXPAVPieceFilter@@@Z 0042e320 f i JigsawDemo.obj
 0001:0002d340       ?setOffset@FilterPointsTranslation@@QAEXHH@Z 0042e340 f i JigsawDemo.obj
 0001:0002d370       ?shouldDraw@PieceFilter@@QAE_NHH@Z 0042e370 f i JigsawDemo.obj
 0001:0002d3f0       ?stretch@FilterPointsScaling@@QAEXXZ 0042e3f0 f i JigsawDemo.obj
 0001:0002d420       ?stretchX@FilterPointsScaling@@QAEXXZ 0042e420 f i JigsawDemo.obj
 0001:0002d470       ?stretchY@FilterPointsScaling@@QAEXXZ 0042e470 f i JigsawDemo.obj
 0001:0002d4c0       ?virtDraw@JigsawPiece@@UAEXXZ 0042e4c0 f i JigsawDemo.obj
 0001:0002d570       ?virtMouseDown@JigsawPiece@@UAEXHHH@Z 0042e570 f i JigsawDemo.obj
 0001:0002d5a0       ?virtMouseMoved@JigsawPiece@@UAEXHH@Z 0042e5a0 f i JigsawDemo.obj
 0001:0002d680       ?virtMouseUp@JigsawPiece@@UAEXHHH@Z 0042e680 f i JigsawDemo.obj
 0001:0002d740       ?virtSingleItemMouseDown@JigsawPiece@@UAE_NHHH@Z 0042e740 f i JigsawDemo.obj
 0001:0002d8b0       ?write@JigsawPiece@@QAEXPAU_iobuf@@H@Z 0042e8b0 f i JigsawDemo.obj
 0001:0002d920       ?zoomIn@JigsawDemo@@QAEXXZ 0042e920 f i JigsawDemo.obj
 0001:0002d9f0       ?zoomOut@JigsawDemo@@QAEXXZ 0042e9f0 f i JigsawDemo.obj
 0001:0002dac0       _fprintf                   0042eac0 f i JigsawDemo.obj
 0001:0002db00       _SDL_main                  0042eb00 f   mainfunction.obj
 0001:0002db60       ?doProgram@@YAHHQAPAD@Z    0042eb60 f   mainfunction.obj
 0001:0002dca0       ??1ImageManager@@QAE@XZ    0042eca0 f i mainfunction.obj
 0001:0002dcd0       ??_GImageManager@@QAEPAXI@Z 0042ecd0 f i mainfunction.obj
 0001:0002dd10       ?destroyImageManager@ImageManager@@SAXXZ 0042ed10 f i mainfunction.obj
 0001:0002dd70       ??0BaseEngine@@QAE@XZ      0042ed70 f   BaseEngine.obj
 0001:0002dfb0       ??1BaseEngine@@UAE@XZ      0042efb0 f   BaseEngine.obj
 0001:0002e000       ?initialise@BaseEngine@@QAEHPBDHH0H@Z 0042f000 f   BaseEngine.obj
 0001:0002e130       ?deinitialise@BaseEngine@@QAEXXZ 0042f130 f   BaseEngine.obj
 0001:0002e160       ?mainLoop@BaseEngine@@QAEHXZ 0042f160 f   BaseEngine.obj
 0001:0002e290       ?handleEvent@BaseEngine@@QAE_NPATSDL_Event@@@Z 0042f290 f   BaseEngine.obj
 0001:0002e8d0       ?isKeyPressed@BaseEngine@@QBE_NH@Z 0042f8d0 f   BaseEngine.obj
 0001:0002e900       ?virtKeyUp@BaseEngine@@UAEXH@Z 0042f900 f   BaseEngine.obj
 0001:0002e910       ?virtKeyDown@BaseEngine@@UAEXH@Z 0042f910 f   BaseEngine.obj
 0001:0002e920       ?virtMouseMoved@BaseEngine@@UAEXHH@Z 0042f920 f   BaseEngine.obj
 0001:0002e930       ?virtMouseDown@BaseEngine@@UAEXHHH@Z 0042f930 f   BaseEngine.obj
 0001:0002e940       ?virtMouseUp@BaseEngine@@UAEXHHH@Z 0042f940 f   BaseEngine.obj
 0001:0002e950       ?virtInitialise@BaseEngine@@UAEHXZ 0042f950 f   BaseEngine.obj
 0001:0002e9a0       ?virtCreateWindows@BaseEngine@@UAEXPBD@Z 0042f9a0 f   BaseEngine.obj
 0001:0002ea30       ?virtCreateSurfaces@BaseEngine@@UAEXXZ 0042fa30 f   BaseEngine.obj
 0001:0002ea80       ?virtCleanUp@BaseEngine@@UAEXXZ 0042fa80 f   BaseEngine.obj
 0001:0002ea90       ?virtSetupBackgroundBuffer@BaseEngine@@UAEXXZ 0042fa90 f   BaseEngine.obj
 0001:0002eab0       ?virtDrawStringsUnderneath@BaseEngine@@UAEXXZ 0042fab0 f   BaseEngine.obj
 0001:0002eac0       ?virtDrawStringsOnTop@BaseEngine@@UAEXXZ 0042fac0 f   BaseEngine.obj
 0001:0002ead0       ?virtCheckForUpdateTime@BaseEngine@@UAE_NXZ 0042fad0 f   BaseEngine.obj
 0001:0002eb20       ?virtRenderScreen@BaseEngine@@UAEXXZ 0042fb20 f   BaseEngine.obj
 0001:0002ecb0       ?getColour@BaseEngine@@QBEIH@Z 0042fcb0 f   BaseEngine.obj
 0001:0002eef0       ?virtInitialiseObjects@BaseEngine@@UAEHXZ 0042fef0 f   BaseEngine.obj
 0001:0002ef20       ?drawAllObjects@BaseEngine@@UAEXXZ 0042ff20 f   BaseEngine.obj
 0001:0002f100       ?updateAllObjects@BaseEngine@@UAEXH@Z 00430100 f   BaseEngine.obj
 0001:0002f2e0       _mydebug                   004302e0 f   BaseEngine.obj
 0001:0002f860       ??$?0ABV?$allocator@PAVDisplayableObject@@@std@@$$V@?$_Compressed_pair@V?$allocator@PAVDisplayableObject@@@std@@V?$_Vector_val@U?$_Simple_types@PAVDisplayableObject@@@std@@@2@$00@std@@QAE@U_One_then_variadic_args_t@1@ABV?$allocator@PAVDisplayableObject@@@1@@Z 00430860 f i BaseEngine.obj
 0001:0002f890       ??$?0PAVDisplayableObject@@@?$allocator@U_Container_proxy@std@@@std@@QAE@ABV?$allocator@PAVDisplayableObject@@@1@@Z 00430890 f i BaseEngine.obj
 0001:0002f8b0       ??$_Construct_n_copies_of_ty@U_Value_init_tag@std@@@?$vector@PAVDisplayableObject@@V?$allocator@PAVDisplayableObject@@@std@@@std@@AAEXIABU_Value_init_tag@1@@Z 004308b0 f i BaseEngine.obj
 0001:0002fe40       ??$forward@ABV?$allocator@PAVDisplayableObject@@@std@@@std@@YAABV?$allocator@PAVDisplayableObject@@@0@ABV10@@Z 00430e40 f i BaseEngine.obj
 0001:0002ff10       ??0?$_Vector_iterator@V?$_Vector_val@U?$_Simple_types@PAVDisplayableObject@@@std@@@std@@@std@@QAE@ABV01@@Z 00430f10 f i BaseEngine.obj
 0001:0002ff40       ??0?$_Vector_val@U?$_Simple_types@PAVDisplayableObject@@@std@@@std@@QAE@XZ 00430f40 f i BaseEngine.obj
 0001:0002ff90       ??0?$allocator@PAVDisplayableObject@@@std@@QAE@XZ 00430f90 f i BaseEngine.obj
 0001:0002ffb0       ??0?$vector@PAVDisplayableObject@@V?$allocator@PAVDisplayableObject@@@std@@@std@@QAE@IABV?$allocator@PAVDisplayableObject@@@1@@Z 00430fb0 f i BaseEngine.obj
 0001:00030000       ??0DisplayableObjectContainer@@QAE@H@Z 00431000 f i BaseEngine.obj
 0001:00030060       ??0FilterPoints@@QAE@XZ    00431060 f i BaseEngine.obj
 0001:00030080       ??1?$_Tidy_guard@V?$vector@PAVDisplayableObject@@V?$allocator@PAVDisplayableObject@@@std@@@std@@@std@@QAE@XZ 00431080 f i BaseEngine.obj
 0001:000300b0       ??1?$vector@PAVDisplayableObject@@V?$allocator@PAVDisplayableObject@@@std@@@std@@QAE@XZ 004310b0 f i BaseEngine.obj
 0001:00030150       ??1DisplayableObjectContainer@@UAE@XZ 00431150 f i BaseEngine.obj
 0001:000301c0       ??D?$_Vector_const_iterator@V?$_Vector_val@U?$_Simple_types@PAVDisplayableObject@@@std@@@std@@@std@@QBEABQAVDisplayableObject@@XZ 004311c0 f i BaseEngine.obj
 0001:000302d0       ??D?$_Vector_iterator@V?$_Vector_val@U?$_Simple_types@PAVDisplayableObject@@@std@@@std@@@std@@QBEAAPAVDisplayableObject@@XZ 004312d0 f i BaseEngine.obj
 0001:000302f0       ??E?$_Vector_const_iterator@V?$_Vector_val@U?$_Simple_types@PAVDisplayableObject@@@std@@@std@@@std@@QAEAAV01@XZ 004312f0 f i BaseEngine.obj
 0001:00030400       ??E?$_Vector_iterator@V?$_Vector_val@U?$_Simple_types@PAVDisplayableObject@@@std@@@std@@@std@@QAE?AV01@H@Z 00431400 f i BaseEngine.obj
 0001:00030620       ??_EBaseEngine@@UAEPAXI@Z  00431620 f i BaseEngine.obj
 0001:00030620       ??_GBaseEngine@@UAEPAXI@Z  00431620 f i BaseEngine.obj
 0001:00030660       ??_GDisplayableObjectContainer@@UAEPAXI@Z 00431660 f i BaseEngine.obj
 0001:00030660       ??_EDisplayableObjectContainer@@UAEPAXI@Z 00431660 f i BaseEngine.obj
 0001:000306a0       ?_Buy_nonzero@?$vector@PAVDisplayableObject@@V?$allocator@PAVDisplayableObject@@@std@@@std@@AAEXI@Z 004316a0 f i BaseEngine.obj
 0001:000306e0       ?_Buy_raw@?$vector@PAVDisplayableObject@@V?$allocator@PAVDisplayableObject@@@std@@@std@@AAEXI@Z 004316e0 f i BaseEngine.obj
 0001:00030760       ?_Tidy@?$vector@PAVDisplayableObject@@V?$allocator@PAVDisplayableObject@@@std@@@std@@AAEXXZ 00431760 f i BaseEngine.obj
 0001:00030850       ?getHasActed@DisplayableObject@@QBE_NXZ 00431850 f i BaseEngine.obj
 0001:00030870       ?isTimeToAct@BaseEngine@@QBE_NXZ 00431870 f i BaseEngine.obj
 0001:000308b0       ?mySDLUpdateTexture@DrawingSurface@@QAEXPAUSDL_Texture@@@Z 004318b0 f i BaseEngine.obj
 0001:000308f0       ?setHasActed@DisplayableObject@@QAEX_N@Z 004318f0 f i BaseEngine.obj
 0001:00030910       ?setTimeToAct@BaseEngine@@QAEXH@Z 00431910 f i BaseEngine.obj
 0001:00030940       ?symbolToKeycode@BaseEngine@@SAHH@Z 00431940 f i BaseEngine.obj
 0001:00030e30       ?virtMainLoopDoBeforeUpdate@BaseEngine@@UAEXXZ 00431e30 f i BaseEngine.obj
 0001:00030e40       ??0DisplayableObject@@QAE@PAVBaseEngine@@HH_N@Z 00431e40 f   DisplayableObject.obj
 0001:00030f00       ??0DisplayableObject@@QAE@HHPAVBaseEngine@@HH_N@Z 00431f00 f   DisplayableObject.obj
 0001:00030fc0       ??1DisplayableObject@@UAE@XZ 00431fc0 f   DisplayableObject.obj
 0001:00030fe0       ?virtDraw@DisplayableObject@@UAEXXZ 00431fe0 f   DisplayableObject.obj
 0001:00031080       ?virtDoUpdate@DisplayableObject@@UAEXH@Z 00432080 f   DisplayableObject.obj
 0001:00031090       ?redrawDisplay@DisplayableObject@@QAEXXZ 00432090 f   DisplayableObject.obj
 0001:000310b0       ?redrawRectangle@DisplayableObject@@QAEXXZ 004320b0 f   DisplayableObject.obj
 0001:000310f0       ?virtIsObjectInRedrawArea@DisplayableObject@@QAE_NXZ 004320f0 f   DisplayableObject.obj
 0001:00031190       ?fixPosition@DisplayableObject@@QAEXXZ 00432190 f   DisplayableObject.obj
 0001:00031360       ??_GDisplayableObject@@UAEPAXI@Z 00432360 f i DisplayableObject.obj
 0001:00031360       ??_EDisplayableObject@@UAEPAXI@Z 00432360 f i DisplayableObject.obj
 0001:000313a0       ?convertVirtualPixelToClickedXPosition@BaseEngine@@QAEHH@Z 004323a0 f i DisplayableObject.obj
 0001:000313d0       ?convertVirtualPixelToClickedYPosition@BaseEngine@@QAEHH@Z 004323d0 f i DisplayableObject.obj
 0001:00031400       ?convertVirtualToRealXPosition@DrawingSurface@@QAEHH@Z 00432400 f i DisplayableObject.obj
 0001:00031440       ?convertVirtualToRealYPosition@DrawingSurface@@QAEHH@Z 00432440 f i DisplayableObject.obj
 0001:00031480       ?redrawRectangle@BaseEngine@@QAEXHHHH@Z 00432480 f i DisplayableObject.obj
 0001:000315f0       ?setForegroundPixel@BaseEngine@@QAEXHHI@Z 004325f0 f i DisplayableObject.obj
 0001:00031620       ??0FontManager@@QAE@XZ     00432620 f   FontManager.obj
 0001:00031690       ??1FontManager@@QAE@XZ     00432690 f   FontManager.obj
 0001:00031700       ?getFont@FontManager@@QAEPAVFont@@PBDH@Z 00432700 f   FontManager.obj
 0001:000318a0       ?loadFonts@FontManager@@QAEXXZ 004328a0 f   FontManager.obj
 0001:000319d0       ??$growArrayOfObjects@PAVFont@@@@YAPAPAVFont@@PAPAV0@AAHH@Z 004329d0 f i FontManager.obj
 0001:00031a90       ??0Font@@QAE@PBDH@Z        00432a90 f i FontManager.obj
 0001:00031b10       ??1Font@@QAE@XZ            00432b10 f i FontManager.obj
 0001:00031b90       ??_GFont@@QAEPAXI@Z        00432b90 f i FontManager.obj
 0001:00031bd0       ?getName@Font@@QAEPBDXZ    00432bd0 f i FontManager.obj
 0001:00031bf0       ?getSize@Font@@QAEHXZ      00432bf0 f i FontManager.obj
 0001:00031c10       ?virtSetupBackgroundBuffer@ImageMappingDemo@@UAEXXZ 00432c10 f   ImageMappingDemo.obj
 0001:00031d10       ?virtInitialiseObjects@ImageMappingDemo@@UAEHXZ 00432d10 f   ImageMappingDemo.obj
 0001:00032080       ?virtKeyDown@ImageMappingDemo@@UAEXH@Z 00433080 f   ImageMappingDemo.obj
 0001:000320b0       ?virtMainLoopDoBeforeUpdate@ImageMappingDemo@@UAEXXZ 004330b0 f   ImageMappingDemo.obj
 0001:00032140       ?mapCoordinates@ImageMappingDemo@@UAE_NAAN0ABVSimpleImage@@@Z 00433140 f   ImageMappingDemo.obj
 0001:00032410       ??0MappableImageObject@@QAE@PAVCoordinateMapping@@HHPAVBaseEngine@@V?$basic_string@DU?$char_traits@D@std@@V?$allocator@D@2@@std@@_N3@Z 00433410 f i ImageMappingDemo.obj
 0001:000324d0       ??1MappableImageObject@@UAE@XZ 004334d0 f i ImageMappingDemo.obj
 0001:000324f0       ??_EMappableImageObject@@UAEPAXI@Z 004334f0 f i ImageMappingDemo.obj
 0001:000324f0       ??_GMappableImageObject@@UAEPAXI@Z 004334f0 f i ImageMappingDemo.obj
 0001:00032530       ?getPixelColour@MappableImageObject@@QAEHHH@Z 00433530 f i ImageMappingDemo.obj
 0001:00032560       ?setRotation@CoordinateMappingRotate@@QAEXN@Z 00433560 f i ImageMappingDemo.obj
 0001:00032580       ?setTransparencyColour@MappableImageObject@@QAEXH@Z 00433580 f i ImageMappingDemo.obj
 0001:000325b0       ?setXShift@CoordinateMappingShiftXY@@QAEXN@Z 004335b0 f i ImageMappingDemo.obj
 0001:000325d0       ?setYShift@CoordinateMappingShiftXY@@QAEXN@Z 004335d0 f i ImageMappingDemo.obj
 0001:000325f0       ?virtDraw@MappableImageObject@@UAEXXZ 004335f0 f i ImageMappingDemo.obj
 0001:00032680       ??0PlayerObject@@QAE@PAVBaseEngine@@V?$shared_ptr@VWeapon@@@std@@@Z 00433680 f   PlayerObject.obj
 0001:00032750       ??1PlayerObject@@UAE@XZ    00433750 f   PlayerObject.obj
 0001:00032770       ?virtDraw@PlayerObject@@UAEXXZ 00433770 f   PlayerObject.obj
 0001:00032830       ?virtDoUpdate@PlayerObject@@UAEXH@Z 00433830 f   PlayerObject.obj
 0001:00032b70       ?virtMouseDown@PlayerObject@@UAEXHHH@Z 00433b70 f   PlayerObject.obj
 0001:00032cd0       ?move@PlayerObject@@UAEXHHHH@Z 00433cd0 f   PlayerObject.obj
 0001:00032e60       ?attack@PlayerObject@@QAEXPAVEnemyObject@@@Z 00433e60 f   PlayerObject.obj
 0001:00032e90       ?onProjectileHit@PlayerObject@@UAEXPAVCharObject@@@Z 00433e90 f   PlayerObject.obj
 0001:00032eb0       ?adjacentTo@PlayerObject@@QAE_NHHH@Z 00433eb0 f   PlayerObject.obj
 0001:00033140       ??_EPlayerObject@@UAEPAXI@Z 00434140 f i PlayerObject.obj
 0001:00033140       ??_GPlayerObject@@UAEPAXI@Z 00434140 f i PlayerObject.obj
 0001:00033180       ??0ProjectileObject@@QAE@PAVBaseEngine@@PBDPAVCharObject@@2@Z 00434180 f   ProjectileObject.obj
 0001:00033390       ??1ProjectileObject@@UAE@XZ 00434390 f   ProjectileObject.obj
 0001:000333f0       ?virtDraw@ProjectileObject@@UAEXXZ 004343f0 f   ProjectileObject.obj
 0001:00033460       ?virtDoUpdate@ProjectileObject@@UAEXH@Z 00434460 f   ProjectileObject.obj
 0001:00033520       ?setMovement@ProjectileObject@@QAEXHHHHHHH@Z 00434520 f   ProjectileObject.obj
 0001:00033680       ??0CoordinateMappingRotateTransparent@@QAE@NH@Z 00434680 f i ProjectileObject.obj
 0001:000336d0       ??_EProjectileObject@@UAEPAXI@Z 004346d0 f i ProjectileObject.obj
 0001:000336d0       ??_GProjectileObject@@UAEPAXI@Z 004346d0 f i ProjectileObject.obj
 0001:00033710       ?abs@@YANN@Z               00434710 f i ProjectileObject.obj
 0001:00033740       ?getXCentre@DisplayableObject@@QBEHXZ 00434740 f i ProjectileObject.obj
 0001:00033770       ?getYCentre@DisplayableObject@@QBEHXZ 00434770 f i ProjectileObject.obj
 0001:00033ab0       ?virtDrawTileAt@Psybc5TileManager@@UBEXPAVBaseEngine@@PAVDrawingSurface@@HHHH@Z 00434ab0 f   Psybc5TileManager.obj
 0001:00033b50       ?virtDrawTileAt@BackgroundTileManager@@UBEXPAVBaseEngine@@PAVDrawingSurface@@HHHH@Z 00434b50 f   Psybc5TileManager.obj
 0001:00033bb0       ?virtDrawTileAt@SolidTileManager@@UBEXPAVBaseEngine@@PAVDrawingSurface@@HHHH@Z 00434bb0 f   Psybc5TileManager.obj
 0001:00033c00       ?virtDrawTileAt@InventoryTileManager@@UBEXPAVBaseEngine@@PAVDrawingSurface@@HHHH@Z 00434c00 f   Psybc5TileManager.obj
 0001:00033d60       ??$?CVItem@@$0A@@?$shared_ptr@VItem@@@std@@QBEPAVItem@@XZ 00434d60 f i Psybc5TileManager.obj
 0001:00033d80       ??$floor@HX@@YANH@Z        00434d80 f i Psybc5TileManager.obj
 0001:00033db0       ??A?$vector@V?$shared_ptr@VItem@@@std@@V?$allocator@V?$shared_ptr@VItem@@@std@@@2@@std@@QBEABV?$shared_ptr@VItem@@@1@I@Z 00434db0 f i Psybc5TileManager.obj
 0001:00033e60       ?get@?$_Ptr_base@VItem@@@std@@IBEPAVItem@@XZ 00434e60 f i Psybc5TileManager.obj
 0001:00033e80       ??0SaveManager@@QAE@XZ     00434e80 f   SaveManager.obj
 0001:00033ee0       ?loadFileContents@SaveManager@@QAEXV?$basic_string@DU?$char_traits@D@std@@V?$allocator@D@2@@std@@@Z 00434ee0 f   SaveManager.obj
 0001:00034000       ?getSaveData@SaveManager@@QAE?AV?$basic_string@DU?$char_traits@D@std@@V?$allocator@D@2@@std@@V23@@Z 00435000 f   SaveManager.obj
 0001:00034130       ?getTagContents@SaveManager@@QAE?AV?$basic_string@DU?$char_traits@D@std@@V?$allocator@D@2@@std@@V23@0@Z 00435130 f   SaveManager.obj
 0001:00034250       ?openFile@SaveManager@@QAEPAV?$basic_ofstream@DU?$char_traits@D@std@@@std@@PBD@Z 00435250 f   SaveManager.obj
 0001:00034330       ?closeFile@SaveManager@@QAEXXZ 00435330 f   SaveManager.obj
 0001:00034480       ??$?0AAPAV_Facet_base@std@@@?$_Compressed_pair@U?$default_delete@V_Facet_base@std@@@std@@PAV_Facet_base@2@$00@std@@QAE@U_Zero_then_variadic_args_t@1@AAPAV_Facet_base@1@@Z 00435480 f i SaveManager.obj
 0001:000344b0       ??$?0ABV?$allocator@D@std@@$$V@?$_Compressed_pair@V?$allocator@D@std@@V?$_String_val@U?$_Simple_types@D@std@@@2@$00@std@@QAE@U_One_then_variadic_args_t@1@ABV?$allocator@D@1@@Z 004354b0 f i SaveManager.obj
 0001:000344e0       ??$?0U?$default_delete@V_Facet_base@std@@@std@@$0A@@?$unique_ptr@V_Facet_base@std@@U?$default_delete@V_Facet_base@std@@@2@@std@@QAE@PAV_Facet_base@1@@Z 004354e0 f i SaveManager.obj
 0001:00034510       ??$_Fgetc@D@std@@YA_NAADPAU_iobuf@@@Z 00435510 f i SaveManager.obj
 0001:00034550       ??$_Fputc@D@std@@YA_NDPAU_iobuf@@@Z 00435550 f i SaveManager.obj
 0001:00034590       ??$_Pocca@V?$allocator@D@std@@@std@@YAXAAV?$allocator@D@0@ABV10@@Z 00435590 f i SaveManager.obj
 0001:000345a0       ??$_Reallocate_grow_by@V<lambda_15711c68e099a15a58f4d77303cb286d>@@D@?$basic_string@DU?$char_traits@D@std@@V?$allocator@D@2@@std@@AAEAAV01@IV<lambda_15711c68e099a15a58f4d77303cb286d>@@D@Z 004355a0 f i SaveManager.obj
 0001:00034710       ??$_Reallocate_grow_by@V<lambda_4d79bb85f269e6e8002a4599002d832c>@@IPBDI@?$basic_string@DU?$char_traits@D@std@@V?$allocator@D@2@@std@@AAEAAV01@IV<lambda_4d79bb85f269e6e8002a4599002d832c>@@IPBDI@Z 00435710 f i SaveManager.obj
 0001:00034890       ??$_Traits_find@U?$char_traits@D@std@@@std@@YAIQBDII0I@Z 00435890 f i SaveManager.obj
 0001:00034950       ??$_Ungetc@D@std@@YA_NABDPAU_iobuf@@@Z 00435950 f i SaveManager.obj
 0001:000349a0       ??$addressof@$$CBV?$basic_string@DU?$char_traits@D@std@@V?$allocator@D@2@@std@@@std@@YAPBV?$basic_string@DU?$char_traits@D@std@@V?$allocator@D@2@@0@ABV10@@Z 004359a0 f i SaveManager.obj
 0001:000349b0       ??$addressof@$$CBV?$codecvt@DDU_Mbstatet@@@std@@@std@@YAPBV?$codecvt@DDU_Mbstatet@@@0@ABV10@@Z 004359b0 f i SaveManager.obj
 0001:000349c0       ??$addressof@V?$basic_filebuf@DU?$char_traits@D@std@@@std@@@std@@YAPAV?$basic_filebuf@DU?$char_traits@D@std@@@0@AAV10@@Z 004359c0 f i SaveManager.obj
 0001:000349d0       ??$exchange@PAV_Facet_base@std@@PAV12@@std@@YAPAV_Facet_base@0@AAPAV10@$$QAPAV10@@Z 004359d0 f i SaveManager.obj
 0001:00034a00       ??$forward@AAPAV_Facet_base@std@@@std@@YAAAPAV_Facet_base@0@AAPAV10@@Z 00435a00 f i SaveManager.obj
 0001:00034a10       ??$forward@ABV?$allocator@D@std@@@std@@YAABV?$allocator@D@0@ABV10@@Z 00435a10 f i SaveManager.obj
 0001:00034a20       ??$use_facet@V?$codecvt@DDU_Mbstatet@@@std@@@std@@YAABV?$codecvt@DDU_Mbstatet@@@0@ABVlocale@0@@Z 00435a20 f i SaveManager.obj
 0001:00034b70       ??0?$basic_filebuf@DU?$char_traits@D@std@@@std@@QAE@XZ 00435b70 f i SaveManager.obj
 0001:00034bf0       ??0?$basic_ifstream@DU?$char_traits@D@std@@@std@@QAE@ABV?$basic_string@DU?$char_traits@D@std@@V?$allocator@D@2@@1@HH@Z 00435bf0 f i SaveManager.obj
 0001:00034c60       ??0?$basic_ifstream@DU?$char_traits@D@std@@@std@@QAE@PBDHH@Z 00435c60 f i SaveManager.obj
 0001:00034db0       ??0?$basic_ofstream@DU?$char_traits@D@std@@@std@@QAE@PBDHH@Z 00435db0 f i SaveManager.obj
 0001:00034f00       ??0?$basic_ofstream@DU?$char_traits@D@std@@@std@@QAE@XZ 00435f00 f i SaveManager.obj
 0001:00035010       ??0?$basic_string@DU?$char_traits@D@std@@V?$allocator@D@2@@std@@QAE@ABV01@IIABV?$allocator@D@1@@Z 00436010 f i SaveManager.obj
 0001:00035100       ??0?$fpos@U_Mbstatet@@@std@@QAE@U_Mbstatet@@_J@Z 00436100 f i SaveManager.obj
 0001:00035150       ??0?$fpos@U_Mbstatet@@@std@@QAE@_J@Z 00436150 f i SaveManager.obj
 0001:000351a0       ??0bad_cast@std@@QAE@ABV01@@Z 004361a0 f i SaveManager.obj
 0001:000351d0       ??0bad_cast@std@@QAE@XZ    004361d0 f i SaveManager.obj
 0001:00035200       ??1?$basic_filebuf@DU?$char_traits@D@std@@@std@@UAE@XZ 00436200 f i SaveManager.obj
 0001:00035290       ??1?$basic_ifstream@DU?$char_traits@D@std@@@std@@UAE@XZ 00436290 f i SaveManager.obj
 0001:00035300       ??1?$basic_ofstream@DU?$char_traits@D@std@@@std@@UAE@XZ 00436300 f i SaveManager.obj
 0001:00035370       ??1?$unique_ptr@V_Facet_base@std@@U?$default_delete@V_Facet_base@std@@@2@@std@@QAE@XZ 00436370 f i SaveManager.obj
 0001:000353b0       ??1bad_cast@std@@UAE@XZ    004363b0 f i SaveManager.obj
 0001:000353d0       ??1locale@std@@QAE@XZ      004363d0 f i SaveManager.obj
 0001:00035430       ??4?$basic_string@DU?$char_traits@D@std@@V?$allocator@D@2@@std@@QAEAAV01@ABV01@@Z 00436430 f i SaveManager.obj
 0001:00035480       ??B?$fpos@U_Mbstatet@@@std@@QBE_JXZ 00436480 f i SaveManager.obj
 0001:000354b0       ??R<lambda_15711c68e099a15a58f4d77303cb286d>@@QBE@QADQBDID@Z 004364b0 f i SaveManager.obj
 0001:00035520       ??R<lambda_4d79bb85f269e6e8002a4599002d832c>@@QBE@QADQBDII1I@Z 00436520 f i SaveManager.obj
 0001:000355a0       ??R?$default_delete@V_Facet_base@std@@@std@@QBEXPAV_Facet_base@1@@Z 004365a0 f i SaveManager.obj
 0001:000355f0       ??Y?$basic_string@DU?$char_traits@D@std@@V?$allocator@D@2@@std@@QAEAAV01@D@Z 004365f0 f i SaveManager.obj
 0001:00035620       ??_D?$basic_ifstream@DU?$char_traits@D@std@@@std@@QAEXXZ 00436620 f i SaveManager.obj
 0001:00035650       ??_D?$basic_ofstream@DU?$char_traits@D@std@@@std@@QAEXXZ 00436650 f i SaveManager.obj
 0001:0003567a       ??_E?$basic_ifstream@DU?$char_traits@D@std@@@std@@$4PPPPPPPM@A@AEPAXI@Z 0043667a f i SaveManager.obj
 0001:00035684       ??_E?$basic_ofstream@DU?$char_traits@D@std@@@std@@$4PPPPPPPM@A@AEPAXI@Z 00436684 f i SaveManager.obj
 0001:00035690       ??_E?$basic_filebuf@DU?$char_traits@D@std@@@std@@UAEPAXI@Z 00436690 f i SaveManager.obj
 0001:00035690       ??_G?$basic_filebuf@DU?$char_traits@D@std@@@std@@UAEPAXI@Z 00436690 f i SaveManager.obj
 0001:000356d0       ??_E?$basic_ifstream@DU?$char_traits@D@std@@@std@@UAEPAXI@Z 004366d0 f i SaveManager.obj
 0001:000356d0       ??_G?$basic_ifstream@DU?$char_traits@D@std@@@std@@UAEPAXI@Z 004366d0 f i SaveManager.obj
 0001:00035720       ??_E?$basic_ofstream@DU?$char_traits@D@std@@@std@@UAEPAXI@Z 00436720 f i SaveManager.obj
 0001:00035720       ??_G?$basic_ofstream@DU?$char_traits@D@std@@@std@@UAEPAXI@Z 00436720 f i SaveManager.obj
 0001:00035770       ??_Ebad_cast@std@@UAEPAXI@Z 00436770 f i SaveManager.obj
 0001:00035770       ??_Gbad_cast@std@@UAEPAXI@Z 00436770 f i SaveManager.obj
 0001:000357b0       ?_Check_offset@?$_String_val@U?$_Simple_types@D@std@@@std@@QBEXI@Z 004367b0 f i SaveManager.obj
 0001:000357e0       ?_Clamp_suffix_size@?$_String_val@U?$_Simple_types@D@std@@@std@@QBEIII@Z 004367e0 f i SaveManager.obj
 0001:00035820       ?_Copy_assign@?$basic_string@DU?$char_traits@D@std@@V?$allocator@D@2@@std@@AAEXABV12@U?$integral_constant@_N$0A@@2@@Z 00436820 f i SaveManager.obj
 0001:00035870       ?_Endwrite@?$basic_filebuf@DU?$char_traits@D@std@@@std@@IAE_NXZ 00436870 f i SaveManager.obj
 0001:000359d0       ?_Get_first@?$_Compressed_pair@U?$default_delete@V_Facet_base@std@@@std@@PAV_Facet_base@2@$00@std@@QAEAAU?$default_delete@V_Facet_base@std@@@2@XZ 004369d0 f i SaveManager.obj
 0001:000359f0       ?_Getfacet@locale@std@@QBEPBVfacet@12@I@Z 004369f0 f i SaveManager.obj
 0001:00035a90       ?_Init@?$basic_filebuf@DU?$char_traits@D@std@@@std@@IAEXPAU_iobuf@@W4_Initfl@12@@Z 00436a90 f i SaveManager.obj
 0001:00035b90       ?_Initcvt@?$basic_filebuf@DU?$char_traits@D@std@@@std@@IAEXABV?$codecvt@DDU_Mbstatet@@@2@@Z 00436b90 f i SaveManager.obj
 0001:00035bf0       ?_Lock@?$basic_filebuf@DU?$char_traits@D@std@@@std@@UAEXXZ 00436bf0 f i SaveManager.obj
 0001:00035c20       ?_Reset_back@?$basic_filebuf@DU?$char_traits@D@std@@@std@@AAEXXZ 00436c20 f i SaveManager.obj
 0001:00035c70       ?_Set_back@?$basic_filebuf@DU?$char_traits@D@std@@@std@@AAEXXZ 00436c70 f i SaveManager.obj
 0001:00035ce0       ?_Throw_bad_cast@std@@YAXXZ 00436ce0 f i SaveManager.obj
 0001:00035d10       ?_Unlock@?$basic_filebuf@DU?$char_traits@D@std@@@std@@UAEXXZ 00436d10 f i SaveManager.obj
 0001:00035d40       ?_Xran@?$_String_val@U?$_Simple_types@D@std@@@std@@SAXXZ 00436d40 f i SaveManager.obj
 0001:00035d60       ?assign@?$basic_string@DU?$char_traits@D@std@@V?$allocator@D@2@@std@@QAEAAV12@ABV12@II@Z 00436d60 f i SaveManager.obj
 0001:00035dc0       ?close@?$basic_filebuf@DU?$char_traits@D@std@@@std@@QAEPAV12@XZ 00436dc0 f i SaveManager.obj
 0001:00035e40       ?close@?$basic_ifstream@DU?$char_traits@D@std@@@std@@QAEXXZ 00436e40 f i SaveManager.obj
 0001:00035e80       ?close@?$basic_ofstream@DU?$char_traits@D@std@@@std@@QAEXXZ 00436e80 f i SaveManager.obj
 0001:00035ec0       ?erase@?$basic_string@DU?$char_traits@D@std@@V?$allocator@D@2@@std@@QAEAAV12@II@Z 00436ec0 f i SaveManager.obj
 0001:00035f60       ?find@?$_Narrow_char_traits@DH@std@@SAPBDQBDIABD@Z 00436f60 f i SaveManager.obj
 0001:00035f90       ?find@?$basic_string@DU?$char_traits@D@std@@V?$allocator@D@2@@std@@QBEIABV12@I@Z 00436f90 f i SaveManager.obj
 0001:00036010       ?front@?$basic_string@DU?$char_traits@D@std@@V?$allocator@D@2@@std@@QAEAADXZ 00437010 f i SaveManager.obj
 0001:000360e0       ?get_allocator@?$basic_string@DU?$char_traits@D@std@@V?$allocator@D@2@@std@@QBE?AV?$allocator@D@2@XZ 004370e0 f i SaveManager.obj
 0001:00036100       ?imbue@?$basic_filebuf@DU?$char_traits@D@std@@@std@@MAEXABVlocale@2@@Z 00437100 f i SaveManager.obj
 0001:00036130       ?insert@?$basic_string@DU?$char_traits@D@std@@V?$allocator@D@2@@std@@QAEAAV12@IQBD@Z 00437130 f i SaveManager.obj
 0001:00036170       ?insert@?$basic_string@DU?$char_traits@D@std@@V?$allocator@D@2@@std@@QAEAAV12@IQBDI@Z 00437170 f i SaveManager.obj
 0001:000362c0       ?length@?$basic_string@DU?$char_traits@D@std@@V?$allocator@D@2@@std@@QBEIXZ 004372c0 f i SaveManager.obj
 0001:000362e0       ?not_eof@?$_Narrow_char_traits@DH@std@@SAHABH@Z 004372e0 f i SaveManager.obj
 0001:00036340       ?open@?$basic_filebuf@DU?$char_traits@D@std@@@std@@QAEPAV12@PBDHH@Z 00437340 f i SaveManager.obj
 0001:00036430       ?open@?$basic_ofstream@DU?$char_traits@D@std@@@std@@QAEXPBDHH@Z 00437430 f i SaveManager.obj
 0001:000364b0       ?overflow@?$basic_filebuf@DU?$char_traits@D@std@@@std@@MAEHH@Z 004374b0 f i SaveManager.obj
 0001:00036710       ?pbackfail@?$basic_filebuf@DU?$char_traits@D@std@@@std@@MAEHH@Z 00437710 f i SaveManager.obj
 0001:000368c0       ?push_back@?$basic_string@DU?$char_traits@D@std@@V?$allocator@D@2@@std@@QAEXD@Z 004378c0 f i SaveManager.obj
 0001:00036970       ?release@?$unique_ptr@V_Facet_base@std@@U?$default_delete@V_Facet_base@std@@@2@@std@@QAEPAV_Facet_base@2@XZ 00437970 f i SaveManager.obj
 0001:000369e0       ?seekoff@?$basic_filebuf@DU?$char_traits@D@std@@@std@@MAE?AV?$fpos@U_Mbstatet@@@2@_JHH@Z 004379e0 f i SaveManager.obj
 0001:00036af0       ?seekpos@?$basic_filebuf@DU?$char_traits@D@std@@@std@@MAE?AV?$fpos@U_Mbstatet@@@2@V32@H@Z 00437af0 f i SaveManager.obj
 0001:00036bc0       ?setbuf@?$basic_filebuf@DU?$char_traits@D@std@@@std@@MAEPAV?$basic_streambuf@DU?$char_traits@D@std@@@2@PAD_J@Z 00437bc0 f i SaveManager.obj
 0001:00036c60       ?state@?$fpos@U_Mbstatet@@@std@@QBE?AU_Mbstatet@@XZ 00437c60 f i SaveManager.obj
 0001:00036c90       ?substr@?$basic_string@DU?$char_traits@D@std@@V?$allocator@D@2@@std@@QBE?AV12@II@Z 00437c90 f i SaveManager.obj
 0001:00036cf0       ?sync@?$basic_filebuf@DU?$char_traits@D@std@@@std@@MAEHXZ 00437cf0 f i SaveManager.obj
 0001:00036d70       ?to_char_type@?$_Narrow_char_traits@DH@std@@SADABH@Z 00437d70 f i SaveManager.obj
 0001:00036d80       ?to_int_type@?$_Narrow_char_traits@DH@std@@SAHABD@Z 00437d80 f i SaveManager.obj
 0001:00036d90       ?uflow@?$basic_filebuf@DU?$char_traits@D@std@@@std@@MAEHXZ 00437d90 f i SaveManager.obj
 0001:000370b0       ?underflow@?$basic_filebuf@DU?$char_traits@D@std@@@std@@MAEHXZ 004380b0 f i SaveManager.obj
 0001:00037170       ?xsgetn@?$basic_filebuf@DU?$char_traits@D@std@@@std@@MAE_JPAD_J@Z 00438170 f i SaveManager.obj
 0001:00037330       ?xsputn@?$basic_filebuf@DU?$char_traits@D@std@@@std@@MAE_JPBD_J@Z 00438330 f i SaveManager.obj
 0001:00037490       ??0SimpleImage@@QAE@XZ     00438490 f   SimpleImage.obj
 0001:000374c0       ??0SimpleImage@@QAE@V?$shared_ptr@VRawImageData@@@std@@@Z 004384c0 f   SimpleImage.obj
 0001:00037500       ?exists@SimpleImage@@QBE_NXZ 00438500 f   SimpleImage.obj
 0001:00037520       ?renderImage@SimpleImage@@QBEXPAVDrawingSurface@@HHHHHH@Z 00438520 f   SimpleImage.obj
 0001:00037630       ?renderImageWithMask@SimpleImage@@QBEXPAVDrawingSurface@@HHHHHHH@Z 00438630 f   SimpleImage.obj
 0001:00037770       ?renderImageWithMaskAndTransparency@SimpleImage@@QBEXPAVDrawingSurface@@HHHHHHHH@Z 00438770 f   SimpleImage.obj
 0001:00037940       ?adjustXYWidthHeight@SimpleImage@@SA_NPAVDrawingSurface@@AAH11111@Z 00438940 f   SimpleImage.obj
 0001:00037b40       ?renderImageBlit@SimpleImage@@QAEXPAVBaseEngine@@PAVDrawingSurface@@HHHHHHHH@Z 00438b40 f   SimpleImage.obj
 0001:00037df0       ?renderImageApplyingMapping@SimpleImage@@QBEXPAVBaseEngine@@PAVDrawingSurface@@HHHHPAVCoordinateMapping@@@Z 00438df0 f   SimpleImage.obj
 0001:00038400       ??0CroppedCoordinateMapping@@QAE@XZ 00439400 f i SimpleImage.obj
 0001:00038430       ??BDrawingSurface@@QAEPAUSDL_Surface@@XZ 00439430 f i SimpleImage.obj
 0001:00038450       ?getSurface@RawImageData@@QAEPAUSDL_Surface@@XZ 00439450 f i SimpleImage.obj
 0001:00038470       ?mapCoordinates@CroppedCoordinateMapping@@UAE_NAAN0ABVSimpleImage@@@Z 00439470 f i SimpleImage.obj
 0001:00038510       ?rawGetPixel@DrawingSurface@@QBEIHH@Z 00439510 f i SimpleImage.obj
 0001:00038580       ??0JasonsDemoA@@QAE@XZ     00439580 f   JasonsDemoA.obj
 0001:000385f0       ??1JasonsDemoA@@UAE@XZ     004395f0 f   JasonsDemoA.obj
 0001:00038630       ?virtSetupBackgroundBuffer@JasonsDemoA@@UAEXXZ 00439630 f   JasonsDemoA.obj
 0001:00038870       ?virtMouseDown@JasonsDemoA@@UAEXHHH@Z 00439870 f   JasonsDemoA.obj
 0001:00038990       ?virtKeyDown@JasonsDemoA@@UAEXH@Z 00439990 f   JasonsDemoA.obj
 0001:000389c0       ?virtInitialiseObjects@JasonsDemoA@@UAEHXZ 004399c0 f   JasonsDemoA.obj
 0001:00038bb0       ??E?$_Vector_const_iterator@V?$_Vector_val@U?$_Simple_types@PAVDisplayableObject@@@std@@@std@@@std@@QAE?AV01@H@Z 00439bb0 f i JasonsDemoA.obj
 0001:00038c60       ??_GJasonsDemoA@@UAEPAXI@Z 00439c60 f i JasonsDemoA.obj
 0001:00038c60       ??_EJasonsDemoA@@UAEPAXI@Z 00439c60 f i JasonsDemoA.obj
 0001:00038ca0       ?drawBackgroundOval@BaseEngine@@QAEXHHHHI@Z 00439ca0 f i JasonsDemoA.obj
 0001:00038ce0       ?setAllObjectsVisible@DisplayableObjectContainer@@QBEX_N@Z 00439ce0 f i JasonsDemoA.obj
 0001:00038df0       ?setTopLeftPositionOnScreen@TileManager@@QAEXHH@Z 00439df0 f i JasonsDemoA.obj
 0001:00038e20       ??0JasonsObjectA@@QAE@PAVBaseEngine@@@Z 00439e20 f   JasonsObjectA.obj
 0001:00038e60       ??1JasonsObjectA@@UAE@XZ   00439e60 f   JasonsObjectA.obj
 0001:00038e80       ?virtDraw@JasonsObjectA@@UAEXXZ 00439e80 f   JasonsObjectA.obj
 0001:00038ed0       ?virtDoUpdate@JasonsObjectA@@UAEXH@Z 00439ed0 f   JasonsObjectA.obj
 0001:000390b0       ??_GJasonsObjectA@@UAEPAXI@Z 0043a0b0 f i JasonsObjectA.obj
 0001:000390b0       ??_EJasonsObjectA@@UAEPAXI@Z 0043a0b0 f i JasonsObjectA.obj
 0001:000390f0       ??0JasonsTileManager@@QAE@XZ 0043a0f0 f   JasonsTileManager.obj
 0001:00039120       ??1JasonsTileManager@@UAE@XZ 0043a120 f   JasonsTileManager.obj
 0001:00039140       ?virtDrawTileAt@JasonsTileManager@@UBEXPAVBaseEngine@@PAVDrawingSurface@@HHHH@Z 0043a140 f   JasonsTileManager.obj
 0001:000391f0       ??0TileManager@@QAE@HHHH@Z 0043a1f0 f i JasonsTileManager.obj
 0001:00039280       ??1TileManager@@UAE@XZ     0043a280 f i JasonsTileManager.obj
 0001:000392d0       ??_GJasonsTileManager@@UAEPAXI@Z 0043a2d0 f i JasonsTileManager.obj
 0001:000392d0       ??_EJasonsTileManager@@UAEPAXI@Z 0043a2d0 f i JasonsTileManager.obj
 0001:00039310       ??_ETileManager@@UAEPAXI@Z 0043a310 f i JasonsTileManager.obj
 0001:00039310       ??_GTileManager@@UAEPAXI@Z 0043a310 f i JasonsTileManager.obj
 0001:00039350       ?setMapSize@TileManager@@QAEXHH@Z 0043a350 f i JasonsTileManager.obj
 0001:00039400       ?virtInitialise@PlayingCardsDemo@@UAEHXZ 0043a400 f   PlayingCardsDemo.obj
 0001:00039450       ?virtSetupBackgroundBuffer@PlayingCardsDemo@@UAEXXZ 0043a450 f   PlayingCardsDemo.obj
 0001:00039470       ?virtInitialiseObjects@PlayingCardsDemo@@UAEHXZ 0043a470 f   PlayingCardsDemo.obj
 0001:00039ad0       ?virtMouseDown@PlayingCardsDemo@@UAEXHHH@Z 0043aad0 f   PlayingCardsDemo.obj
 0001:00039af0       ?virtKeyDown@PlayingCardsDemo@@UAEXH@Z 0043aaf0 f   PlayingCardsDemo.obj
 0001:00039bf0       ?virtKeyUp@PlayingCardsDemo@@UAEXH@Z 0043abf0 f   PlayingCardsDemo.obj
 0001:00039c10       ?virtMouseWheel@PlayingCardsDemo@@UAEXHHHH@Z 0043ac10 f   PlayingCardsDemo.obj
 0001:00039f10       ??$?0PADX@?$basic_string@DU?$char_traits@D@std@@V?$allocator@D@2@@std@@QAE@PAD0ABV?$allocator@D@1@@Z 0043af10 f i PlayingCardsDemo.obj
 0001:0003a020       ??$?8VRawImageData@@@std@@YA_NABV?$shared_ptr@VRawImageData@@@0@$$T@Z 0043b020 f i PlayingCardsDemo.obj
 0001:0003a050       ??$_Adl_verify_range@PADPAD@std@@YAXABQAD0@Z 0043b050 f i PlayingCardsDemo.obj
 0001:0003a070       ??$_Get_unwrapped@D@std@@YAPADQAD@Z 0043b070 f i PlayingCardsDemo.obj
 0001:0003a080       ??$_Integral_to_string@DH@std@@YA?AV?$basic_string@DU?$char_traits@D@std@@V?$allocator@D@2@@0@H@Z 0043b080 f i PlayingCardsDemo.obj
 0001:0003a150       ??$_Random_shuffle1@V?$_Vector_iterator@V?$_Vector_val@U?$_Simple_types@PAVDisplayableObject@@@std@@@std@@@std@@V?$_Rng_from_urng@HU_Rand_urng_from_func@std@@@2@@std@@YAXV?$_Vector_iterator@V?$_Vector_val@U?$_Simple_types@PAVDisplayableObject@@@std@@@std@@@0@0AAV?$_Rng_from_urng@HU_Rand_urng_from_func@std@@@0@@Z 0043b150 f i PlayingCardsDemo.obj
 0001:0003a320       ??$_UIntegral_to_buff@DI@std@@YAPADPADI@Z 0043b320 f i PlayingCardsDemo.obj
 0001:0003a380       ??$_Verify_range@D@std@@YAXQBD0@Z 0043b380 f i PlayingCardsDemo.obj
 0001:0003a400       ??$end@D$0BF@@std@@YAPADAAY0BF@D@Z 0043b400 f i PlayingCardsDemo.obj
 0001:0003a410       ??$for_each@V?$_Vector_const_iterator@V?$_Vector_val@U?$_Simple_types@PAVDisplayableObject@@@std@@@std@@@std@@V<lambda_30e6a374895662ded208c9cbe5dce392>@@@std@@YA?AV<lambda_30e6a374895662ded208c9cbe5dce392>@@V?$_Vector_const_iterator@V?$_Vector_val@U?$_Simple_types@PAVDisplayableObject@@@std@@@std@@@0@0V1@@Z 0043b410 f i PlayingCardsDemo.obj
 0001:0003a500       ??$for_each@V?$_Vector_iterator@V?$_Vector_val@U?$_Simple_types@PAVDisplayableObject@@@std@@@std@@@std@@V<lambda_357b4ee994050758da51b6d8503d100a>@@@std@@YA?AV<lambda_357b4ee994050758da51b6d8503d100a>@@V?$_Vector_iterator@V?$_Vector_val@U?$_Simple_types@PAVDisplayableObject@@@std@@@std@@@0@0V1@@Z 0043b500 f i PlayingCardsDemo.obj
 0001:0003a5f0       ??$iter_swap@PAPAVDisplayableObject@@PAPAV1@@std@@YAXPAPAVDisplayableObject@@0@Z 0043b5f0 f i PlayingCardsDemo.obj
 0001:0003a610       ??$move@AAPAVDisplayableObject@@@std@@YA$$QAPAVDisplayableObject@@AAPAV1@@Z 0043b610 f i PlayingCardsDemo.obj
 0001:0003a620       ??$random_shuffle@V?$_Vector_iterator@V?$_Vector_val@U?$_Simple_types@PAVDisplayableObject@@@std@@@std@@@std@@@std@@YAXV?$_Vector_iterator@V?$_Vector_val@U?$_Simple_types@PAVDisplayableObject@@@std@@@std@@@0@0@Z 0043b620 f i PlayingCardsDemo.obj
 0001:0003a6d0       ??$shuffle@V?$_Vector_iterator@V?$_Vector_val@U?$_Simple_types@PAVDisplayableObject@@@std@@@std@@@std@@AAU_Rand_urng_from_func@2@@std@@YAXV?$_Vector_iterator@V?$_Vector_val@U?$_Simple_types@PAVDisplayableObject@@@std@@@std@@@0@0AAU_Rand_urng_from_func@0@@Z 0043b6d0 f i PlayingCardsDemo.obj
 0001:0003a790       ??$swap@PAVDisplayableObject@@X@std@@YAXAAPAVDisplayableObject@@0@Z 0043b790 f i PlayingCardsDemo.obj
 0001:0003a7e0       ??0<lambda_30e6a374895662ded208c9cbe5dce392>@@QAE@ABH00@Z 0043b7e0 f i PlayingCardsDemo.obj
 0001:0003a820       ??0<lambda_357b4ee994050758da51b6d8503d100a>@@QAE@ABH00@Z 0043b820 f i PlayingCardsDemo.obj
 0001:0003a860       ??0?$_Rng_from_urng@HU_Rand_urng_from_func@std@@@std@@QAE@AAU_Rand_urng_from_func@1@@Z 0043b860 f i PlayingCardsDemo.obj
 0001:0003a8e0       ??0CardContainer@@QAE@PAVBaseEngine@@HHV?$basic_string@DU?$char_traits@D@std@@V?$allocator@D@2@@std@@@Z 0043b8e0 f i PlayingCardsDemo.obj
 0001:0003a9e0       ??0CardOrTile@@QAE@PAVBaseEngine@@HHV?$basic_string@DU?$char_traits@D@std@@V?$allocator@D@2@@std@@HHHH1HHHHHHH_N2@Z 0043b9e0 f i PlayingCardsDemo.obj
 0001:0003abd0       ??0CardOrTile@@QAE@PAVBaseEngine@@HHV?$basic_string@DU?$char_traits@D@std@@V?$allocator@D@2@@std@@H_N2@Z 0043bbd0 f i PlayingCardsDemo.obj
 0001:0003adf0       ??0CoordinateMappingRotate@@QAE@N@Z 0043bdf0 f i PlayingCardsDemo.obj
 0001:0003ae30       ??0CoordinateMappingRotateAndColour@@QAE@XZ 0043be30 f i PlayingCardsDemo.obj
 0001:0003aef0       ??0DragableToken@@QAE@PAVBaseEngine@@HHH_N@Z 0043bef0 f i PlayingCardsDemo.obj
 0001:0003afc0       ??0DragableTokenContainer@@QAE@HHPAVBaseEngine@@HH_N1@Z 0043bfc0 f i PlayingCardsDemo.obj
 0001:0003b0a0       ??0TokenTray@@QAE@PAVBaseEngine@@HH@Z 0043c0a0 f i PlayingCardsDemo.obj
 0001:0003b0f0       ??1CardContainer@@UAE@XZ   0043c0f0 f i PlayingCardsDemo.obj
 0001:0003b140       ??1CardOrTile@@UAE@XZ      0043c140 f i PlayingCardsDemo.obj
 0001:0003b1a0       ??1CoordinateMappingRotateAndColour@@UAE@XZ 0043c1a0 f i PlayingCardsDemo.obj
 0001:0003b1c0       ??1DragableToken@@UAE@XZ   0043c1c0 f i PlayingCardsDemo.obj
 0001:0003b1e0       ??1DragableTokenContainer@@UAE@XZ 0043c1e0 f i PlayingCardsDemo.obj
 0001:0003b210       ??1TokenTray@@UAE@XZ       0043c210 f i PlayingCardsDemo.obj
 0001:0003b240       ??R<lambda_30e6a374895662ded208c9cbe5dce392>@@QBE@PAVDisplayableObject@@@Z 0043c240 f i PlayingCardsDemo.obj
 0001:0003b290       ??R<lambda_357b4ee994050758da51b6d8503d100a>@@QBE@PAVDisplayableObject@@@Z 0043c290 f i PlayingCardsDemo.obj
 0001:0003b2e0       ??R?$_Rng_from_urng@HU_Rand_urng_from_func@std@@@std@@QAEHH@Z 0043c2e0 f i PlayingCardsDemo.obj
 0001:0003b3c0       ??R_Rand_urng_from_func@std@@QAEIXZ 0043c3c0 f i PlayingCardsDemo.obj
 0001:0003b3d5       ??_ECardContainer@@WDM@AEPAXI@Z 0043c3d5 f i PlayingCardsDemo.obj
 0001:0003b3df       ??_ECardOrTile@@WDM@AEPAXI@Z 0043c3df f i PlayingCardsDemo.obj
 0001:0003b3e9       ??_EDragableTokenContainer@@WDM@AEPAXI@Z 0043c3e9 f i PlayingCardsDemo.obj
 0001:0003b3f3       ??_ETokenTray@@WDM@AEPAXI@Z 0043c3f3 f i PlayingCardsDemo.obj
 0001:0003b400       ??_GCardContainer@@UAEPAXI@Z 0043c400 f i PlayingCardsDemo.obj
 0001:0003b400       ??_ECardContainer@@UAEPAXI@Z 0043c400 f i PlayingCardsDemo.obj
 0001:0003b440       ??_ECardOrTile@@UAEPAXI@Z  0043c440 f i PlayingCardsDemo.obj
 0001:0003b440       ??_GCardOrTile@@UAEPAXI@Z  0043c440 f i PlayingCardsDemo.obj
 0001:0003b480       ??_ECoordinateMappingRotateAndColour@@UAEPAXI@Z 0043c480 f i PlayingCardsDemo.obj
 0001:0003b480       ??_GCoordinateMappingRotateAndColour@@UAEPAXI@Z 0043c480 f i PlayingCardsDemo.obj
 0001:0003b4c0       ??_EDragableToken@@UAEPAXI@Z 0043c4c0 f i PlayingCardsDemo.obj
 0001:0003b4c0       ??_GDragableToken@@UAEPAXI@Z 0043c4c0 f i PlayingCardsDemo.obj
 0001:0003b500       ??_GDragableTokenContainer@@UAEPAXI@Z 0043c500 f i PlayingCardsDemo.obj
 0001:0003b500       ??_EDragableTokenContainer@@UAEPAXI@Z 0043c500 f i PlayingCardsDemo.obj
 0001:0003b540       ??_GTokenTray@@UAEPAXI@Z   0043c540 f i PlayingCardsDemo.obj
 0001:0003b540       ??_ETokenTray@@UAEPAXI@Z   0043c540 f i PlayingCardsDemo.obj
 0001:0003b580       ?_Construct@?$basic_string@DU?$char_traits@D@std@@V?$allocator@D@2@@std@@QAEXQAD0Urandom_access_iterator_tag@2@@Z 0043c580 f i PlayingCardsDemo.obj
 0001:0003b5c0       ?_Get_bits@?$_Rng_from_urng@HU_Rand_urng_from_func@std@@@std@@AAEIXZ 0043c5c0 f i PlayingCardsDemo.obj
 0001:0003b610       ?addCardToContainer@CardContainer@@QAE_NPAVCardOrTile@@_N@Z 0043c610 f i PlayingCardsDemo.obj
 0001:0003b660       ?appendObjectToArray@DisplayableObjectContainer@@QAEXPAVDisplayableObject@@@Z 0043c660 f i PlayingCardsDemo.obj
 0001:0003b6a0       ?bringToFront@CardOrTile@@UAEXXZ 0043c6a0 f i PlayingCardsDemo.obj
 0001:0003b6e0       ?bringToFront@DragableTokenContainer@@UAEXXZ 0043c6e0 f i PlayingCardsDemo.obj
 0001:0003b710       ?changePixelColour@CoordinateMappingRotateAndColour@@UAE_NHHAAHPAVDrawingSurface@@@Z 0043c710 f i PlayingCardsDemo.obj
 0001:0003baf0       ?checkForAndHandleTokenClick@DragableTokenContainer@@QAE_NHH@Z 0043caf0 f i PlayingCardsDemo.obj
 0001:0003bb90       ?clear@?$vector@PAVDisplayableObject@@V?$allocator@PAVDisplayableObject@@@std@@@std@@QAEXXZ 0043cb90 f i PlayingCardsDemo.obj
 0001:0003bc30       ?createToken@TokenTray@@QAEXIHH@Z 0043cc30 f i PlayingCardsDemo.obj
 0001:0003bd10       ?destroyable@DragableToken@@UAE_NXZ 0043cd10 f i PlayingCardsDemo.obj
 0001:0003bd20       ?doDragRedraw@DragableTokenContainer@@UAEXXZ 0043cd20 f i PlayingCardsDemo.obj
 0001:0003bd40       ?drawForegroundLine@BaseEngine@@QAEXHHHHI@Z 0043cd40 f i PlayingCardsDemo.obj
 0001:0003bdb0       ?drawTokensOnItem@DragableTokenContainer@@QAEXXZ 0043cdb0 f i PlayingCardsDemo.obj
 0001:0003bed0       ?getContentItem@DisplayableObjectContainer@@QBEPAVDisplayableObject@@H@Z 0043ced0 f i PlayingCardsDemo.obj
 0001:0003bf00       ?getDrawingRegionBottom@DisplayableObject@@QBEHXZ 0043cf00 f i PlayingCardsDemo.obj
 0001:0003bf30       ?getDrawingRegionLeft@DisplayableObject@@QBEHXZ 0043cf30 f i PlayingCardsDemo.obj
 0001:0003bf50       ?getDrawingRegionRight@DisplayableObject@@QBEHXZ 0043cf50 f i PlayingCardsDemo.obj
 0001:0003bf80       ?getDrawingRegionTop@DisplayableObject@@QBEHXZ 0043cf80 f i PlayingCardsDemo.obj
 0001:0003bfa0       ?getFont@BaseEngine@@QAEPAVFont@@PBDH@Z 0043cfa0 f i PlayingCardsDemo.obj
 0001:0003bfd0       ?getPixel@DrawingSurface@@QAEIHH@Z 0043cfd0 f i PlayingCardsDemo.obj
 0001:0003c040       ?getRawImageData@SimpleImage@@QAE?AV?$shared_ptr@VRawImageData@@@std@@XZ 0043d040 f i PlayingCardsDemo.obj
 0001:0003c080       ?getTopCardFromContainer@CardContainer@@QAEPAVDisplayableObject@@_N@Z 0043d080 f i PlayingCardsDemo.obj
 0001:0003c150       ?getTopObjectForNotifyValue@DisplayableObjectContainer@@QBEPAVDisplayableObject@@HHHH@Z 0043d150 f i PlayingCardsDemo.obj
 0001:0003c210       ?handleTokenWasClicked@DragableToken@@QAEXXZ 0043d210 f i PlayingCardsDemo.obj
 0001:0003c290       ?mapCoordinates@CoordinateMappingRotate@@UAE_NAAN0ABVSimpleImage@@@Z 0043d290 f i PlayingCardsDemo.obj
 0001:0003c580       ?mapCoordinates@CoordinateMappingRotateAndColour@@UAE_NAAN0ABVSimpleImage@@@Z 0043d580 f i PlayingCardsDemo.obj
 0001:0003c8a0       ?max@_Rand_urng_from_func@std@@SAIXZ 0043d8a0 f i PlayingCardsDemo.obj
 0001:0003c8b0       ?min@_Rand_urng_from_func@std@@SAIXZ 0043d8b0 f i PlayingCardsDemo.obj
 0001:0003c8c0       ?notifyAllObjects@DisplayableObjectContainer@@QBEXHHH@Z 0043d8c0 f i PlayingCardsDemo.obj
 0001:0003c950       ?notifyTopObjectAboutMouseClick@BaseEngine@@QAEX_N@Z 0043d950 f i PlayingCardsDemo.obj
 0001:0003c970       ?readyBackImage@CardOrTile@@QAEXXZ 0043d970 f i PlayingCardsDemo.obj
 0001:0003cc50       ?readyFrontImage@CardOrTile@@QAEXXZ 0043dc50 f i PlayingCardsDemo.obj
 0001:0003cf10       ?removeTopCardFromContainer@CardContainer@@QAEPAVDisplayableObject@@_N@Z 0043df10 f i PlayingCardsDemo.obj
 0001:0003cf90       ?setDefaultColour@DisplayableObject@@QAEXH@Z 0043df90 f i PlayingCardsDemo.obj
 0001:0003cfb0       ?setPosition@DragableTokenContainer@@UAEXHH@Z 0043dfb0 f i PlayingCardsDemo.obj
 0001:0003d010       ?setSize@DisplayableObject@@QAEXHH@Z 0043e010 f i PlayingCardsDemo.obj
 0001:0003d040       ?setTransparencyColour@CoordinateMappingRotateAndColour@@QAEXH@Z 0043e040 f i PlayingCardsDemo.obj
 0001:0003d060       ?setTransparencyPixel@CardOrTile@@QAEXHH@Z 0043e060 f i PlayingCardsDemo.obj
 0001:0003d0a0       ?showCorrectImage@CardOrTile@@QAEXXZ 0043e0a0 f i PlayingCardsDemo.obj
 0001:0003d0e0       ?shuffle@DisplayableObjectContainer@@QAEXXZ 0043e0e0 f i PlayingCardsDemo.obj
 0001:0003d130       ?to_string@std@@YA?AV?$basic_string@DU?$char_traits@D@std@@V?$allocator@D@2@@1@H@Z 0043e130 f i PlayingCardsDemo.obj
 0001:0003d170       ?updateTransparency@CardOrTile@@QAEXXZ 0043e170 f i PlayingCardsDemo.obj
 0001:0003d430       ?virtDraw@CardContainer@@UAEXXZ 0043e430 f i PlayingCardsDemo.obj
 0001:0003db20       ?virtDraw@CardOrTile@@UAEXXZ 0043eb20 f i PlayingCardsDemo.obj
 0001:0003de10       ?virtDraw@DragableToken@@UAEXXZ 0043ee10 f i PlayingCardsDemo.obj
 0001:0003e170       ?virtDraw@DragableTokenContainer@@UAEXXZ 0043f170 f i PlayingCardsDemo.obj
 0001:0003e360       ?virtDraw@TokenTray@@UAEXXZ 0043f360 f i PlayingCardsDemo.obj
 0001:0003e8d0       ?virtMouseDown@DragableToken@@UAEXHHH@Z 0043f8d0 f i PlayingCardsDemo.obj
 0001:0003e8e0       ?virtMouseDown@DragableTokenContainer@@UAEXHHH@Z 0043f8e0 f i PlayingCardsDemo.obj
 0001:0003e990       ?virtMouseMoved@DragableToken@@UAEXHH@Z 0043f990 f i PlayingCardsDemo.obj
 0001:0003ea00       ?virtMouseMoved@DragableTokenContainer@@UAEXHH@Z 0043fa00 f i PlayingCardsDemo.obj
 0001:0003ea80       ?virtMouseUp@CardContainer@@UAEXHHH@Z 0043fa80 f i PlayingCardsDemo.obj
 0001:0003ead0       ?virtMouseUp@CardOrTile@@UAEXHHH@Z 0043fad0 f i PlayingCardsDemo.obj
 0001:0003ebc0       ?virtMouseUp@DragableToken@@UAEXHHH@Z 0043fbc0 f i PlayingCardsDemo.obj
 0001:0003edc0       ?virtMouseUp@DragableTokenContainer@@UAEXHHH@Z 0043fdc0 f i PlayingCardsDemo.obj
 0001:0003ee60       ?virtNotify@CardContainer@@UAEJHHH@Z 0043fe60 f i PlayingCardsDemo.obj
 0001:0003eee0       ?virtNotify@DragableToken@@UAEJHHH@Z 0043fee0 f i PlayingCardsDemo.obj
 0001:0003efe0       ?virtNotify@DragableTokenContainer@@UAEJHHH@Z 0043ffe0 f i PlayingCardsDemo.obj
 0001:0003f040       ?virtSingleItemMouseDown@CardContainer@@UAE_NHHH@Z 00440040 f i PlayingCardsDemo.obj
 0001:0003f260       ?virtSingleItemMouseDown@CardOrTile@@UAE_NHHH@Z 00440260 f i PlayingCardsDemo.obj
 0001:0003f400       ?virtSingleItemMouseDown@DragableToken@@UAE_NHHH@Z 00440400 f i PlayingCardsDemo.obj
 0001:0003f4b0       ?virtSingleItemMouseDown@DragableTokenContainer@@UAE_NHHH@Z 004404b0 f i PlayingCardsDemo.obj
 0001:0003f540       ?virtSingleItemMouseDown@TokenTray@@UAE_NHHH@Z 00440540 f i PlayingCardsDemo.obj
 0001:0003f880       ??0RawImageData@@QAE@ABV?$shared_ptr@VRawImageData@@@std@@H@Z 00440880 f   RawImage.obj
 0001:0003f9c0       ??0RawImageData@@QAE@HHABV?$shared_ptr@VRawImageData@@@std@@@Z 004409c0 f   RawImage.obj
 0001:0003fbd0       ?virtSetupBackgroundBuffer@SimpleDemo@@UAEXXZ 00440bd0 f   SimpleDemo.obj
 0001:0003fd10       ?virtInitialiseObjects@SimpleDemo@@UAEHXZ 00440d10 f   SimpleDemo.obj
 0001:0003fdc0       ?virtDrawStringsUnderneath@SimpleDemo@@UAEXXZ 00440dc0 f   SimpleDemo.obj
 0001:0003fe70       ?virtDrawStringsOnTop@SimpleDemo@@UAEXXZ 00440e70 f   SimpleDemo.obj
 0001:0003fef0       ?virtMouseDown@SimpleDemo@@UAEXHHH@Z 00440ef0 f   SimpleDemo.obj
 0001:0003ff10       ?virtKeyDown@SimpleDemo@@UAEXH@Z 00440f10 f   SimpleDemo.obj
 0001:00040050       ??0StarfieldDemo@@QAE@XZ   00441050 f   StarfieldDemo.obj
 0001:00040090       ??1StarfieldDemo@@UAE@XZ   00441090 f   StarfieldDemo.obj
 0001:000400c0       ?virtSetupBackgroundBuffer@StarfieldDemo@@UAEXXZ 004410c0 f   StarfieldDemo.obj
 0001:00040200       ?virtMainLoopDoBeforeUpdate@StarfieldDemo@@UAEXXZ 00441200 f   StarfieldDemo.obj
 0001:00040240       ?copyAllBackgroundBuffer@StarfieldDemo@@UAEXXZ 00441240 f   StarfieldDemo.obj
 0001:00040380       ??_GStarfieldDemo@@UAEPAXI@Z 00441380 f i StarfieldDemo.obj
 0001:00040380       ??_EStarfieldDemo@@UAEPAXI@Z 00441380 f i StarfieldDemo.obj
 0001:000403c0       ??0GameEngine@@QAE@XZ      004413c0 f   GameEngine.obj
 0001:000407f0       ??1GameEngine@@UAE@XZ      004417f0 f   GameEngine.obj
 0001:00040990       ?setState@GameEngine@@QAEXPAVBaseState@@@Z 00441990 f   GameEngine.obj
 0001:00040a00       ?getState@GameEngine@@QAEPAVBaseState@@XZ 00441a00 f   GameEngine.obj
 0001:00040a20       ?virtInitialise@GameEngine@@UAEHXZ 00441a20 f   GameEngine.obj
 0001:00040a80       ?virtCleanUp@GameEngine@@UAEXXZ 00441a80 f   GameEngine.obj
 0001:00040aa0       ?virtSetupBackgroundBuffer@GameEngine@@UAEXXZ 00441aa0 f   GameEngine.obj
 0001:00040ad0       ?virtDrawStringsOnTop@GameEngine@@UAEXXZ 00441ad0 f   GameEngine.obj
 0001:00040b00       ?virtDrawStringsUnderneath@GameEngine@@UAEXXZ 00441b00 f   GameEngine.obj
 0001:00040b30       ?virtInitialiseObjects@GameEngine@@UAEHXZ 00441b30 f   GameEngine.obj
 0001:00040b50       ?virtMouseDown@GameEngine@@UAEXHHH@Z 00441b50 f   GameEngine.obj
 0001:00040b90       ?virtMouseWheel@GameEngine@@UAEXHHHH@Z 00441b90 f   GameEngine.obj
 0001:00040bd0       ?virtKeyDown@GameEngine@@UAEXH@Z 00441bd0 f   GameEngine.obj
 0001:00040c00       ?virtMainLoopPreUpdate@GameEngine@@UAEXXZ 00441c00 f   GameEngine.obj
 0001:00040c30       ?virtMainLoopPostUpdate@GameEngine@@UAEXXZ 00441c30 f   GameEngine.obj
 0001:00040c60       ?virtMainLoopDoBeforeUpdate@GameEngine@@UAEXXZ 00441c60 f   GameEngine.obj
 0001:00040c90       ?virtMainLoopDoAfterUpdate@GameEngine@@UAEXXZ 00441c90 f   GameEngine.obj
 0001:00040cc0       ?moveCamera@GameEngine@@QAEXHH@Z 00441cc0 f   GameEngine.obj
 0001:00040d10       ?drawBar@GameEngine@@QAEXHHHHV?$basic_string@DU?$char_traits@D@std@@V?$allocator@D@2@@std@@HHHH@Z 00441d10 f   GameEngine.obj
 0001:00040dd0       ?orderCharsByHeight@GameEngine@@QAEXXZ 00441dd0 f   GameEngine.obj
 0001:00040e80       ?saveGame@GameEngine@@QAEXXZ 00441e80 f   GameEngine.obj
 0001:000410f0       ?resetStats@GameEngine@@QAEXXZ 004420f0 f   GameEngine.obj
 0001:00041580       ??$?0$$V@?$_Compressed_pair@V?$allocator@V?$shared_ptr@VItem@@@std@@@std@@V?$_Vector_val@U?$_Simple_types@V?$shared_ptr@VItem@@@std@@@std@@@2@$00@std@@QAE@U_Zero_then_variadic_args_t@1@@Z 00442580 f i GameEngine.obj
 0001:000415b0       ??$?0U?$_List_node@PAVEnemyObject@@PAX@std@@@?$allocator@U_Container_proxy@std@@@std@@QAE@ABV?$allocator@U?$_List_node@PAVEnemyObject@@PAX@std@@@1@@Z 004425b0 f i GameEngine.obj
 0001:000415d0       ??$?0V?$shared_ptr@VItem@@@std@@@?$allocator@U_Container_proxy@std@@@std@@QAE@ABV?$allocator@V?$shared_ptr@VItem@@@std@@@1@@Z 004425d0 f i GameEngine.obj
 0001:000415f0       ??$?0VItem@@$0A@@?$shared_ptr@VItem@@@std@@QAE@PAVItem@@@Z 004425f0 f i GameEngine.obj
 0001:000416e0       ??$_Copy_construct_from@VItem@@@?$_Ptr_base@VItem@@@std@@IAEXABV?$shared_ptr@VItem@@@1@@Z 004426e0 f i GameEngine.obj
 0001:00041730       ??$_Destroy_in_place@PAU?$_List_node@PAVEnemyObject@@PAX@std@@@std@@YAXAAPAU?$_List_node@PAVEnemyObject@@PAX@0@@Z 00442730 f i GameEngine.obj
 0001:00041740       ??$_Destroy_range@V?$allocator@V?$shared_ptr@VItem@@@std@@@std@@@std@@YAXPAV?$shared_ptr@VItem@@@0@QAV10@AAV?$allocator@V?$shared_ptr@VItem@@@std@@@0@@Z 00442740 f i GameEngine.obj
 0001:000417c0       ??$_Emplace_back@V?$shared_ptr@VItem@@@std@@@?$_Uninitialized_backout_al@V?$allocator@V?$shared_ptr@VItem@@@std@@@std@@@std@@QAEX$$QAV?$shared_ptr@VItem@@@1@@Z 004427c0 f i GameEngine.obj
 0001:00041820       ??$_Emplace_back_with_unused_capacity@ABV?$shared_ptr@VItem@@@std@@@?$vector@V?$shared_ptr@VItem@@@std@@V?$allocator@V?$shared_ptr@VItem@@@std@@@2@@std@@AAE@ABV?$shared_ptr@VItem@@@1@@Z 00442820 f i GameEngine.obj
 0001:000418c0       ??$_Emplace_reallocate@ABV?$shared_ptr@VItem@@@std@@@?$vector@V?$shared_ptr@VItem@@@std@@V?$allocator@V?$shared_ptr@VItem@@@std@@@2@@std@@QAEPAV?$shared_ptr@VItem@@@1@QAV21@ABV21@@Z 004428c0 f i GameEngine.obj
 0001:00041b00       ??$_Free_non_head@V?$allocator@U?$_List_node@PAVEnemyObject@@PAX@std@@@std@@@?$_List_node@PAVEnemyObject@@PAX@std@@SAXAAV?$allocator@U?$_List_node@PAVEnemyObject@@PAX@std@@@1@PAU01@@Z 00442b00 f i GameEngine.obj
 0001:00041b60       ??$_Freenode0@V?$allocator@U?$_List_node@PAVEnemyObject@@PAX@std@@@std@@@?$_List_node@PAVEnemyObject@@PAX@std@@SAXAAV?$allocator@U?$_List_node@PAVEnemyObject@@PAX@std@@@1@PAU01@@Z 00442b60 f i GameEngine.obj
 0001:00041be0       ??$_Freenode@V?$allocator@U?$_List_node@PAVEnemyObject@@PAX@std@@@std@@@?$_List_node@PAVEnemyObject@@PAX@std@@SAXAAV?$allocator@U?$_List_node@PAVEnemyObject@@PAX@std@@@1@PAU01@@Z 00442be0 f i GameEngine.obj
 0001:00041c60       ??$_Get_unwrapped@V?$shared_ptr@VItem@@@std@@@std@@YAPAV?$shared_ptr@VItem@@@0@QAV10@@Z 00442c60 f i GameEngine.obj
 0001:00041c70       ??$_Move_construct_from@VItem@@@?$_Ptr_base@VItem@@@std@@IAEX$$QAV01@@Z 00442c70 f i GameEngine.obj
 0001:00041cc0       ??$_Set_ptr_rep_and_enable_shared@VItem@@@?$shared_ptr@VItem@@@std@@AAEXQAVItem@@QAV_Ref_count_base@1@@Z 00442cc0 f i GameEngine.obj
 0001:00041cf0       ??$_Unfancy@V?$shared_ptr@VItem@@@std@@@std@@YAPAV?$shared_ptr@VItem@@@0@PAV10@@Z 00442cf0 f i GameEngine.obj
 0001:00041d00       ??$_Uninitialized_move@PAV?$shared_ptr@VItem@@@std@@V?$allocator@V?$shared_ptr@VItem@@@std@@@2@@std@@YAPAV?$shared_ptr@VItem@@@0@QAV10@0PAV10@AAV?$allocator@V?$shared_ptr@VItem@@@std@@@0@@Z 00442d00 f i GameEngine.obj
 0001:00041de0       ??$addressof@PAVEnemyObject@@@std@@YAPAPAVEnemyObject@@AAPAV1@@Z 00442de0 f i GameEngine.obj
 0001:00041df0       ??$construct@V?$shared_ptr@VItem@@@std@@ABV12@@?$_Default_allocator_traits@V?$allocator@V?$shared_ptr@VItem@@@std@@@std@@@std@@SAXAAV?$allocator@V?$shared_ptr@VItem@@@std@@@1@QAV?$shared_ptr@VItem@@@1@ABV31@@Z 00442df0 f i GameEngine.obj
 0001:00041e30       ??$construct@V?$shared_ptr@VItem@@@std@@V12@@?$_Default_allocator_traits@V?$allocator@V?$shared_ptr@VItem@@@std@@@std@@@std@@SAXAAV?$allocator@V?$shared_ptr@VItem@@@std@@@1@QAV?$shared_ptr@VItem@@@1@$$QAV31@@Z 00442e30 f i GameEngine.obj
 0001:00041e70       ??$destroy@PAVEnemyObject@@@?$_Default_allocator_traits@V?$allocator@U?$_List_node@PAVEnemyObject@@PAX@std@@@std@@@std@@SAXAAV?$allocator@U?$_List_node@PAVEnemyObject@@PAX@std@@@1@QAPAVEnemyObject@@@Z 00442e70 f i GameEngine.obj
 0001:00041e80       ??$destroy@V?$shared_ptr@VItem@@@std@@@?$_Default_allocator_traits@V?$allocator@V?$shared_ptr@VItem@@@std@@@std@@@std@@SAXAAV?$allocator@V?$shared_ptr@VItem@@@std@@@1@QAV?$shared_ptr@VItem@@@1@@Z 00442e80 f i GameEngine.obj
 0001:00041ea0       ??$emplace_back@ABV?$shared_ptr@VItem@@@std@@@?$vector@V?$shared_ptr@VItem@@@std@@V?$allocator@V?$shared_ptr@VItem@@@std@@@2@@std@@QAE@ABV?$shared_ptr@VItem@@@1@@Z 00442ea0 f i GameEngine.obj
 0001:00041f20       ??$forward@ABV?$shared_ptr@VItem@@@std@@@std@@YAABV?$shared_ptr@VItem@@@0@ABV10@@Z 00442f20 f i GameEngine.obj
 0001:00041f30       ??$forward@V?$shared_ptr@VItem@@@std@@@std@@YA$$QAV?$shared_ptr@VItem@@@0@AAV10@@Z 00442f30 f i GameEngine.obj
 0001:00041f40       ??$move@AAV?$shared_ptr@VItem@@@std@@@std@@YA$$QAV?$shared_ptr@VItem@@@0@AAV10@@Z 00442f40 f i GameEngine.obj
 0001:00041f50       ??$writeLine@H@SaveManager@@QAEXV?$basic_string@DU?$char_traits@D@std@@V?$allocator@D@2@@std@@H@Z 00442f50 f i GameEngine.obj
 0001:00042060       ??$writeLine@V?$basic_string@DU?$char_traits@D@std@@V?$allocator@D@2@@std@@@SaveManager@@QAEXV?$basic_string@DU?$char_traits@D@std@@V?$allocator@D@2@@std@@0@Z 00443060 f i GameEngine.obj
 0001:00042180       ??0?$_Ptr_base@VItem@@@std@@IAE@XZ 00443180 f i GameEngine.obj
 0001:000421b0       ??0?$_Ref_count@VItem@@@std@@QAE@PAVItem@@@Z 004431b0 f i GameEngine.obj
 0001:00042200       ??0?$_Temporary_owner@VItem@@@std@@QAE@QAVItem@@@Z 00443200 f i GameEngine.obj
 0001:00042220       ??0?$_Uninitialized_backout_al@V?$allocator@V?$shared_ptr@VItem@@@std@@@std@@@std@@QAE@PAV?$shared_ptr@VItem@@@1@AAV?$allocator@V?$shared_ptr@VItem@@@std@@@1@@Z 00443220 f i GameEngine.obj
 0001:00042260       ??0?$_Vector_val@U?$_Simple_types@V?$shared_ptr@VItem@@@std@@@std@@@std@@QAE@XZ 00443260 f i GameEngine.obj
 0001:000422b0       ??0?$allocator@V?$shared_ptr@VItem@@@std@@@std@@QAE@XZ 004432b0 f i GameEngine.obj
 0001:000422d0       ??0?$shared_ptr@VItem@@@std@@QAE@$$QAV01@@Z 004432d0 f i GameEngine.obj
 0001:00042310       ??0?$shared_ptr@VItem@@@std@@QAE@ABV01@@Z 00443310 f i GameEngine.obj
 0001:00042340       ??0?$vector@V?$shared_ptr@VItem@@@std@@V?$allocator@V?$shared_ptr@VItem@@@std@@@2@@std@@QAE@XZ 00443340 f i GameEngine.obj
 0001:000423c0       ??0BackgroundTileManager@@QAE@XZ 004433c0 f i GameEngine.obj
 0001:000424c0       ??0FilterPointsScaling@@QAE@HHPAVFilterPoints@@@Z 004434c0 f i GameEngine.obj
 0001:00042540       ??0FilterPointsTranslation@@QAE@HHPAVFilterPoints@@@Z 00443540 f i GameEngine.obj
 0001:00042590       ??0InventoryTileManager@@QAE@PAVGameEngine@@@Z 00443590 f i GameEngine.obj
 0001:00042790       ??0Psybc5TileManager@@QAE@XZ 00443790 f i GameEngine.obj
 0001:00042810       ??0SolidTileManager@@QAE@XZ 00443810 f i GameEngine.obj
 0001:000428d0       ??0TileManager@@QAE@HH@Z   004438d0 f i GameEngine.obj
 0001:00042950       ??1?$_Ref_count@VItem@@@std@@UAE@XZ 00443950 f i GameEngine.obj
 0001:00042970       ??1?$_Temporary_owner@VItem@@@std@@QAE@XZ 00443970 f i GameEngine.obj
 0001:000429b0       ??1?$_Uninitialized_backout_al@V?$allocator@V?$shared_ptr@VItem@@@std@@@std@@@std@@QAE@XZ 004439b0 f i GameEngine.obj
 0001:000429e0       ??1?$list@PAVEnemyObject@@V?$allocator@PAVEnemyObject@@@std@@@std@@QAE@XZ 004439e0 f i GameEngine.obj
 0001:00042a30       ??1?$shared_ptr@VItem@@@std@@QAE@XZ 00443a30 f i GameEngine.obj
 0001:00042a50       ??1?$vector@V?$shared_ptr@VItem@@@std@@V?$allocator@V?$shared_ptr@VItem@@@std@@@2@@std@@QAE@XZ 00443a50 f i GameEngine.obj
 0001:00042af0       ??1BackgroundTileManager@@UAE@XZ 00443af0 f i GameEngine.obj
 0001:00042b20       ??1EditorTileManager@@UAE@XZ 00443b20 f i GameEngine.obj
 0001:00042b40       ??1InventoryTileManager@@UAE@XZ 00443b40 f i GameEngine.obj
 0001:00042b90       ??1Psybc5TileManager@@UAE@XZ 00443b90 f i GameEngine.obj
 0001:00042bc0       ??1SaveManager@@QAE@XZ     00443bc0 f i GameEngine.obj
 0001:00042bf0       ??1SolidTileManager@@UAE@XZ 00443bf0 f i GameEngine.obj
 0001:00042c10       ??1StateEditor@@QAE@XZ     00443c10 f i GameEngine.obj
 0001:00042c70       ??1StateEnemyTurn@@QAE@XZ  00443c70 f i GameEngine.obj
 0001:00042ca0       ??1StateMenu@@QAE@XZ       00443ca0 f i GameEngine.obj
 0001:00042ce0       ??1StatePaused@@QAE@XZ     00443ce0 f i GameEngine.obj
 0001:00042d00       ??1StateRunning@@QAE@XZ    00443d00 f i GameEngine.obj
 0001:00042d20       ??1StateStart@@QAE@XZ      00443d20 f i GameEngine.obj
 0001:00042d40       ??_E?$_Ref_count@VItem@@@std@@UAEPAXI@Z 00443d40 f i GameEngine.obj
 0001:00042d40       ??_G?$_Ref_count@VItem@@@std@@UAEPAXI@Z 00443d40 f i GameEngine.obj
 0001:00042d80       ??_G?$shared_ptr@VItem@@@std@@QAEPAXI@Z 00443d80 f i GameEngine.obj
 0001:00042dc0       ??_GBackgroundTileManager@@UAEPAXI@Z 00443dc0 f i GameEngine.obj
 0001:00042dc0       ??_EBackgroundTileManager@@UAEPAXI@Z 00443dc0 f i GameEngine.obj
 0001:00042e00       ??_GGameEngine@@UAEPAXI@Z  00443e00 f i GameEngine.obj
 0001:00042e00       ??_EGameEngine@@UAEPAXI@Z  00443e00 f i GameEngine.obj
 0001:00042e40       ??_GInventoryTileManager@@UAEPAXI@Z 00443e40 f i GameEngine.obj
 0001:00042e40       ??_EInventoryTileManager@@UAEPAXI@Z 00443e40 f i GameEngine.obj
 0001:00042e80       ??_GItem@@QAEPAXI@Z        00443e80 f i GameEngine.obj
 0001:00042ec0       ??_EPsybc5TileManager@@UAEPAXI@Z 00443ec0 f i GameEngine.obj
 0001:00042ec0       ??_GPsybc5TileManager@@UAEPAXI@Z 00443ec0 f i GameEngine.obj
 0001:00042f00       ??_ESolidTileManager@@UAEPAXI@Z 00443f00 f i GameEngine.obj
 0001:00042f00       ??_GSolidTileManager@@UAEPAXI@Z 00443f00 f i GameEngine.obj
 0001:00042f40       ??_GStateCharCreate@@QAEPAXI@Z 00443f40 f i GameEngine.obj
 0001:00042f80       ??_GStateEditor@@QAEPAXI@Z 00443f80 f i GameEngine.obj
 0001:00042fc0       ??_GStateEnemyTurn@@QAEPAXI@Z 00443fc0 f i GameEngine.obj
 0001:00043000       ??_GStateMenu@@QAEPAXI@Z   00444000 f i GameEngine.obj
 0001:00043040       ??_GStatePaused@@QAEPAXI@Z 00444040 f i GameEngine.obj
 0001:00043080       ??_GStateRunning@@QAEPAXI@Z 00444080 f i GameEngine.obj
 0001:000430c0       ??_GStateStart@@QAEPAXI@Z  004440c0 f i GameEngine.obj
 0001:00043100       ?_Calculate_growth@?$vector@V?$shared_ptr@VItem@@@std@@V?$allocator@V?$shared_ptr@VItem@@@std@@@2@@std@@ABEII@Z 00444100 f i GameEngine.obj
 0001:00043170       ?_Change_array@?$vector@V?$shared_ptr@VItem@@@std@@V?$allocator@V?$shared_ptr@VItem@@@std@@@2@@std@@AAEXQAV?$shared_ptr@VItem@@@2@II@Z 00444170 f i GameEngine.obj
 0001:00043240       ?_Decref@?$_Ptr_base@VItem@@@std@@IAEXXZ 00444240 f i GameEngine.obj
 0001:00043270       ?_Delete_this@?$_Ref_count@VItem@@@std@@EAEXXZ 00444270 f i GameEngine.obj
 0001:000432c0       ?_Destroy@?$_Ref_count@VItem@@@std@@EAEXXZ 004442c0 f i GameEngine.obj
 0001:00043300       ?_Destroy@?$vector@V?$shared_ptr@VItem@@@std@@V?$allocator@V?$shared_ptr@VItem@@@std@@@2@@std@@AAEXPAV?$shared_ptr@VItem@@@2@0@Z 00444300 f i GameEngine.obj
 0001:00043330       ?_Get_first@?$_Compressed_pair@V?$allocator@U?$_List_node@PAVEnemyObject@@PAX@std@@@std@@V?$_List_val@U?$_List_simple_types@PAVEnemyObject@@@std@@@2@$00@std@@QAEAAV?$allocator@U?$_List_node@PAVEnemyObject@@PAX@std@@@2@XZ 00444330 f i GameEngine.obj
 0001:00043350       ?_Get_first@?$_Compressed_pair@V?$allocator@V?$shared_ptr@VItem@@@std@@@std@@V?$_Vector_val@U?$_Simple_types@V?$shared_ptr@VItem@@@std@@@std@@@2@$00@std@@QAEAAV?$allocator@V?$shared_ptr@VItem@@@std@@@2@XZ 00444350 f i GameEngine.obj
 0001:00043370       ?_Get_first@?$_Compressed_pair@V?$allocator@V?$shared_ptr@VItem@@@std@@@std@@V?$_Vector_val@U?$_Simple_types@V?$shared_ptr@VItem@@@std@@@std@@@2@$00@std@@QBEABV?$allocator@V?$shared_ptr@VItem@@@std@@@2@XZ 00444370 f i GameEngine.obj
 0001:00043390       ?_Getal@?$list@PAVEnemyObject@@V?$allocator@PAVEnemyObject@@@std@@@std@@AAEAAV?$allocator@U?$_List_node@PAVEnemyObject@@PAX@std@@@2@XZ 00444390 f i GameEngine.obj
 0001:000433b0       ?_Getal@?$vector@V?$shared_ptr@VItem@@@std@@V?$allocator@V?$shared_ptr@VItem@@@std@@@2@@std@@AAEAAV?$allocator@V?$shared_ptr@VItem@@@std@@@2@XZ 004443b0 f i GameEngine.obj
 0001:000433d0       ?_Getal@?$vector@V?$shared_ptr@VItem@@@std@@V?$allocator@V?$shared_ptr@VItem@@@std@@@2@@std@@ABEABV?$allocator@V?$shared_ptr@VItem@@@std@@@2@XZ 004443d0 f i GameEngine.obj
 0001:000433f0       ?_Orphan_range@?$vector@V?$shared_ptr@VItem@@@std@@V?$allocator@V?$shared_ptr@VItem@@@std@@@2@@std@@ABEXPAV?$shared_ptr@VItem@@@2@0@Z 004443f0 f i GameEngine.obj
 0001:00043490       ?_Release@?$_Uninitialized_backout_al@V?$allocator@V?$shared_ptr@VItem@@@std@@@std@@@std@@QAEPAV?$shared_ptr@VItem@@@2@XZ 00444490 f i GameEngine.obj
 0001:000434c0       ?_Tidy@?$list@PAVEnemyObject@@V?$allocator@PAVEnemyObject@@@std@@@std@@AAEXXZ 004444c0 f i GameEngine.obj
 0001:00043520       ?_Tidy@?$vector@V?$shared_ptr@VItem@@@std@@V?$allocator@V?$shared_ptr@VItem@@@std@@@2@@std@@AAEXXZ 00444520 f i GameEngine.obj
 0001:00043610       ?_Umove@?$vector@V?$shared_ptr@VItem@@@std@@V?$allocator@V?$shared_ptr@VItem@@@std@@@2@@std@@AAEPAV?$shared_ptr@VItem@@@2@PAV32@00@Z 00444610 f i GameEngine.obj
 0001:00043650       ?_Umove_if_noexcept1@?$vector@V?$shared_ptr@VItem@@@std@@V?$allocator@V?$shared_ptr@VItem@@@std@@@2@@std@@AAEXPAV?$shared_ptr@VItem@@@2@00U?$integral_constant@_N$00@2@@Z 00444650 f i GameEngine.obj
 0001:00043690       ?_Umove_if_noexcept@?$vector@V?$shared_ptr@VItem@@@std@@V?$allocator@V?$shared_ptr@VItem@@@std@@@2@@std@@AAEXPAV?$shared_ptr@VItem@@@2@00@Z 00444690 f i GameEngine.obj
 0001:000436d0       ?_Xlength@?$vector@V?$shared_ptr@VItem@@@std@@V?$allocator@V?$shared_ptr@VItem@@@std@@@2@@std@@CAXXZ 004446d0 f i GameEngine.obj
 0001:000436f0       ?allocate@?$allocator@V?$shared_ptr@VItem@@@std@@@std@@QAEPAV?$shared_ptr@VItem@@@2@I@Z 004446f0 f i GameEngine.obj
 0001:00043720       ?capacity@?$vector@V?$shared_ptr@VItem@@@std@@V?$allocator@V?$shared_ptr@VItem@@@std@@@2@@std@@QBEIXZ 00444720 f i GameEngine.obj
 0001:00043750       ?deallocate@?$_Default_allocator_traits@V?$allocator@U?$_List_node@PAVEnemyObject@@PAX@std@@@std@@@std@@SAXAAV?$allocator@U?$_List_node@PAVEnemyObject@@PAX@std@@@2@QAU?$_List_node@PAVEnemyObject@@PAX@2@I@Z 00444750 f i GameEngine.obj
 0001:00043770       ?deallocate@?$allocator@V?$shared_ptr@VItem@@@std@@@std@@QAEXQAV?$shared_ptr@VItem@@@2@I@Z 00444770 f i GameEngine.obj
 0001:000437a0       ?filter@FilterPointsScaling@@UAE_NPAVDrawingSurface@@AAH1AAI@Z 004447a0 f i GameEngine.obj
 0001:000437e0       ?filter@FilterPointsTranslation@@UAE_NPAVDrawingSurface@@AAH1AAI@Z 004447e0 f i GameEngine.obj
 0001:00043880       ?filterConvertRealToVirtualXPosition@FilterPointsScaling@@UAEHH@Z 00444880 f i GameEngine.obj
 0001:000438f0       ?filterConvertRealToVirtualXPosition@FilterPointsTranslation@@UAEHH@Z 004448f0 f i GameEngine.obj
 0001:00043940       ?filterConvertRealToVirtualYPosition@FilterPointsScaling@@UAEHH@Z 00444940 f i GameEngine.obj
 0001:000439b0       ?filterConvertRealToVirtualYPosition@FilterPointsTranslation@@UAEHH@Z 004449b0 f i GameEngine.obj
 0001:00043a00       ?filterConvertVirtualToRealXPosition@FilterPointsScaling@@UAEHH@Z 00444a00 f i GameEngine.obj
 0001:00043ab0       ?filterConvertVirtualToRealXPosition@FilterPointsTranslation@@UAEHH@Z 00444ab0 f i GameEngine.obj
 0001:00043b00       ?filterConvertVirtualToRealYPosition@FilterPointsScaling@@UAEHH@Z 00444b00 f i GameEngine.obj
 0001:00043bb0       ?filterConvertVirtualToRealYPosition@FilterPointsTranslation@@UAEHH@Z 00444bb0 f i GameEngine.obj
 0001:00043c00       ?handleXthenY@FilterPointsScaling@@AAEXPAVDrawingSurface@@HHAAI@Z 00444c00 f i GameEngine.obj
 0001:00043cb0       ?handleY@FilterPointsScaling@@AAEXPAVDrawingSurface@@HHAAI@Z 00444cb0 f i GameEngine.obj
 0001:00043de0       ?max_size@?$_Default_allocator_traits@V?$allocator@V?$shared_ptr@VItem@@@std@@@std@@@std@@SAIABV?$allocator@V?$shared_ptr@VItem@@@std@@@2@@Z 00444de0 f i GameEngine.obj
 0001:00043df0       ?max_size@?$vector@V?$shared_ptr@VItem@@@std@@V?$allocator@V?$shared_ptr@VItem@@@std@@@2@@std@@QBEIXZ 00444df0 f i GameEngine.obj
 0001:00043e40       ?push_back@?$vector@V?$shared_ptr@VItem@@@std@@V?$allocator@V?$shared_ptr@VItem@@@std@@@2@@std@@QAEXABV?$shared_ptr@VItem@@@2@@Z 00444e40 f i GameEngine.obj
 0001:00043e60       ?setStretch@FilterPointsScaling@@QAEXHH@Z 00444e60 f i GameEngine.obj
 0001:00043f50       ??0BaseState@@QAE@PAVGameEngine@@@Z 00444f50 f   BaseState.obj
 0001:00043fc0       ??1BaseState@@QAE@XZ       00444fc0 f   BaseState.obj
 0001:00043ff0       ?onStateEnter@BaseState@@UAEXXZ 00444ff0 f   BaseState.obj
 0001:00044000       ?onStateExit@BaseState@@UAEXXZ 00445000 f   BaseState.obj
 0001:00044010       ?virtSetupBackgroundBuffer@BaseState@@UAEXXZ 00445010 f   BaseState.obj
 0001:00044020       ?virtDrawStringsOnTop@BaseState@@UAEXXZ 00445020 f   BaseState.obj
 0001:00044100       ?virtDrawStringsUnderneath@BaseState@@UAEXXZ 00445100 f   BaseState.obj
 0001:00044110       ?virtMouseDown@BaseState@@UAEXHHH@Z 00445110 f   BaseState.obj
 0001:00044220       ?virtMouseWheel@BaseState@@UAEXHHHH@Z 00445220 f   BaseState.obj
 0001:00044230       ?virtKeyDown@BaseState@@UAEXH@Z 00445230 f   BaseState.obj
 0001:00044240       ?virtMainLoopPreUpdate@BaseState@@UAEXXZ 00445240 f   BaseState.obj
 0001:00044250       ?virtMainLoopPostUpdate@BaseState@@UAEXXZ 00445250 f   BaseState.obj
 0001:00044260       ?virtMainLoopDoBeforeUpdate@BaseState@@UAEXXZ 00445260 f   BaseState.obj
 0001:00044270       ?virtMainLoopDoAfterUpdate@BaseState@@UAEXXZ 00445270 f   BaseState.obj
 0001:00044350       ??$?0$$V@?$_Compressed_pair@V?$allocator@U?$_List_node@PAVDisplayableObject@@PAX@std@@@std@@V?$_List_val@U?$_List_simple_types@PAVDisplayableObject@@@std@@@2@$00@std@@QAE@U_Zero_then_variadic_args_t@1@@Z 00445350 f i BaseState.obj
 0001:00044380       ??$?0$$V@?$_Compressed_pair@V?$allocator@U?$_List_node@V?$unique_ptr@VButton@@U?$default_delete@VButton@@@std@@@std@@PAX@std@@@std@@V?$_List_val@U?$_List_simple_types@V?$unique_ptr@VButton@@U?$default_delete@VButton@@@std@@@std@@@std@@@2@$00@std@@QAE@U_Zero_then_variadic_args_t@1@@Z 00445380 f i BaseState.obj
 0001:000443b0       ??$?0U?$_List_node@PAVDisplayableObject@@PAX@std@@@?$allocator@U_Container_proxy@std@@@std@@QAE@ABV?$allocator@U?$_List_node@PAVDisplayableObject@@PAX@std@@@1@@Z 004453b0 f i BaseState.obj
 0001:000443d0       ??$?0U?$_List_node@V?$unique_ptr@VButton@@U?$default_delete@VButton@@@std@@@std@@PAX@std@@@?$allocator@U_Container_proxy@std@@@std@@QAE@ABV?$allocator@U?$_List_node@V?$unique_ptr@VButton@@U?$default_delete@VButton@@@std@@@std@@PAX@std@@@1@@Z 004453d0 f i BaseState.obj
 0001:000443f0       ??$_Construct_in_place@PAU?$_List_node@PAVDisplayableObject@@PAX@std@@AAPAU12@@std@@YAXAAPAU?$_List_node@PAVDisplayableObject@@PAX@0@0@Z 004453f0 f i BaseState.obj
 0001:00044440       ??$_Construct_in_place@PAU?$_List_node@V?$unique_ptr@VButton@@U?$default_delete@VButton@@@std@@@std@@PAX@std@@AAPAU12@@std@@YAXAAPAU?$_List_node@V?$unique_ptr@VButton@@U?$default_delete@VButton@@@std@@@std@@PAX@0@0@Z 00445440 f i BaseState.obj
 0001:00044490       ??$_Destroy_in_place@PAU?$_List_node@PAVDisplayableObject@@PAX@std@@@std@@YAXAAPAU?$_List_node@PAVDisplayableObject@@PAX@0@@Z 00445490 f i BaseState.obj
 0001:000444a0       ??$_Destroy_in_place@PAU?$_List_node@V?$unique_ptr@VButton@@U?$default_delete@VButton@@@std@@@std@@PAX@std@@@std@@YAXAAPAU?$_List_node@V?$unique_ptr@VButton@@U?$default_delete@VButton@@@std@@@std@@PAX@0@@Z 004454a0 f i BaseState.obj
 0001:000444b0       ??$_Free_non_head@V?$allocator@U?$_List_node@PAVDisplayableObject@@PAX@std@@@std@@@?$_List_node@PAVDisplayableObject@@PAX@std@@SAXAAV?$allocator@U?$_List_node@PAVDisplayableObject@@PAX@std@@@1@PAU01@@Z 004454b0 f i BaseState.obj
 0001:00044510       ??$_Free_non_head@V?$allocator@U?$_List_node@V?$unique_ptr@VButton@@U?$default_delete@VButton@@@std@@@std@@PAX@std@@@std@@@?$_List_node@V?$unique_ptr@VButton@@U?$default_delete@VButton@@@std@@@std@@PAX@std@@SAXAAV?$allocator@U?$_List_node@V?$unique_ptr@VButton@@U?$default_delete@VButton@@@std@@@std@@PAX@std@@@1@PAU01@@Z 00445510 f i BaseState.obj
 0001:00044570       ??$_Freenode0@V?$allocator@U?$_List_node@PAVDisplayableObject@@PAX@std@@@std@@@?$_List_node@PAVDisplayableObject@@PAX@std@@SAXAAV?$allocator@U?$_List_node@PAVDisplayableObject@@PAX@std@@@1@PAU01@@Z 00445570 f i BaseState.obj
 0001:000445f0       ??$_Freenode0@V?$allocator@U?$_List_node@V?$unique_ptr@VButton@@U?$default_delete@VButton@@@std@@@std@@PAX@std@@@std@@@?$_List_node@V?$unique_ptr@VButton@@U?$default_delete@VButton@@@std@@@std@@PAX@std@@SAXAAV?$allocator@U?$_List_node@V?$unique_ptr@VButton@@U?$default_delete@VButton@@@std@@@std@@PAX@std@@@1@PAU01@@Z 004455f0 f i BaseState.obj
 0001:00044670       ??$_Freenode@V?$allocator@U?$_List_node@PAVDisplayableObject@@PAX@std@@@std@@@?$_List_node@PAVDisplayableObject@@PAX@std@@SAXAAV?$allocator@U?$_List_node@PAVDisplayableObject@@PAX@std@@@1@PAU01@@Z 00445670 f i BaseState.obj
 0001:000446f0       ??$_Freenode@V?$allocator@U?$_List_node@V?$unique_ptr@VButton@@U?$default_delete@VButton@@@std@@@std@@PAX@std@@@std@@@?$_List_node@V?$unique_ptr@VButton@@U?$default_delete@VButton@@@std@@@std@@PAX@std@@SAXAAV?$allocator@U?$_List_node@V?$unique_ptr@VButton@@U?$default_delete@VButton@@@std@@@std@@PAX@std@@@1@PAU01@@Z 004456f0 f i BaseState.obj
 0001:00044770       ??$_Get_size_of_n@$0M@@std@@YAII@Z 00445770 f i BaseState.obj
 0001:000447a0       ??$addressof@PAU?$_List_node@PAVDisplayableObject@@PAX@std@@@std@@YAPAPAU?$_List_node@PAVDisplayableObject@@PAX@0@AAPAU10@@Z 004457a0 f i BaseState.obj
 0001:000447b0       ??$addressof@PAU?$_List_node@V?$unique_ptr@VButton@@U?$default_delete@VButton@@@std@@@std@@PAX@std@@@std@@YAPAPAU?$_List_node@V?$unique_ptr@VButton@@U?$default_delete@VButton@@@std@@@std@@PAX@0@AAPAU10@@Z 004457b0 f i BaseState.obj
 0001:000447c0       ??$addressof@PAVDisplayableObject@@@std@@YAPAPAVDisplayableObject@@AAPAV1@@Z 004457c0 f i BaseState.obj
 0001:000447d0       ??$addressof@V?$_List_val@U?$_List_simple_types@V?$unique_ptr@VButton@@U?$default_delete@VButton@@@std@@@std@@@std@@@std@@@std@@YAPAV?$_List_val@U?$_List_simple_types@V?$unique_ptr@VButton@@U?$default_delete@VButton@@@std@@@std@@@std@@@0@AAV10@@Z 004457d0 f i BaseState.obj
 0001:000447e0       ??$addressof@V?$unique_ptr@VButton@@U?$default_delete@VButton@@@std@@@std@@@std@@YAPAV?$unique_ptr@VButton@@U?$default_delete@VButton@@@std@@@0@AAV10@@Z 004457e0 f i BaseState.obj
 0001:000447f0       ??$destroy@PAVDisplayableObject@@@?$_Default_allocator_traits@V?$allocator@U?$_List_node@PAVDisplayableObject@@PAX@std@@@std@@@std@@SAXAAV?$allocator@U?$_List_node@PAVDisplayableObject@@PAX@std@@@1@QAPAVDisplayableObject@@@Z 004457f0 f i BaseState.obj
 0001:00044800       ??$destroy@V?$unique_ptr@VButton@@U?$default_delete@VButton@@@std@@@std@@@?$_Default_allocator_traits@V?$allocator@U?$_List_node@V?$unique_ptr@VButton@@U?$default_delete@VButton@@@std@@@std@@PAX@std@@@std@@@std@@SAXAAV?$allocator@U?$_List_node@V?$unique_ptr@VButton@@U?$default_delete@VButton@@@std@@@std@@PAX@std@@@1@QAV?$unique_ptr@VButton@@U?$default_delete@VButton@@@std@@@1@@Z 00445800 f i BaseState.obj
 0001:00044820       ??$forward@AAPAU?$_List_node@PAVDisplayableObject@@PAX@std@@@std@@YAAAPAU?$_List_node@PAVDisplayableObject@@PAX@0@AAPAU10@@Z 00445820 f i BaseState.obj
 0001:00044830       ??$forward@AAPAU?$_List_node@V?$unique_ptr@VButton@@U?$default_delete@VButton@@@std@@@std@@PAX@std@@@std@@YAAAPAU?$_List_node@V?$unique_ptr@VButton@@U?$default_delete@VButton@@@std@@@std@@PAX@0@AAPAU10@@Z 00445830 f i BaseState.obj
 0001:00044840       ??0?$_List_const_iterator@V?$_List_val@U?$_List_simple_types@V?$unique_ptr@VButton@@U?$default_delete@VButton@@@std@@@std@@@std@@@std@@@std@@QAE@$$QAV01@@Z 00445840 f i BaseState.obj
 0001:00044870       ??0?$_List_const_iterator@V?$_List_val@U?$_List_simple_types@V?$unique_ptr@VButton@@U?$default_delete@VButton@@@std@@@std@@@std@@@std@@@std@@QAE@ABV01@@Z 00445870 f i BaseState.obj
 0001:000448a0       ??0?$_List_const_iterator@V?$_List_val@U?$_List_simple_types@V?$unique_ptr@VButton@@U?$default_delete@VButton@@@std@@@std@@@std@@@std@@@std@@QAE@PAU?$_List_node@V?$unique_ptr@VButton@@U?$default_delete@VButton@@@std@@@std@@PAX@1@PBV?$_List_val@U?$_List_simple_types@V?$unique_ptr@VButton@@U?$default_delete@VButton@@@std@@@std@@@std@@@1@@Z 004458a0 f i BaseState.obj
 0001:000448d0       ??0?$_List_iterator@V?$_List_val@U?$_List_simple_types@V?$unique_ptr@VButton@@U?$default_delete@VButton@@@std@@@std@@@std@@@std@@@std@@QAE@$$QAV01@@Z 004458d0 f i BaseState.obj
 0001:00044900       ??0?$_List_iterator@V?$_List_val@U?$_List_simple_types@V?$unique_ptr@VButton@@U?$default_delete@VButton@@@std@@@std@@@std@@@std@@@std@@QAE@ABV01@@Z 00445900 f i BaseState.obj
 0001:00044930       ??0?$_List_iterator@V?$_List_val@U?$_List_simple_types@V?$unique_ptr@VButton@@U?$default_delete@VButton@@@std@@@std@@@std@@@std@@@std@@QAE@PAU?$_List_node@V?$unique_ptr@VButton@@U?$default_delete@VButton@@@std@@@std@@PAX@1@PBV?$_List_val@U?$_List_simple_types@V?$unique_ptr@VButton@@U?$default_delete@VButton@@@std@@@std@@@std@@@1@@Z 00445930 f i BaseState.obj
 0001:00044960       ??0?$_List_unchecked_const_iterator@V?$_List_val@U?$_List_simple_types@V?$unique_ptr@VButton@@U?$default_delete@VButton@@@std@@@std@@@std@@@std@@U_Iterator_base12@2@@std@@QAE@$$QAV01@@Z 00445960 f i BaseState.obj
 0001:000449a0       ??0?$_List_unchecked_const_iterator@V?$_List_val@U?$_List_simple_types@V?$unique_ptr@VButton@@U?$default_delete@VButton@@@std@@@std@@@std@@@std@@U_Iterator_base12@2@@std@@QAE@ABV01@@Z 004459a0 f i BaseState.obj
 0001:000449e0       ??0?$_List_unchecked_const_iterator@V?$_List_val@U?$_List_simple_types@V?$unique_ptr@VButton@@U?$default_delete@VButton@@@std@@@std@@@std@@@std@@U_Iterator_base12@2@@std@@QAE@PAU?$_List_node@V?$unique_ptr@VButton@@U?$default_delete@VButton@@@std@@@std@@PAX@1@PBV?$_List_val@U?$_List_simple_types@V?$unique_ptr@VButton@@U?$default_delete@VButton@@@std@@@std@@@std@@@1@@Z 004459e0 f i BaseState.obj
 0001:00044a20       ??0?$_List_val@U?$_List_simple_types@PAVDisplayableObject@@@std@@@std@@QAE@XZ 00445a20 f i BaseState.obj
 0001:00044a60       ??0?$_List_val@U?$_List_simple_types@V?$unique_ptr@VButton@@U?$default_delete@VButton@@@std@@@std@@@std@@@std@@QAE@XZ 00445a60 f i BaseState.obj
 0001:00044aa0       ??0?$allocator@U?$_List_node@PAVDisplayableObject@@PAX@std@@@std@@QAE@XZ 00445aa0 f i BaseState.obj
 0001:00044ac0       ??0?$allocator@U?$_List_node@V?$unique_ptr@VButton@@U?$default_delete@VButton@@@std@@@std@@PAX@std@@@std@@QAE@XZ 00445ac0 f i BaseState.obj
 0001:00044ae0       ??0?$list@PAVDisplayableObject@@V?$allocator@PAVDisplayableObject@@@std@@@std@@QAE@XZ 00445ae0 f i BaseState.obj
 0001:00044b10       ??0?$list@V?$unique_ptr@VButton@@U?$default_delete@VButton@@@std@@@std@@V?$allocator@V?$unique_ptr@VButton@@U?$default_delete@VButton@@@std@@@std@@@2@@std@@QAE@XZ 00445b10 f i BaseState.obj
 0001:00044b40       ??1?$_List_const_iterator@V?$_List_val@U?$_List_simple_types@V?$unique_ptr@VButton@@U?$default_delete@VButton@@@std@@@std@@@std@@@std@@@std@@QAE@XZ 00445b40 f i BaseState.obj
 0001:00044b60       ??1?$_List_iterator@V?$_List_val@U?$_List_simple_types@V?$unique_ptr@VButton@@U?$default_delete@VButton@@@std@@@std@@@std@@@std@@@std@@QAE@XZ 00445b60 f i BaseState.obj
 0001:00044b80       ??1?$_List_unchecked_const_iterator@V?$_List_val@U?$_List_simple_types@V?$unique_ptr@VButton@@U?$default_delete@VButton@@@std@@@std@@@std@@@std@@U_Iterator_base12@2@@std@@QAE@XZ 00445b80 f i BaseState.obj
 0001:00044ba0       ??1?$list@PAVDisplayableObject@@V?$allocator@PAVDisplayableObject@@@std@@@std@@QAE@XZ 00445ba0 f i BaseState.obj
 0001:00044bf0       ??1?$list@V?$unique_ptr@VButton@@U?$default_delete@VButton@@@std@@@std@@V?$allocator@V?$unique_ptr@VButton@@U?$default_delete@VButton@@@std@@@std@@@2@@std@@QAE@XZ 00445bf0 f i BaseState.obj
 0001:00044c40       ??1?$unique_ptr@VButton@@U?$default_delete@VButton@@@std@@@std@@QAE@XZ 00445c40 f i BaseState.obj
 0001:00044c80       ??8?$_List_const_iterator@V?$_List_val@U?$_List_simple_types@V?$unique_ptr@VButton@@U?$default_delete@VButton@@@std@@@std@@@std@@@std@@@std@@QBE_NABV01@@Z 00445c80 f i BaseState.obj
 0001:00044d40       ??9?$_List_const_iterator@V?$_List_val@U?$_List_simple_types@V?$unique_ptr@VButton@@U?$default_delete@VButton@@@std@@@std@@@std@@@std@@@std@@QBE_NABV01@@Z 00445d40 f i BaseState.obj
 0001:00044d90       ??C?$unique_ptr@VButton@@U?$default_delete@VButton@@@std@@@std@@QBEPAVButton@@XZ 00445d90 f i BaseState.obj
 0001:00044db0       ??D?$_List_const_iterator@V?$_List_val@U?$_List_simple_types@V?$unique_ptr@VButton@@U?$default_delete@VButton@@@std@@@std@@@std@@@std@@@std@@QBEABV?$unique_ptr@VButton@@U?$default_delete@VButton@@@std@@@1@XZ 00445db0 f i BaseState.obj
 0001:00044ec0       ??D?$_List_iterator@V?$_List_val@U?$_List_simple_types@V?$unique_ptr@VButton@@U?$default_delete@VButton@@@std@@@std@@@std@@@std@@@std@@QBEAAV?$unique_ptr@VButton@@U?$default_delete@VButton@@@std@@@1@XZ 00445ec0 f i BaseState.obj
 0001:00044ee0       ??E?$_List_const_iterator@V?$_List_val@U?$_List_simple_types@V?$unique_ptr@VButton@@U?$default_delete@VButton@@@std@@@std@@@std@@@std@@@std@@QAEAAV01@XZ 00445ee0 f i BaseState.obj
 0001:00045000       ??E?$_List_iterator@V?$_List_val@U?$_List_simple_types@V?$unique_ptr@VButton@@U?$default_delete@VButton@@@std@@@std@@@std@@@std@@@std@@QAE?AV01@H@Z 00446000 f i BaseState.obj
 0001:000450b0       ??R?$default_delete@VButton@@@std@@QBEXPAVButton@@@Z 004460b0 f i BaseState.obj
 0001:000450f0       ??_G?$unique_ptr@VButton@@U?$default_delete@VButton@@@std@@@std@@QAEPAXI@Z 004460f0 f i BaseState.obj
 0001:00045130       ??_GButton@@QAEPAXI@Z      00446130 f i BaseState.obj
 0001:00045170       ?_Alloc_sentinel_and_proxy@?$list@PAVDisplayableObject@@V?$allocator@PAVDisplayableObject@@@std@@@std@@AAEXXZ 00446170 f i BaseState.obj
 0001:00045260       ?_Alloc_sentinel_and_proxy@?$list@V?$unique_ptr@VButton@@U?$default_delete@VButton@@@std@@@std@@V?$allocator@V?$unique_ptr@VButton@@U?$default_delete@VButton@@@std@@@std@@@2@@std@@AAEXXZ 00446260 f i BaseState.obj
 0001:00045350       ?_Get_first@?$_Compressed_pair@U?$default_delete@VButton@@@std@@PAVButton@@$00@std@@QAEAAU?$default_delete@VButton@@@2@XZ 00446350 f i BaseState.obj
 0001:00045370       ?_Get_first@?$_Compressed_pair@V?$allocator@U?$_List_node@PAVDisplayableObject@@PAX@std@@@std@@V?$_List_val@U?$_List_simple_types@PAVDisplayableObject@@@std@@@2@$00@std@@QAEAAV?$allocator@U?$_List_node@PAVDisplayableObject@@PAX@std@@@2@XZ 00446370 f i BaseState.obj
 0001:00045390       ?_Get_first@?$_Compressed_pair@V?$allocator@U?$_List_node@V?$unique_ptr@VButton@@U?$default_delete@VButton@@@std@@@std@@PAX@std@@@std@@V?$_List_val@U?$_List_simple_types@V?$unique_ptr@VButton@@U?$default_delete@VButton@@@std@@@std@@@std@@@2@$00@std@@QAEAAV?$allocator@U?$_List_node@V?$unique_ptr@VButton@@U?$default_delete@VButton@@@std@@@std@@PAX@std@@@2@XZ 00446390 f i BaseState.obj
 0001:000453b0       ?_Getal@?$list@PAVDisplayableObject@@V?$allocator@PAVDisplayableObject@@@std@@@std@@AAEAAV?$allocator@U?$_List_node@PAVDisplayableObject@@PAX@std@@@2@XZ 004463b0 f i BaseState.obj
 0001:000453d0       ?_Getal@?$list@V?$unique_ptr@VButton@@U?$default_delete@VButton@@@std@@@std@@V?$allocator@V?$unique_ptr@VButton@@U?$default_delete@VButton@@@std@@@std@@@2@@std@@AAEAAV?$allocator@U?$_List_node@V?$unique_ptr@VButton@@U?$default_delete@VButton@@@std@@@std@@PAX@std@@@2@XZ 004463d0 f i BaseState.obj
 0001:000453f0       ?_Tidy@?$list@PAVDisplayableObject@@V?$allocator@PAVDisplayableObject@@@std@@@std@@AAEXXZ 004463f0 f i BaseState.obj
 0001:00045450       ?_Tidy@?$list@V?$unique_ptr@VButton@@U?$default_delete@VButton@@@std@@@std@@V?$allocator@V?$unique_ptr@VButton@@U?$default_delete@VButton@@@std@@@std@@@2@@std@@AAEXXZ 00446450 f i BaseState.obj
 0001:000454b0       ?allocate@?$allocator@U?$_List_node@PAVDisplayableObject@@PAX@std@@@std@@QAEPAU?$_List_node@PAVDisplayableObject@@PAX@2@I@Z 004464b0 f i BaseState.obj
 0001:000454e0       ?allocate@?$allocator@U?$_List_node@V?$unique_ptr@VButton@@U?$default_delete@VButton@@@std@@@std@@PAX@std@@@std@@QAEPAU?$_List_node@V?$unique_ptr@VButton@@U?$default_delete@VButton@@@std@@@std@@PAX@2@I@Z 004464e0 f i BaseState.obj
 0001:00045510       ?begin@?$list@V?$unique_ptr@VButton@@U?$default_delete@VButton@@@std@@@std@@V?$allocator@V?$unique_ptr@VButton@@U?$default_delete@VButton@@@std@@@std@@@2@@std@@QAE?AV?$_List_iterator@V?$_List_val@U?$_List_simple_types@V?$unique_ptr@VButton@@U?$default_delete@VButton@@@std@@@std@@@std@@@std@@@2@XZ 00446510 f i BaseState.obj
 0001:00045550       ?deallocate@?$_Default_allocator_traits@V?$allocator@U?$_List_node@PAVDisplayableObject@@PAX@std@@@std@@@std@@SAXAAV?$allocator@U?$_List_node@PAVDisplayableObject@@PAX@std@@@2@QAU?$_List_node@PAVDisplayableObject@@PAX@2@I@Z 00446550 f i BaseState.obj
 0001:00045570       ?deallocate@?$_Default_allocator_traits@V?$allocator@U?$_List_node@V?$unique_ptr@VButton@@U?$default_delete@VButton@@@std@@@std@@PAX@std@@@std@@@std@@SAXAAV?$allocator@U?$_List_node@V?$unique_ptr@VButton@@U?$default_delete@VButton@@@std@@@std@@PAX@std@@@2@QAU?$_List_node@V?$unique_ptr@VButton@@U?$default_delete@VButton@@@std@@@std@@PAX@2@I@Z 00446570 f i BaseState.obj
 0001:00045590       ?end@?$list@V?$unique_ptr@VButton@@U?$default_delete@VButton@@@std@@@std@@V?$allocator@V?$unique_ptr@VButton@@U?$default_delete@VButton@@@std@@@std@@@2@@std@@QAE?AV?$_List_iterator@V?$_List_val@U?$_List_simple_types@V?$unique_ptr@VButton@@U?$default_delete@VButton@@@std@@@std@@@std@@@std@@@2@XZ 00446590 f i BaseState.obj
 0001:000455d0       ??0StateEditor@@QAE@PAVGameEngine@@@Z 004465d0 f   StateEditor.obj
 0001:000456a0       ?onStateEnter@StateEditor@@UAEXXZ 004466a0 f   StateEditor.obj
 0001:000457b0       ?onStateExit@StateEditor@@UAEXXZ 004467b0 f   StateEditor.obj
 0001:000457c0       ?virtSetupBackgroundBuffer@StateEditor@@UAEXXZ 004467c0 f   StateEditor.obj
 0001:000458a0       ?virtDrawStringsOnTop@StateEditor@@UAEXXZ 004468a0 f   StateEditor.obj
 0001:000459a0       ?virtMouseDown@StateEditor@@UAEXHHH@Z 004469a0 f   StateEditor.obj
 0001:00045ab0       ?virtMouseWheel@StateEditor@@UAEXHHHH@Z 00446ab0 f   StateEditor.obj
 0001:00045b10       ?virtKeyDown@StateEditor@@UAEXH@Z 00446b10 f   StateEditor.obj
 0001:00045c20       ?virtMainLoopPreUpdate@StateEditor@@UAEXXZ 00446c20 f   StateEditor.obj
 0001:00045c30       ?virtMainLoopPostUpdate@StateEditor@@UAEXXZ 00446c30 f   StateEditor.obj
 0001:00045de0       ??$_Reallocate_grow_by@V<lambda_ab246b20b9526e2ef7792587e4298a77>@@PBDI@?$basic_string@DU?$char_traits@D@std@@V?$allocator@D@2@@std@@AAEAAV01@IV<lambda_ab246b20b9526e2ef7792587e4298a77>@@PBDI@Z 00446de0 f i StateEditor.obj
 0001:00045f50       ??0EditorTileManager@@QAE@XZ 00446f50 f i StateEditor.obj
 0001:00046010       ??R<lambda_ab246b20b9526e2ef7792587e4298a77>@@QBE@QADQBDI1I@Z 00447010 f i StateEditor.obj
 0001:00046080       ??_GEditorTileManager@@UAEPAXI@Z 00447080 f i StateEditor.obj
 0001:00046080       ??_EEditorTileManager@@UAEPAXI@Z 00447080 f i StateEditor.obj
 0001:000460c0       ?GetTileSprites@Psybc5TileManager@@QAEAAVSimpleImage@@XZ 004470c0 f i StateEditor.obj
 0001:000460e0       ?append@?$basic_string@DU?$char_traits@D@std@@V?$allocator@D@2@@std@@QAEAAV12@ABV12@@Z 004470e0 f i StateEditor.obj
 0001:00046110       ?append@?$basic_string@DU?$char_traits@D@std@@V?$allocator@D@2@@std@@QAEAAV12@QBDI@Z 00447110 f i StateEditor.obj
 0001:000461f0       ??0StateMenu@@QAE@PAVGameEngine@@@Z 004471f0 f   StateMenu.obj
 0001:00046300       ?onStateEnter@StateMenu@@UAEXXZ 00447300 f   StateMenu.obj
 0001:00046630       ?virtSetupBackgroundBuffer@StateMenu@@UAEXXZ 00447630 f   StateMenu.obj
 0001:000466d0       ?virtDrawStringsOnTop@StateMenu@@UAEXXZ 004476d0 f   StateMenu.obj
 0001:00046710       ?virtDrawStringsUnderneath@StateMenu@@UAEXXZ 00447710 f   StateMenu.obj
 0001:00046720       ?virtMouseDown@StateMenu@@UAEXHHH@Z 00447720 f   StateMenu.obj
 0001:00046750       ?virtMouseWheel@StateMenu@@UAEXHHHH@Z 00447750 f   StateMenu.obj
 0001:00046760       ?virtKeyDown@StateMenu@@UAEXH@Z 00447760 f   StateMenu.obj
 0001:000468b0       ?virtMainLoopDoBeforeUpdate@StateMenu@@UAEXXZ 004478b0 f   StateMenu.obj
 0001:00046910       ??0StateCharCreate@@QAE@PAVGameEngine@@@Z 00447910 f   StateMenu.obj
 0001:00047010       ??1StateCharCreate@@QAE@XZ 00448010 f   StateMenu.obj
 0001:00047060       ?virtSetupBackgroundBuffer@StateCharCreate@@UAEXXZ 00448060 f   StateMenu.obj
 0001:00047080       ?onStateEnter@StateCharCreate@@UAEXXZ 00448080 f   StateMenu.obj
 0001:00047090       ?virtDrawStringsOnTop@StateCharCreate@@UAEXXZ 00448090 f   StateMenu.obj
 0001:000474e0       ?virtMouseDown@StateCharCreate@@UAEXHHH@Z 004484e0 f   StateMenu.obj
 0001:00047510       ?virtKeyDown@StateCharCreate@@UAEXH@Z 00448510 f   StateMenu.obj
 0001:000475e0       ?virtMainLoopDoBeforeUpdate@StateCharCreate@@UAEXXZ 004485e0 f   StateMenu.obj
 0001:00047b10       ??$?0$$V@?$_Compressed_pair@V?$allocator@V?$tuple@HH@std@@@std@@V?$_Vector_val@U?$_Simple_types@V?$tuple@HH@std@@@std@@@2@$00@std@@QAE@U_Zero_then_variadic_args_t@1@@Z 00448b10 f i StateMenu.obj
 0001:00047b40       ??$?0AAPAVButton@@@?$_Compressed_pair@U?$default_delete@VButton@@@std@@PAVButton@@$00@std@@QAE@U_Zero_then_variadic_args_t@1@AAPAVButton@@@Z 00448b40 f i StateMenu.obj
 0001:00047b70       ??$?0ABV?$allocator@H@std@@$$V@?$_Compressed_pair@V?$allocator@H@std@@V?$_Vector_val@U?$_Simple_types@H@std@@@2@$00@std@@QAE@U_One_then_variadic_args_t@1@ABV?$allocator@H@1@@Z 00448b70 f i StateMenu.obj
 0001:00047ba0       ??$?0ABV?$allocator@V?$vector@HV?$allocator@H@std@@@std@@@std@@$$V@?$_Compressed_pair@V?$allocator@V?$vector@HV?$allocator@H@std@@@std@@@std@@V?$_Vector_val@U?$_Simple_types@V?$vector@HV?$allocator@H@std@@@std@@@std@@@2@$00@std@@QAE@U_One_then_variadic_args_t@1@ABV?$allocator@V?$vector@HV?$allocator@H@std@@@std@@@1@@Z 00448ba0 f i StateMenu.obj
 0001:00047bd0       ??$?0H@?$allocator@U_Container_proxy@std@@@std@@QAE@ABV?$allocator@H@1@@Z 00448bd0 f i StateMenu.obj
 0001:00047bf0       ??$?0U?$default_delete@VButton@@@std@@$0A@@?$unique_ptr@VButton@@U?$default_delete@VButton@@@std@@@std@@QAE@PAVButton@@@Z 00448bf0 f i StateMenu.obj
 0001:00047c20       ??$?0U?$default_delete@VButton@@@std@@PAVButton@@@?$_Compressed_pair@U?$default_delete@VButton@@@std@@PAVButton@@$00@std@@QAE@U_One_then_variadic_args_t@1@$$QAU?$default_delete@VButton@@@1@$$QAPAVButton@@@Z 00448c20 f i StateMenu.obj
 0001:00047c60       ??$?0V?$allocator@H@std@@$$V@?$_Compressed_pair@V?$allocator@H@std@@V?$_Vector_val@U?$_Simple_types@H@std@@@2@$00@std@@QAE@U_One_then_variadic_args_t@1@$$QAV?$allocator@H@1@@Z 00448c60 f i StateMenu.obj
 0001:00047c90       ??$?0V?$allocator@V?$vector@HV?$allocator@H@std@@@std@@@std@@$$V@?$_Compressed_pair@V?$allocator@V?$vector@HV?$allocator@H@std@@@std@@@std@@V?$_Vector_val@U?$_Simple_types@V?$vector@HV?$allocator@H@std@@@std@@@std@@@2@$00@std@@QAE@U_One_then_variadic_args_t@1@$$QAV?$allocator@V?$vector@HV?$allocator@H@std@@@std@@@1@@Z 00448c90 f i StateMenu.obj
 0001:00047cc0       ??$?0V?$tuple@HH@std@@@?$allocator@U_Container_proxy@std@@@std@@QAE@ABV?$allocator@V?$tuple@HH@std@@@1@@Z 00448cc0 f i StateMenu.obj
 0001:00047ce0       ??$?0V?$unique_ptr@VButton@@U?$default_delete@VButton@@@std@@@std@@@?$_List_node_emplace_op2@V?$allocator@U?$_List_node@V?$unique_ptr@VButton@@U?$default_delete@VButton@@@std@@@std@@PAX@std@@@std@@@std@@QAE@AAV?$allocator@U?$_List_node@V?$unique_ptr@VButton@@U?$default_delete@VButton@@@std@@@std@@PAX@std@@@1@$$QAV?$unique_ptr@VButton@@U?$default_delete@VButton@@@std@@@1@@Z 00448ce0 f i StateMenu.obj
 0001:00047d90       ??$?0V?$vector@HV?$allocator@H@std@@@std@@@?$allocator@U_Container_proxy@std@@@std@@QAE@ABV?$allocator@V?$vector@HV?$allocator@H@std@@@std@@@1@@Z 00448d90 f i StateMenu.obj
 0001:00047db0       ??$?6U?$char_traits@D@std@@@std@@YAAAV?$basic_ostream@DU?$char_traits@D@std@@@0@AAV10@D@Z 00448db0 f i StateMenu.obj
 0001:00048150       ??$?HDU?$char_traits@D@std@@V?$allocator@D@1@@std@@YA?AV?$basic_string@DU?$char_traits@D@std@@V?$allocator@D@2@@0@QBD$$QAV10@@Z 00449150 f i StateMenu.obj
 0001:000481a0       ??$_Construct_in_place@PAU?$_List_node@V?$unique_ptr@VButton@@U?$default_delete@VButton@@@std@@@std@@PAX@std@@ABQAU12@@std@@YAXAAPAU?$_List_node@V?$unique_ptr@VButton@@U?$default_delete@VButton@@@std@@@std@@PAX@0@ABQAU10@@Z 004491a0 f i StateMenu.obj
 0001:000481f0       ??$_Copy_memmove@PAHPAH@std@@YAPAHPAH00@Z 004491f0 f i StateMenu.obj
 0001:00048240       ??$_Copy_memmove@PBHPAH@std@@YAPAHPBH0PAH@Z 00449240 f i StateMenu.obj
 0001:00048290       ??$_Destroy_range@V?$allocator@H@std@@@std@@YAXPAHQAHAAV?$allocator@H@0@@Z 00449290 f i StateMenu.obj
 0001:000482a0       ??$_Destroy_range@V?$allocator@V?$tuple@HH@std@@@std@@@std@@YAXPAV?$tuple@HH@0@QAV10@AAV?$allocator@V?$tuple@HH@std@@@0@@Z 004492a0 f i StateMenu.obj
 0001:000482b0       ??$_Destroy_range@V?$allocator@V?$vector@HV?$allocator@H@std@@@std@@@std@@@std@@YAXPAV?$vector@HV?$allocator@H@std@@@0@QAV10@AAV?$allocator@V?$vector@HV?$allocator@H@std@@@std@@@0@@Z 004492b0 f i StateMenu.obj
 0001:00048330       ??$_Emplace@V?$unique_ptr@VButton@@U?$default_delete@VButton@@@std@@@std@@@?$list@V?$unique_ptr@VButton@@U?$default_delete@VButton@@@std@@@std@@V?$allocator@V?$unique_ptr@VButton@@U?$default_delete@VButton@@@std@@@std@@@2@@std@@QAEPAU?$_List_node@V?$unique_ptr@VButton@@U?$default_delete@VButton@@@std@@@std@@PAX@1@QAU21@$$QAV?$unique_ptr@VButton@@U?$default_delete@VButton@@@std@@@1@@Z 00449330 f i StateMenu.obj
 0001:000483e0       ??$_Emplace_back@ABV?$vector@HV?$allocator@H@std@@@std@@@?$_Uninitialized_backout_al@V?$allocator@V?$vector@HV?$allocator@H@std@@@std@@@std@@@std@@QAEXABV?$vector@HV?$allocator@H@std@@@1@@Z 004493e0 f i StateMenu.obj
 0001:00048440       ??$_Emplace_back@V?$tuple@HH@std@@@?$_Uninitialized_backout_al@V?$allocator@V?$tuple@HH@std@@@std@@@std@@QAEX$$QAV?$tuple@HH@1@@Z 00449440 f i StateMenu.obj
 0001:000484a0       ??$_Emplace_back_with_unused_capacity@V?$tuple@HH@std@@@?$vector@V?$tuple@HH@std@@V?$allocator@V?$tuple@HH@std@@@2@@std@@AAE@$$QAV?$tuple@HH@1@@Z 004494a0 f i StateMenu.obj
 0001:00048540       ??$_Emplace_reallocate@V?$tuple@HH@std@@@?$vector@V?$tuple@HH@std@@V?$allocator@V?$tuple@HH@std@@@2@@std@@QAEPAV?$tuple@HH@1@QAV21@$$QAV21@@Z 00449540 f i StateMenu.obj
 0001:00048780       ??$_Get_unwrapped@$$CBH@std@@YAPBHQBH@Z 00449780 f i StateMenu.obj
 0001:00048790       ??$_Get_unwrapped@$$CBV?$vector@HV?$allocator@H@std@@@std@@@std@@YAPBV?$vector@HV?$allocator@H@std@@@0@QBV10@@Z 00449790 f i StateMenu.obj
 0001:000487a0       ??$_Get_unwrapped@H@std@@YAPAHQAH@Z 004497a0 f i StateMenu.obj
 0001:000487b0       ??$_Get_unwrapped@V?$tuple@HH@std@@@std@@YAPAV?$tuple@HH@0@QAV10@@Z 004497b0 f i StateMenu.obj
 0001:000487c0       ??$_Range_construct_or_tidy@PBH@?$vector@HV?$allocator@H@std@@@std@@AAEXPBH0Uforward_iterator_tag@1@@Z 004497c0 f i StateMenu.obj
 0001:000488a0       ??$_Range_construct_or_tidy@PBV?$vector@HV?$allocator@H@std@@@std@@@?$vector@V?$vector@HV?$allocator@H@std@@@std@@V?$allocator@V?$vector@HV?$allocator@H@std@@@std@@@2@@std@@AAEXPBV?$vector@HV?$allocator@H@std@@@1@0Uforward_iterator_tag@1@@Z 004498a0 f i StateMenu.obj
 0001:00048980       ??$_Ucopy@PAH@?$vector@HV?$allocator@H@std@@@std@@AAEPAHPAH00@Z 00449980 f i StateMenu.obj
 0001:000489c0       ??$_Ucopy@PBH@?$vector@HV?$allocator@H@std@@@std@@AAEPAHPBH0PAH@Z 004499c0 f i StateMenu.obj
 0001:00048a00       ??$_Ucopy@PBV?$vector@HV?$allocator@H@std@@@std@@@?$vector@V?$vector@HV?$allocator@H@std@@@std@@V?$allocator@V?$vector@HV?$allocator@H@std@@@std@@@2@@std@@AAEPAV?$vector@HV?$allocator@H@std@@@1@PBV21@0PAV21@@Z 00449a00 f i StateMenu.obj
 0001:00048a40       ??$_Unfancy@H@std@@YAPAHPAH@Z 00449a40 f i StateMenu.obj
 0001:00048a50       ??$_Unfancy@V?$tuple@HH@std@@@std@@YAPAV?$tuple@HH@0@PAV10@@Z 00449a50 f i StateMenu.obj
 0001:00048a60       ??$_Unfancy@V?$vector@HV?$allocator@H@std@@@std@@@std@@YAPAV?$vector@HV?$allocator@H@std@@@0@PAV10@@Z 00449a60 f i StateMenu.obj
 0001:00048a70       ??$_Uninitialized_copy@PAHV?$allocator@H@std@@@std@@YAPAHQAH0PAHAAV?$allocator@H@0@@Z 00449a70 f i StateMenu.obj
 0001:00048ae0       ??$_Uninitialized_copy@PBHV?$allocator@H@std@@@std@@YAPAHQBH0PAHAAV?$allocator@H@0@@Z 00449ae0 f i StateMenu.obj
 0001:00048b50       ??$_Uninitialized_copy@PBV?$vector@HV?$allocator@H@std@@@std@@V?$allocator@V?$vector@HV?$allocator@H@std@@@std@@@2@@std@@YAPAV?$vector@HV?$allocator@H@std@@@0@QBV10@0PAV10@AAV?$allocator@V?$vector@HV?$allocator@H@std@@@std@@@0@@Z 00449b50 f i StateMenu.obj
 0001:00048c20       ??$_Uninitialized_move@PAV?$tuple@HH@std@@V?$allocator@V?$tuple@HH@std@@@2@@std@@YAPAV?$tuple@HH@0@QAV10@0PAV10@AAV?$allocator@V?$tuple@HH@std@@@0@@Z 00449c20 f i StateMenu.obj
 0001:00048d00       ??$addressof@V?$_Vector_val@U?$_Simple_types@V?$tuple@HH@std@@@std@@@std@@@std@@YAPAV?$_Vector_val@U?$_Simple_types@V?$tuple@HH@std@@@std@@@0@AAV10@@Z 00449d00 f i StateMenu.obj
 0001:00048d10       ??$construct@V?$tuple@HH@std@@V12@@?$_Default_allocator_traits@V?$allocator@V?$tuple@HH@std@@@std@@@std@@SAXAAV?$allocator@V?$tuple@HH@std@@@1@QAV?$tuple@HH@1@$$QAV31@@Z 00449d10 f i StateMenu.obj
 0001:00048d50       ??$construct@V?$unique_ptr@VButton@@U?$default_delete@VButton@@@std@@@std@@V12@@?$_Default_allocator_traits@V?$allocator@U?$_List_node@V?$unique_ptr@VButton@@U?$default_delete@VButton@@@std@@@std@@PAX@std@@@std@@@std@@SAXAAV?$allocator@U?$_List_node@V?$unique_ptr@VButton@@U?$default_delete@VButton@@@std@@@std@@PAX@std@@@1@QAV?$unique_ptr@VButton@@U?$default_delete@VButton@@@std@@@1@$$QAV31@@Z 00449d50 f i StateMenu.obj
 0001:00048d90       ??$construct@V?$vector@HV?$allocator@H@std@@@std@@ABV12@@?$_Default_allocator_traits@V?$allocator@V?$vector@HV?$allocator@H@std@@@std@@@std@@@std@@SAXAAV?$allocator@V?$vector@HV?$allocator@H@std@@@std@@@1@QAV?$vector@HV?$allocator@H@std@@@1@ABV31@@Z 00449d90 f i StateMenu.obj
 0001:00048dd0       ??$destroy@V?$vector@HV?$allocator@H@std@@@std@@@?$_Default_allocator_traits@V?$allocator@V?$vector@HV?$allocator@H@std@@@std@@@std@@@std@@SAXAAV?$allocator@V?$vector@HV?$allocator@H@std@@@std@@@1@QAV?$vector@HV?$allocator@H@std@@@1@@Z 00449dd0 f i StateMenu.obj
 0001:00048df0       ??$distance@PBH@std@@YAHPBH0@Z 00449df0 f i StateMenu.obj
 0001:00048e10       ??$distance@PBV?$vector@HV?$allocator@H@std@@@std@@@std@@YAHPBV?$vector@HV?$allocator@H@std@@@0@0@Z 00449e10 f i StateMenu.obj
 0001:00048e30       ??$emplace_back@V?$tuple@HH@std@@@?$vector@V?$tuple@HH@std@@V?$allocator@V?$tuple@HH@std@@@2@@std@@QAE@$$QAV?$tuple@HH@1@@Z 00449e30 f i StateMenu.obj
 0001:00048eb0       ??$exchange@PAVButton@@PAV1@@std@@YAPAVButton@@AAPAV1@$$QAPAV1@@Z 00449eb0 f i StateMenu.obj
 0001:00048ee0       ??$forward@AAPAVButton@@@std@@YAAAPAVButton@@AAPAV1@@Z 00449ee0 f i StateMenu.obj
 0001:00048ef0       ??$forward@ABQAU?$_List_node@V?$unique_ptr@VButton@@U?$default_delete@VButton@@@std@@@std@@PAX@std@@@std@@YAABQAU?$_List_node@V?$unique_ptr@VButton@@U?$default_delete@VButton@@@std@@@std@@PAX@0@ABQAU10@@Z 00449ef0 f i StateMenu.obj
 0001:00048f00       ??$forward@ABV?$allocator@H@std@@@std@@YAABV?$allocator@H@0@ABV10@@Z 00449f00 f i StateMenu.obj
 0001:00048f10       ??$forward@ABV?$allocator@V?$vector@HV?$allocator@H@std@@@std@@@std@@@std@@YAABV?$allocator@V?$vector@HV?$allocator@H@std@@@std@@@0@ABV10@@Z 00449f10 f i StateMenu.obj
 0001:00048f20       ??$forward@ABV?$vector@HV?$allocator@H@std@@@std@@@std@@YAABV?$vector@HV?$allocator@H@std@@@0@ABV10@@Z 00449f20 f i StateMenu.obj
 0001:00048f30       ??$forward@PAVButton@@@std@@YA$$QAPAVButton@@AAPAV1@@Z 00449f30 f i StateMenu.obj
 0001:00048f40       ??$forward@U?$default_delete@VButton@@@std@@@std@@YA$$QAU?$default_delete@VButton@@@0@AAU10@@Z 00449f40 f i StateMenu.obj
 0001:00048f50       ??$forward@V?$allocator@H@std@@@std@@YA$$QAV?$allocator@H@0@AAV10@@Z 00449f50 f i StateMenu.obj
 0001:00048f60       ??$forward@V?$allocator@V?$vector@HV?$allocator@H@std@@@std@@@std@@@std@@YA$$QAV?$allocator@V?$vector@HV?$allocator@H@std@@@std@@@0@AAV10@@Z 00449f60 f i StateMenu.obj
 0001:00048f70       ??$forward@V?$unique_ptr@VButton@@U?$default_delete@VButton@@@std@@@std@@@std@@YA$$QAV?$unique_ptr@VButton@@U?$default_delete@VButton@@@std@@@0@AAV10@@Z 00449f70 f i StateMenu.obj
 0001:00048f80       ??$move@AAV?$allocator@V?$vector@HV?$allocator@H@std@@@std@@@std@@@std@@YA$$QAV?$allocator@V?$vector@HV?$allocator@H@std@@@std@@@0@AAV10@@Z 00449f80 f i StateMenu.obj
 0001:00048f90       ??$move@AAV?$basic_string@DU?$char_traits@D@std@@V?$allocator@D@2@@std@@@std@@YA$$QAV?$basic_string@DU?$char_traits@D@std@@V?$allocator@D@2@@0@AAV10@@Z 00449f90 f i StateMenu.obj
 0001:00048fa0       ??$move@AAV?$unique_ptr@VButton@@U?$default_delete@VButton@@@std@@@std@@@std@@YA$$QAV?$unique_ptr@VButton@@U?$default_delete@VButton@@@std@@@0@AAV10@@Z 00449fa0 f i StateMenu.obj
 0001:00048fb0       ??0?$ButtonAllocateSkill@H@@QAE@PAVGameEngine@@HHHHHHPBDPAVFont@@PAHH3@Z 00449fb0 f i StateMenu.obj
 0001:00049020       ??0?$ButtonValueChange@H@@QAE@PAVGameEngine@@HHHHHHPBDPAVFont@@PAHH@Z 0044a020 f i StateMenu.obj
 0001:00049090       ??0?$_Alloc_construct_ptr@V?$allocator@U?$_List_node@V?$unique_ptr@VButton@@U?$default_delete@VButton@@@std@@@std@@PAX@std@@@std@@@std@@QAE@AAV?$allocator@U?$_List_node@V?$unique_ptr@VButton@@U?$default_delete@VButton@@@std@@@std@@PAX@std@@@1@@Z 0044a090 f i StateMenu.obj
 0001:000490c0       ??0?$_Uninitialized_backout_al@V?$allocator@V?$tuple@HH@std@@@std@@@std@@QAE@PAV?$tuple@HH@1@AAV?$allocator@V?$tuple@HH@std@@@1@@Z 0044a0c0 f i StateMenu.obj
 0001:00049100       ??0?$_Uninitialized_backout_al@V?$allocator@V?$vector@HV?$allocator@H@std@@@std@@@std@@@std@@QAE@PAV?$vector@HV?$allocator@H@std@@@1@AAV?$allocator@V?$vector@HV?$allocator@H@std@@@std@@@1@@Z 0044a100 f i StateMenu.obj
 0001:00049140       ??0?$_Vector_const_iterator@V?$_Vector_val@U?$_Simple_types@V?$tuple@HH@std@@@std@@@std@@@std@@QAE@$$QAV01@@Z 0044a140 f i StateMenu.obj
 0001:00049180       ??0?$_Vector_const_iterator@V?$_Vector_val@U?$_Simple_types@V?$tuple@HH@std@@@std@@@std@@@std@@QAE@ABV01@@Z 0044a180 f i StateMenu.obj
 0001:000491c0       ??0?$_Vector_const_iterator@V?$_Vector_val@U?$_Simple_types@V?$tuple@HH@std@@@std@@@std@@@std@@QAE@PAV?$tuple@HH@1@PBU_Container_base12@1@@Z 0044a1c0 f i StateMenu.obj
 0001:00049200       ??0?$_Vector_iterator@V?$_Vector_val@U?$_Simple_types@V?$tuple@HH@std@@@std@@@std@@@std@@QAE@$$QAV01@@Z 0044a200 f i StateMenu.obj
 0001:00049230       ??0?$_Vector_iterator@V?$_Vector_val@U?$_Simple_types@V?$tuple@HH@std@@@std@@@std@@@std@@QAE@ABV01@@Z 0044a230 f i StateMenu.obj
 0001:00049260       ??0?$_Vector_iterator@V?$_Vector_val@U?$_Simple_types@V?$tuple@HH@std@@@std@@@std@@@std@@QAE@PAV?$tuple@HH@1@PBU_Container_base12@1@@Z 0044a260 f i StateMenu.obj
 0001:00049290       ??0?$_Vector_val@U?$_Simple_types@H@std@@@std@@QAE@XZ 0044a290 f i StateMenu.obj
 0001:000492e0       ??0?$_Vector_val@U?$_Simple_types@V?$tuple@HH@std@@@std@@@std@@QAE@XZ 0044a2e0 f i StateMenu.obj
 0001:00049330       ??0?$_Vector_val@U?$_Simple_types@V?$vector@HV?$allocator@H@std@@@std@@@std@@@std@@QAE@XZ 0044a330 f i StateMenu.obj
 0001:00049380       ??0?$allocator@H@std@@QAE@XZ 0044a380 f i StateMenu.obj
 0001:000493a0       ??0?$allocator@V?$tuple@HH@std@@@std@@QAE@XZ 0044a3a0 f i StateMenu.obj
 0001:000493c0       ??0?$allocator@V?$vector@HV?$allocator@H@std@@@std@@@std@@QAE@XZ 0044a3c0 f i StateMenu.obj
 0001:000493e0       ??0?$initializer_list@H@std@@QAE@PBH0@Z 0044a3e0 f i StateMenu.obj
 0001:00049410       ??0?$initializer_list@V?$vector@HV?$allocator@H@std@@@std@@@std@@QAE@PBV?$vector@HV?$allocator@H@std@@@1@0@Z 0044a410 f i StateMenu.obj
 0001:00049440       ??0?$unique_ptr@VButton@@U?$default_delete@VButton@@@std@@@std@@QAE@$$QAV01@@Z 0044a440 f i StateMenu.obj
 0001:00049490       ??0?$vector@HV?$allocator@H@std@@@std@@QAE@ABV01@@Z 0044a490 f i StateMenu.obj
 0001:000495f0       ??0?$vector@HV?$allocator@H@std@@@std@@QAE@V?$initializer_list@H@1@ABV?$allocator@H@1@@Z 0044a5f0 f i StateMenu.obj
 0001:000496d0       ??0?$vector@V?$tuple@HH@std@@V?$allocator@V?$tuple@HH@std@@@2@@std@@QAE@XZ 0044a6d0 f i StateMenu.obj
 0001:00049750       ??0?$vector@V?$vector@HV?$allocator@H@std@@@std@@V?$allocator@V?$vector@HV?$allocator@H@std@@@std@@@2@@std@@QAE@$$QAV01@@Z 0044a750 f i StateMenu.obj
 0001:00049800       ??0?$vector@V?$vector@HV?$allocator@H@std@@@std@@V?$allocator@V?$vector@HV?$allocator@H@std@@@std@@@2@@std@@QAE@V?$initializer_list@V?$vector@HV?$allocator@H@std@@@std@@@1@ABV?$allocator@V?$vector@HV?$allocator@H@std@@@std@@@1@@Z 0044a800 f i StateMenu.obj
 0001:000498e0       ??0ButtonCharCreator@@QAE@PAVGameEngine@@HHHHHHPBDPAVFont@@@Z 0044a8e0 f i StateMenu.obj
 0001:00049940       ??0ButtonContinue@@QAE@PAVGameEngine@@HHHHHHPBDPAVFont@@@Z 0044a940 f i StateMenu.obj
 0001:000499a0       ??0ButtonEditor@@QAE@PAVGameEngine@@HHHHHHPBDPAVFont@@@Z 0044a9a0 f i StateMenu.obj
 0001:00049a00       ??0ButtonExit@@QAE@PAVGameEngine@@HHHHHHPBDPAVFont@@@Z 0044aa00 f i StateMenu.obj
 0001:00049a60       ??0ButtonNewGame@@QAE@PAVGameEngine@@HHHHHHPBDPAVFont@@@Z 0044aa60 f i StateMenu.obj
 0001:00049ac0       ??0CoordinateMappingShiftXY@@QAE@NN@Z 0044aac0 f i StateMenu.obj
 0001:00049b10       ??1?$_Alloc_construct_ptr@V?$allocator@U?$_List_node@V?$unique_ptr@VButton@@U?$default_delete@VButton@@@std@@@std@@PAX@std@@@std@@@std@@QAE@XZ 0044ab10 f i StateMenu.obj
 0001:00049b80       ??1?$_List_node_emplace_op2@V?$allocator@U?$_List_node@V?$unique_ptr@VButton@@U?$default_delete@VButton@@@std@@@std@@PAX@std@@@std@@@std@@QAE@XZ 0044ab80 f i StateMenu.obj
 0001:00049c00       ??1?$_Tidy_guard@V?$vector@HV?$allocator@H@std@@@std@@@std@@QAE@XZ 0044ac00 f i StateMenu.obj
 0001:00049c30       ??1?$_Tidy_guard@V?$vector@V?$vector@HV?$allocator@H@std@@@std@@V?$allocator@V?$vector@HV?$allocator@H@std@@@std@@@2@@std@@@std@@QAE@XZ 0044ac30 f i StateMenu.obj
 0001:00049c60       ??1?$_Uninitialized_backout_al@V?$allocator@V?$tuple@HH@std@@@std@@@std@@QAE@XZ 0044ac60 f i StateMenu.obj
 0001:00049c90       ??1?$_Uninitialized_backout_al@V?$allocator@V?$vector@HV?$allocator@H@std@@@std@@@std@@@std@@QAE@XZ 0044ac90 f i StateMenu.obj
 0001:00049cc0       ??1?$_Vector_const_iterator@V?$_Vector_val@U?$_Simple_types@V?$tuple@HH@std@@@std@@@std@@@std@@QAE@XZ 0044acc0 f i StateMenu.obj
 0001:00049ce0       ??1?$_Vector_iterator@V?$_Vector_val@U?$_Simple_types@V?$tuple@HH@std@@@std@@@std@@@std@@QAE@XZ 0044ace0 f i StateMenu.obj
 0001:00049d00       ??1?$vector@HV?$allocator@H@std@@@std@@QAE@XZ 0044ad00 f i StateMenu.obj
 0001:00049da0       ??1?$vector@V?$tuple@HH@std@@V?$allocator@V?$tuple@HH@std@@@2@@std@@QAE@XZ 0044ada0 f i StateMenu.obj
 0001:00049e40       ??1?$vector@V?$vector@HV?$allocator@H@std@@@std@@V?$allocator@V?$vector@HV?$allocator@H@std@@@std@@@2@@std@@QAE@XZ 0044ae40 f i StateMenu.obj
 0001:00049ee0       ??8?$_Vector_const_iterator@V?$_Vector_val@U?$_Simple_types@V?$tuple@HH@std@@@std@@@std@@@std@@QBE_NABV01@@Z 0044aee0 f i StateMenu.obj
 0001:00049f30       ??9?$_Vector_const_iterator@V?$_Vector_val@U?$_Simple_types@V?$tuple@HH@std@@@std@@@std@@@std@@QBE_NABV01@@Z 0044af30 f i StateMenu.obj
 0001:00049f80       ??A?$vector@HV?$allocator@H@std@@@std@@QAEAAHI@Z 0044af80 f i StateMenu.obj
 0001:0004a030       ??A?$vector@V?$vector@HV?$allocator@H@std@@@std@@V?$allocator@V?$vector@HV?$allocator@H@std@@@std@@@2@@std@@QAEAAV?$vector@HV?$allocator@H@std@@@1@I@Z 0044b030 f i StateMenu.obj
 0001:0004a0e0       ??D?$_Vector_const_iterator@V?$_Vector_val@U?$_Simple_types@V?$tuple@HH@std@@@std@@@std@@@std@@QBEABV?$tuple@HH@1@XZ 0044b0e0 f i StateMenu.obj
 0001:0004a1f0       ??D?$_Vector_iterator@V?$_Vector_val@U?$_Simple_types@V?$tuple@HH@std@@@std@@@std@@@std@@QBEAAV?$tuple@HH@1@XZ 0044b1f0 f i StateMenu.obj
 0001:0004a210       ??E?$_Vector_const_iterator@V?$_Vector_val@U?$_Simple_types@V?$tuple@HH@std@@@std@@@std@@@std@@QAEAAV01@XZ 0044b210 f i StateMenu.obj
 0001:0004a320       ??E?$_Vector_iterator@V?$_Vector_val@U?$_Simple_types@V?$tuple@HH@std@@@std@@@std@@@std@@QAE?AV01@H@Z 0044b320 f i StateMenu.obj
 0001:0004a3d0       ??_G?$basic_string@DU?$char_traits@D@std@@V?$allocator@D@2@@std@@QAEPAXI@Z 0044b3d0 f i StateMenu.obj
 0001:0004a410       ??_G?$vector@HV?$allocator@H@std@@@std@@QAEPAXI@Z 0044b410 f i StateMenu.obj
 0001:0004a450       ?_Allocate@?$_Alloc_construct_ptr@V?$allocator@U?$_List_node@V?$unique_ptr@VButton@@U?$default_delete@VButton@@@std@@@std@@PAX@std@@@std@@@std@@QAEXXZ 0044b450 f i StateMenu.obj
 0001:0004a480       ?_Buy_nonzero@?$vector@HV?$allocator@H@std@@@std@@AAEXI@Z 0044b480 f i StateMenu.obj
 0001:0004a4c0       ?_Buy_nonzero@?$vector@V?$vector@HV?$allocator@H@std@@@std@@V?$allocator@V?$vector@HV?$allocator@H@std@@@std@@@2@@std@@AAEXI@Z 0044b4c0 f i StateMenu.obj
 0001:0004a500       ?_Buy_raw@?$vector@HV?$allocator@H@std@@@std@@AAEXI@Z 0044b500 f i StateMenu.obj
 0001:0004a580       ?_Buy_raw@?$vector@V?$vector@HV?$allocator@H@std@@@std@@V?$allocator@V?$vector@HV?$allocator@H@std@@@std@@@2@@std@@AAEXI@Z 0044b580 f i StateMenu.obj
 0001:0004a600       ?_Calculate_growth@?$vector@V?$tuple@HH@std@@V?$allocator@V?$tuple@HH@std@@@2@@std@@ABEII@Z 0044b600 f i StateMenu.obj
 0001:0004a670       ?_Change_array@?$vector@V?$tuple@HH@std@@V?$allocator@V?$tuple@HH@std@@@2@@std@@AAEXQAV?$tuple@HH@2@II@Z 0044b670 f i StateMenu.obj
 0001:0004a740       ?_Compat@?$_Vector_const_iterator@V?$_Vector_val@U?$_Simple_types@V?$tuple@HH@std@@@std@@@std@@@std@@QBEXABV12@@Z 0044b740 f i StateMenu.obj
 0001:0004a7e0       ?_Destroy@?$vector@HV?$allocator@H@std@@@std@@AAEXPAH0@Z 0044b7e0 f i StateMenu.obj
 0001:0004a810       ?_Destroy@?$vector@V?$tuple@HH@std@@V?$allocator@V?$tuple@HH@std@@@2@@std@@AAEXPAV?$tuple@HH@2@0@Z 0044b810 f i StateMenu.obj
 0001:0004a840       ?_Destroy@?$vector@V?$vector@HV?$allocator@H@std@@@std@@V?$allocator@V?$vector@HV?$allocator@H@std@@@std@@@2@@std@@AAEXPAV?$vector@HV?$allocator@H@std@@@2@0@Z 0044b840 f i StateMenu.obj
 0001:0004a870       ?_Eos@?$basic_string@DU?$char_traits@D@std@@V?$allocator@D@2@@std@@AAEXI@Z 0044b870 f i StateMenu.obj
 0001:0004a8c0       ?_Get_first@?$_Compressed_pair@V?$allocator@H@std@@V?$_Vector_val@U?$_Simple_types@H@std@@@2@$00@std@@QAEAAV?$allocator@H@2@XZ 0044b8c0 f i StateMenu.obj
 0001:0004a8e0       ?_Get_first@?$_Compressed_pair@V?$allocator@H@std@@V?$_Vector_val@U?$_Simple_types@H@std@@@2@$00@std@@QBEABV?$allocator@H@2@XZ 0044b8e0 f i StateMenu.obj
 0001:0004a900       ?_Get_first@?$_Compressed_pair@V?$allocator@U?$_List_node@V?$unique_ptr@VButton@@U?$default_delete@VButton@@@std@@@std@@PAX@std@@@std@@V?$_List_val@U?$_List_simple_types@V?$unique_ptr@VButton@@U?$default_delete@VButton@@@std@@@std@@@std@@@2@$00@std@@QBEABV?$allocator@U?$_List_node@V?$unique_ptr@VButton@@U?$default_delete@VButton@@@std@@@std@@PAX@std@@@2@XZ 0044b900 f i StateMenu.obj
 0001:0004a920       ?_Get_first@?$_Compressed_pair@V?$allocator@V?$tuple@HH@std@@@std@@V?$_Vector_val@U?$_Simple_types@V?$tuple@HH@std@@@std@@@2@$00@std@@QAEAAV?$allocator@V?$tuple@HH@std@@@2@XZ 0044b920 f i StateMenu.obj
 0001:0004a940       ?_Get_first@?$_Compressed_pair@V?$allocator@V?$tuple@HH@std@@@std@@V?$_Vector_val@U?$_Simple_types@V?$tuple@HH@std@@@std@@@2@$00@std@@QBEABV?$allocator@V?$tuple@HH@std@@@2@XZ 0044b940 f i StateMenu.obj
 0001:0004a960       ?_Get_first@?$_Compressed_pair@V?$allocator@V?$vector@HV?$allocator@H@std@@@std@@@std@@V?$_Vector_val@U?$_Simple_types@V?$vector@HV?$allocator@H@std@@@std@@@std@@@2@$00@std@@QAEAAV?$allocator@V?$vector@HV?$allocator@H@std@@@std@@@2@XZ 0044b960 f i StateMenu.obj
 0001:0004a980       ?_Get_first@?$_Compressed_pair@V?$allocator@V?$vector@HV?$allocator@H@std@@@std@@@std@@V?$_Vector_val@U?$_Simple_types@V?$vector@HV?$allocator@H@std@@@std@@@std@@@2@$00@std@@QBEABV?$allocator@V?$vector@HV?$allocator@H@std@@@std@@@2@XZ 0044b980 f i StateMenu.obj
 0001:0004a9a0       ?_Getal@?$list@V?$unique_ptr@VButton@@U?$default_delete@VButton@@@std@@@std@@V?$allocator@V?$unique_ptr@VButton@@U?$default_delete@VButton@@@std@@@std@@@2@@std@@ABEABV?$allocator@U?$_List_node@V?$unique_ptr@VButton@@U?$default_delete@VButton@@@std@@@std@@PAX@std@@@2@XZ 0044b9a0 f i StateMenu.obj
 0001:0004a9c0       ?_Getal@?$vector@HV?$allocator@H@std@@@std@@AAEAAV?$allocator@H@2@XZ 0044b9c0 f i StateMenu.obj
 0001:0004a9e0       ?_Getal@?$vector@HV?$allocator@H@std@@@std@@ABEABV?$allocator@H@2@XZ 0044b9e0 f i StateMenu.obj
 0001:0004aa00       ?_Getal@?$vector@V?$tuple@HH@std@@V?$allocator@V?$tuple@HH@std@@@2@@std@@AAEAAV?$allocator@V?$tuple@HH@std@@@2@XZ 0044ba00 f i StateMenu.obj
 0001:0004aa20       ?_Getal@?$vector@V?$tuple@HH@std@@V?$allocator@V?$tuple@HH@std@@@2@@std@@ABEABV?$allocator@V?$tuple@HH@std@@@2@XZ 0044ba20 f i StateMenu.obj
 0001:0004aa40       ?_Getal@?$vector@V?$vector@HV?$allocator@H@std@@@std@@V?$allocator@V?$vector@HV?$allocator@H@std@@@std@@@2@@std@@AAEAAV?$allocator@V?$vector@HV?$allocator@H@std@@@std@@@2@XZ 0044ba40 f i StateMenu.obj
 0001:0004aa60       ?_Getal@?$vector@V?$vector@HV?$allocator@H@std@@@std@@V?$allocator@V?$vector@HV?$allocator@H@std@@@std@@@2@@std@@ABEABV?$allocator@V?$vector@HV?$allocator@H@std@@@std@@@2@XZ 0044ba60 f i StateMenu.obj
 0001:0004aa80       ?_Move_construct@?$vector@V?$vector@HV?$allocator@H@std@@@std@@V?$allocator@V?$vector@HV?$allocator@H@std@@@std@@@2@@std@@AAEXAAV12@U?$integral_constant@_N$00@2@@Z 0044ba80 f i StateMenu.obj
 0001:0004aaa0       ?_Orphan_non_end@?$_List_val@U?$_List_simple_types@V?$unique_ptr@VButton@@U?$default_delete@VButton@@@std@@@std@@@std@@@std@@QAEXXZ 0044baa0 f i StateMenu.obj
 0001:0004ab40       ?_Orphan_range@?$vector@V?$tuple@HH@std@@V?$allocator@V?$tuple@HH@std@@@2@@std@@ABEXPAV?$tuple@HH@2@0@Z 0044bb40 f i StateMenu.obj
 0001:0004abe0       ?_Release@?$_Uninitialized_backout_al@V?$allocator@V?$tuple@HH@std@@@std@@@std@@QAEPAV?$tuple@HH@2@XZ 0044bbe0 f i StateMenu.obj
 0001:0004ac10       ?_Release@?$_Uninitialized_backout_al@V?$allocator@V?$vector@HV?$allocator@H@std@@@std@@@std@@@std@@QAEPAV?$vector@HV?$allocator@H@std@@@2@XZ 0044bc10 f i StateMenu.obj
 0001:0004ac40       ?_Take_contents@?$_Vector_val@U?$_Simple_types@V?$vector@HV?$allocator@H@std@@@std@@@std@@@std@@QAEXAAV12@@Z 0044bc40 f i StateMenu.obj
 0001:0004acc0       ?_Tidy@?$vector@HV?$allocator@H@std@@@std@@AAEXXZ 0044bcc0 f i StateMenu.obj
 0001:0004adb0       ?_Tidy@?$vector@V?$tuple@HH@std@@V?$allocator@V?$tuple@HH@std@@@2@@std@@AAEXXZ 0044bdb0 f i StateMenu.obj
 0001:0004aea0       ?_Tidy@?$vector@V?$vector@HV?$allocator@H@std@@@std@@V?$allocator@V?$vector@HV?$allocator@H@std@@@std@@@2@@std@@AAEXXZ 0044bea0 f i StateMenu.obj
 0001:0004af90       ?_Transfer_before@?$_List_node_emplace_op2@V?$allocator@U?$_List_node@V?$unique_ptr@VButton@@U?$default_delete@VButton@@@std@@@std@@PAX@std@@@std@@@std@@QAEPAU?$_List_node@V?$unique_ptr@VButton@@U?$default_delete@VButton@@@std@@@std@@PAX@2@QAU32@@Z 0044bf90 f i StateMenu.obj
 0001:0004b020       ?_Umove@?$vector@V?$tuple@HH@std@@V?$allocator@V?$tuple@HH@std@@@2@@std@@AAEPAV?$tuple@HH@2@PAV32@00@Z 0044c020 f i StateMenu.obj
 0001:0004b060       ?_Umove_if_noexcept1@?$vector@V?$tuple@HH@std@@V?$allocator@V?$tuple@HH@std@@@2@@std@@AAEXPAV?$tuple@HH@2@00U?$integral_constant@_N$00@2@@Z 0044c060 f i StateMenu.obj
 0001:0004b0a0       ?_Umove_if_noexcept@?$vector@V?$tuple@HH@std@@V?$allocator@V?$tuple@HH@std@@@2@@std@@AAEXPAV?$tuple@HH@2@00@Z 0044c0a0 f i StateMenu.obj
 0001:0004b0e0       ?_Unchecked_begin@?$vector@HV?$allocator@H@std@@@std@@QBEPBHXZ 0044c0e0 f i StateMenu.obj
 0001:0004b100       ?_Unchecked_begin@?$vector@V?$vector@HV?$allocator@H@std@@@std@@V?$allocator@V?$vector@HV?$allocator@H@std@@@std@@@2@@std@@QAEPAV?$vector@HV?$allocator@H@std@@@2@XZ 0044c100 f i StateMenu.obj
 0001:0004b120       ?_Unchecked_end@?$vector@HV?$allocator@H@std@@@std@@QBEPBHXZ 0044c120 f i StateMenu.obj
 0001:0004b140       ?_Unchecked_end@?$vector@V?$vector@HV?$allocator@H@std@@@std@@V?$allocator@V?$vector@HV?$allocator@H@std@@@std@@@2@@std@@QAEPAV?$vector@HV?$allocator@H@std@@@2@XZ 0044c140 f i StateMenu.obj
 0001:0004b160       ?_Xlength@?$vector@HV?$allocator@H@std@@@std@@CAXXZ 0044c160 f i StateMenu.obj
 0001:0004b180       ?_Xlength@?$vector@V?$tuple@HH@std@@V?$allocator@V?$tuple@HH@std@@@2@@std@@CAXXZ 0044c180 f i StateMenu.obj
 0001:0004b1a0       ?_Xlength@?$vector@V?$vector@HV?$allocator@H@std@@@std@@V?$allocator@V?$vector@HV?$allocator@H@std@@@std@@@2@@std@@CAXXZ 0044c1a0 f i StateMenu.obj
 0001:0004b1c0       ?allocate@?$allocator@H@std@@QAEPAHI@Z 0044c1c0 f i StateMenu.obj
 0001:0004b1f0       ?allocate@?$allocator@V?$tuple@HH@std@@@std@@QAEPAV?$tuple@HH@2@I@Z 0044c1f0 f i StateMenu.obj
 0001:0004b220       ?allocate@?$allocator@V?$vector@HV?$allocator@H@std@@@std@@@std@@QAEPAV?$vector@HV?$allocator@H@std@@@2@I@Z 0044c220 f i StateMenu.obj
 0001:0004b250       ?append@?$basic_string@DU?$char_traits@D@std@@V?$allocator@D@2@@std@@QAEAAV12@QBD@Z 0044c250 f i StateMenu.obj
 0001:0004b290       ?begin@?$initializer_list@H@std@@QBEPBHXZ 0044c290 f i StateMenu.obj
 0001:0004b2b0       ?begin@?$initializer_list@V?$vector@HV?$allocator@H@std@@@std@@@std@@QBEPBV?$vector@HV?$allocator@H@std@@@2@XZ 0044c2b0 f i StateMenu.obj
 0001:0004b2d0       ?begin@?$vector@V?$tuple@HH@std@@V?$allocator@V?$tuple@HH@std@@@2@@std@@QAE?AV?$_Vector_iterator@V?$_Vector_val@U?$_Simple_types@V?$tuple@HH@std@@@std@@@std@@@2@XZ 0044c2d0 f i StateMenu.obj
 0001:0004b320       ?capacity@?$vector@V?$tuple@HH@std@@V?$allocator@V?$tuple@HH@std@@@2@@std@@QBEIXZ 0044c320 f i StateMenu.obj
 0001:0004b350       ?clear@?$list@V?$unique_ptr@VButton@@U?$default_delete@VButton@@@std@@@std@@V?$allocator@V?$unique_ptr@VButton@@U?$default_delete@VButton@@@std@@@std@@@2@@std@@QAEXXZ 0044c350 f i StateMenu.obj
 0001:0004b3c0       ?deallocate@?$allocator@H@std@@QAEXQAHI@Z 0044c3c0 f i StateMenu.obj
 0001:0004b3f0       ?deallocate@?$allocator@U?$_List_node@V?$unique_ptr@VButton@@U?$default_delete@VButton@@@std@@@std@@PAX@std@@@std@@QAEXQAU?$_List_node@V?$unique_ptr@VButton@@U?$default_delete@VButton@@@std@@@std@@PAX@2@I@Z 0044c3f0 f i StateMenu.obj
 0001:0004b420       ?deallocate@?$allocator@V?$tuple@HH@std@@@std@@QAEXQAV?$tuple@HH@2@I@Z 0044c420 f i StateMenu.obj
 0001:0004b450       ?deallocate@?$allocator@V?$vector@HV?$allocator@H@std@@@std@@@std@@QAEXQAV?$vector@HV?$allocator@H@std@@@2@I@Z 0044c450 f i StateMenu.obj
 0001:0004b480       ?end@?$initializer_list@H@std@@QBEPBHXZ 0044c480 f i StateMenu.obj
 0001:0004b4a0       ?end@?$initializer_list@V?$vector@HV?$allocator@H@std@@@std@@@std@@QBEPBV?$vector@HV?$allocator@H@std@@@2@XZ 0044c4a0 f i StateMenu.obj
 0001:0004b4c0       ?end@?$vector@V?$tuple@HH@std@@V?$allocator@V?$tuple@HH@std@@@2@@std@@QAE?AV?$_Vector_iterator@V?$_Vector_val@U?$_Simple_types@V?$tuple@HH@std@@@std@@@std@@@2@XZ 0044c4c0 f i StateMenu.obj
 0001:0004b510       ?genFloor@FloorGenerator@@QAE?AV?$vector@V?$vector@HV?$allocator@H@std@@@std@@V?$allocator@V?$vector@HV?$allocator@H@std@@@std@@@2@@std@@HH@Z 0044c510 f i StateMenu.obj
 0001:0004c1f0       ?get_deleter@?$unique_ptr@VButton@@U?$default_delete@VButton@@@std@@@std@@QAEAAU?$default_delete@VButton@@@2@XZ 0044d1f0 f i StateMenu.obj
 0001:0004c210       ?mapCoordinates@CoordinateMappingShiftXY@@UAE_NAAN0ABVSimpleImage@@@Z 0044d210 f i StateMenu.obj
 0001:0004c3e0       ?max_size@?$_Default_allocator_traits@V?$allocator@H@std@@@std@@SAIABV?$allocator@H@2@@Z 0044d3e0 f i StateMenu.obj
 0001:0004c3f0       ?max_size@?$_Default_allocator_traits@V?$allocator@U?$_List_node@V?$unique_ptr@VButton@@U?$default_delete@VButton@@@std@@@std@@PAX@std@@@std@@@std@@SAIABV?$allocator@U?$_List_node@V?$unique_ptr@VButton@@U?$default_delete@VButton@@@std@@@std@@PAX@std@@@2@@Z 0044d3f0 f i StateMenu.obj
 0001:0004c400       ?max_size@?$_Default_allocator_traits@V?$allocator@V?$tuple@HH@std@@@std@@@std@@SAIABV?$allocator@V?$tuple@HH@std@@@2@@Z 0044d400 f i StateMenu.obj
 0001:0004c410       ?max_size@?$_Default_allocator_traits@V?$allocator@V?$vector@HV?$allocator@H@std@@@std@@@std@@@std@@SAIABV?$allocator@V?$vector@HV?$allocator@H@std@@@std@@@2@@Z 0044d410 f i StateMenu.obj
 0001:0004c420       ?max_size@?$list@V?$unique_ptr@VButton@@U?$default_delete@VButton@@@std@@@std@@V?$allocator@V?$unique_ptr@VButton@@U?$default_delete@VButton@@@std@@@std@@@2@@std@@QBEIXZ 0044d420 f i StateMenu.obj
 0001:0004c470       ?max_size@?$vector@HV?$allocator@H@std@@@std@@QBEIXZ 0044d470 f i StateMenu.obj
 0001:0004c4c0       ?max_size@?$vector@V?$tuple@HH@std@@V?$allocator@V?$tuple@HH@std@@@2@@std@@QBEIXZ 0044d4c0 f i StateMenu.obj
 0001:0004c510       ?max_size@?$vector@V?$vector@HV?$allocator@H@std@@@std@@V?$allocator@V?$vector@HV?$allocator@H@std@@@std@@@2@@std@@QBEIXZ 0044d510 f i StateMenu.obj
 0001:0004c560       ?onClick@?$ButtonAllocateSkill@H@@UAEXXZ 0044d560 f i StateMenu.obj
 0001:0004c5d0       ?onClick@?$ButtonValueChange@H@@UAEXXZ 0044d5d0 f i StateMenu.obj
 0001:0004c600       ?pop_back@?$basic_string@DU?$char_traits@D@std@@V?$allocator@D@2@@std@@QAEXXZ 0044d600 f i StateMenu.obj
 0001:0004c6d0       ?push_back@?$list@V?$unique_ptr@VButton@@U?$default_delete@VButton@@@std@@@std@@V?$allocator@V?$unique_ptr@VButton@@U?$default_delete@VButton@@@std@@@std@@@2@@std@@QAEX$$QAV?$unique_ptr@VButton@@U?$default_delete@VButton@@@std@@@2@@Z 0044d6d0 f i StateMenu.obj
 0001:0004c710       ?push_back@?$vector@V?$tuple@HH@std@@V?$allocator@V?$tuple@HH@std@@@2@@std@@QAEX$$QAV?$tuple@HH@2@@Z 0044d710 f i StateMenu.obj
 0001:0004c740       ?release@?$unique_ptr@VButton@@U?$default_delete@VButton@@@std@@@std@@QAEPAVButton@@XZ 0044d740 f i StateMenu.obj
 0001:0004c7b0       ?select_on_container_copy_construction@?$_Default_allocator_traits@V?$allocator@H@std@@@std@@SA?AV?$allocator@H@2@ABV32@@Z 0044d7b0 f i StateMenu.obj
 0001:0004c7c0       ??0StateRunning@@QAE@PAVGameEngine@@@Z 0044d7c0 f   StateRunning.obj
 0001:0004c7f0       ?onStateEnter@StateRunning@@UAEXXZ 0044d7f0 f   StateRunning.obj
 0001:0004c870       ?onStateExit@StateRunning@@UAEXXZ 0044d870 f   StateRunning.obj
 0001:0004c880       ?virtSetupBackgroundBuffer@StateRunning@@UAEXXZ 0044d880 f   StateRunning.obj
 0001:0004c8f0       ?virtDrawStringsOnTop@StateRunning@@UAEXXZ 0044d8f0 f   StateRunning.obj
 0001:0004cdd0       ?virtDrawStringsUnderneath@StateRunning@@UAEXXZ 0044ddd0 f   StateRunning.obj
 0001:0004cde0       ?virtMouseDown@StateRunning@@UAEXHHH@Z 0044dde0 f   StateRunning.obj
 0001:0004ce10       ?virtMouseWheel@StateRunning@@UAEXHHHH@Z 0044de10 f   StateRunning.obj
 0001:0004cf00       ?virtKeyDown@StateRunning@@UAEXH@Z 0044df00 f   StateRunning.obj
 0001:0004d060       ?virtMainLoopPreUpdate@StateRunning@@UAEXXZ 0044e060 f   StateRunning.obj
 0001:0004d070       ?virtMainLoopPostUpdate@StateRunning@@UAEXXZ 0044e070 f   StateRunning.obj
 0001:0004d080       ?orderCharsByHeight@StateRunning@@QAEXXZ 0044e080 f   StateRunning.obj
 0001:0004d140       ??0StatePaused@@QAE@PAVGameEngine@@@Z 0044e140 f   StateRunning.obj
 0001:0004d170       ?onStateEnter@StatePaused@@UAEXXZ 0044e170 f   StateRunning.obj
 0001:0004d190       ?onStateExit@StatePaused@@UAEXXZ 0044e190 f   StateRunning.obj
 0001:0004d1b0       ?virtDrawStringsOnTop@StatePaused@@UAEXXZ 0044e1b0 f   StateRunning.obj
 0001:0004d4d0       ?virtMouseDown@StatePaused@@UAEXHHH@Z 0044e4d0 f   StateRunning.obj
 0001:0004d4f0       ?virtKeyDown@StatePaused@@UAEXH@Z 0044e4f0 f   StateRunning.obj
 0001:0004d530       ?virtMouseWheel@StatePaused@@UAEXHHHH@Z 0044e530 f   StateRunning.obj
 0001:0004d540       ??0StateEnemyTurn@@QAE@PAVGameEngine@@@Z 0044e540 f   StateRunning.obj
 0001:0004d5b0       ?onStateEnter@StateEnemyTurn@@UAEXXZ 0044e5b0 f   StateRunning.obj
 0001:0004d640       ?onStateExit@StateEnemyTurn@@UAEXXZ 0044e640 f   StateRunning.obj
 0001:0004d650       ?virtDrawStringsOnTop@StateEnemyTurn@@UAEXXZ 0044e650 f   StateRunning.obj
 0001:0004d680       ?virtKeyDown@StateEnemyTurn@@UAEXH@Z 0044e680 f   StateRunning.obj
 0001:0004d690       ?triggerNextEnemy@StateEnemyTurn@@QAEXXZ 0044e690 f   StateRunning.obj
 0001:0004dac0       ??$?0$$V@?$_Compressed_pair@V?$allocator@U?$_List_node@PAVEnemyObject@@PAX@std@@@std@@V?$_List_val@U?$_List_simple_types@PAVEnemyObject@@@std@@@2@$00@std@@QAE@U_Zero_then_variadic_args_t@1@@Z 0044eac0 f i StateRunning.obj
 0001:0004daf0       ??$?0ABQAVEnemyObject@@@?$_List_node_emplace_op2@V?$allocator@U?$_List_node@PAVEnemyObject@@PAX@std@@@std@@@std@@QAE@AAV?$allocator@U?$_List_node@PAVEnemyObject@@PAX@std@@@1@ABQAVEnemyObject@@@Z 0044eaf0 f i StateRunning.obj
 0001:0004dba0       ??$?HDU?$char_traits@D@std@@V?$allocator@D@1@@std@@YA?AV?$basic_string@DU?$char_traits@D@std@@V?$allocator@D@2@@0@$$QAV10@0@Z 0044eba0 f i StateRunning.obj
 0001:0004dc80       ??$?HDU?$char_traits@D@std@@V?$allocator@D@1@@std@@YA?AV?$basic_string@DU?$char_traits@D@std@@V?$allocator@D@2@@0@$$QAV10@QBD@Z 0044ec80 f i StateRunning.obj
 0001:0004dcd0       ??$_Construct_in_place@PAU?$_List_node@PAVEnemyObject@@PAX@std@@AAPAU12@@std@@YAXAAPAU?$_List_node@PAVEnemyObject@@PAX@0@0@Z 0044ecd0 f i StateRunning.obj
 0001:0004dd20       ??$_Construct_in_place@PAU?$_List_node@PAVEnemyObject@@PAX@std@@ABQAU12@@std@@YAXAAPAU?$_List_node@PAVEnemyObject@@PAX@0@ABQAU10@@Z 0044ed20 f i StateRunning.obj
 0001:0004dd70       ??$_Emplace@ABQAVEnemyObject@@@?$list@PAVEnemyObject@@V?$allocator@PAVEnemyObject@@@std@@@std@@QAEPAU?$_List_node@PAVEnemyObject@@PAX@1@QAU21@ABQAVEnemyObject@@@Z 0044ed70 f i StateRunning.obj
 0001:0004de20       ??$addressof@PAU?$_List_node@PAVEnemyObject@@PAX@std@@@std@@YAPAPAU?$_List_node@PAVEnemyObject@@PAX@0@AAPAU10@@Z 0044ee20 f i StateRunning.obj
 0001:0004de30       ??$construct@PAVEnemyObject@@ABQAV1@@?$_Default_allocator_traits@V?$allocator@U?$_List_node@PAVEnemyObject@@PAX@std@@@std@@@std@@SAXAAV?$allocator@U?$_List_node@PAVEnemyObject@@PAX@std@@@1@QAPAVEnemyObject@@ABQAV3@@Z 0044ee30 f i StateRunning.obj
 0001:0004de70       ??$forward@AAPAU?$_List_node@PAVEnemyObject@@PAX@std@@@std@@YAAAPAU?$_List_node@PAVEnemyObject@@PAX@0@AAPAU10@@Z 0044ee70 f i StateRunning.obj
 0001:0004de80       ??$forward@ABQAU?$_List_node@PAVEnemyObject@@PAX@std@@@std@@YAABQAU?$_List_node@PAVEnemyObject@@PAX@0@ABQAU10@@Z 0044ee80 f i StateRunning.obj
 0001:0004de90       ??$forward@ABQAVEnemyObject@@@std@@YAABQAVEnemyObject@@ABQAV1@@Z 0044ee90 f i StateRunning.obj
 0001:0004dea0       ??0?$_Alloc_construct_ptr@V?$allocator@U?$_List_node@PAVEnemyObject@@PAX@std@@@std@@@std@@QAE@AAV?$allocator@U?$_List_node@PAVEnemyObject@@PAX@std@@@1@@Z 0044eea0 f i StateRunning.obj
 0001:0004ded0       ??0?$_List_val@U?$_List_simple_types@PAVEnemyObject@@@std@@@std@@QAE@XZ 0044eed0 f i StateRunning.obj
 0001:0004df10       ??0?$allocator@U?$_List_node@PAVEnemyObject@@PAX@std@@@std@@QAE@XZ 0044ef10 f i StateRunning.obj
 0001:0004df30       ??0?$list@PAVEnemyObject@@V?$allocator@PAVEnemyObject@@@std@@@std@@QAE@XZ 0044ef30 f i StateRunning.obj
 0001:0004df60       ??1?$_Alloc_construct_ptr@V?$allocator@U?$_List_node@PAVEnemyObject@@PAX@std@@@std@@@std@@QAE@XZ 0044ef60 f i StateRunning.obj
 0001:0004dfd0       ??1?$_List_node_emplace_op2@V?$allocator@U?$_List_node@PAVEnemyObject@@PAX@std@@@std@@@std@@QAE@XZ 0044efd0 f i StateRunning.obj
 0001:0004e050       ?GetTilesBack@GameEngine@@QAEPAVBackgroundTileManager@@XZ 0044f050 f i StateRunning.obj
 0001:0004e070       ?GetTilesInv@GameEngine@@QAEPAVInventoryTileManager@@XZ 0044f070 f i StateRunning.obj
 0001:0004e090       ?_Alloc_sentinel_and_proxy@?$list@PAVEnemyObject@@V?$allocator@PAVEnemyObject@@@std@@@std@@AAEXXZ 0044f090 f i StateRunning.obj
 0001:0004e180       ?_Allocate@?$_Alloc_construct_ptr@V?$allocator@U?$_List_node@PAVEnemyObject@@PAX@std@@@std@@@std@@QAEXXZ 0044f180 f i StateRunning.obj
 0001:0004e1b0       ?_Get_first@?$_Compressed_pair@V?$allocator@U?$_List_node@PAVEnemyObject@@PAX@std@@@std@@V?$_List_val@U?$_List_simple_types@PAVEnemyObject@@@std@@@2@$00@std@@QBEABV?$allocator@U?$_List_node@PAVEnemyObject@@PAX@std@@@2@XZ 0044f1b0 f i StateRunning.obj
 0001:0004e1d0       ?_Getal@?$list@PAVEnemyObject@@V?$allocator@PAVEnemyObject@@@std@@@std@@ABEABV?$allocator@U?$_List_node@PAVEnemyObject@@PAX@std@@@2@XZ 0044f1d0 f i StateRunning.obj
 0001:0004e1f0       ?_Orphan_non_end@?$_List_val@U?$_List_simple_types@PAVEnemyObject@@@std@@@std@@QAEXXZ 0044f1f0 f i StateRunning.obj
 0001:0004e290       ?_Orphan_ptr2@?$_List_val@U?$_List_simple_types@PAVEnemyObject@@@std@@@std@@QAEXPAU?$_List_node@PAVEnemyObject@@PAX@2@@Z 0044f290 f i StateRunning.obj
 0001:0004e340       ?_Transfer_before@?$_List_node_emplace_op2@V?$allocator@U?$_List_node@PAVEnemyObject@@PAX@std@@@std@@@std@@QAEPAU?$_List_node@PAVEnemyObject@@PAX@2@QAU32@@Z 0044f340 f i StateRunning.obj
 0001:0004e3d0       ?_Unchecked_erase@?$list@PAVEnemyObject@@V?$allocator@PAVEnemyObject@@@std@@@std@@AAEPAU?$_List_node@PAVEnemyObject@@PAX@2@QAU32@@Z 0044f3d0 f i StateRunning.obj
 0001:0004e450       ?allocate@?$allocator@U?$_List_node@PAVEnemyObject@@PAX@std@@@std@@QAEPAU?$_List_node@PAVEnemyObject@@PAX@2@I@Z 0044f450 f i StateRunning.obj
 0001:0004e480       ?capacity@?$basic_string@DU?$char_traits@D@std@@V?$allocator@D@2@@std@@QBEIXZ 0044f480 f i StateRunning.obj
 0001:0004e4a0       ?clear@?$list@PAVEnemyObject@@V?$allocator@PAVEnemyObject@@@std@@@std@@QAEXXZ 0044f4a0 f i StateRunning.obj
 0001:0004e510       ?deallocate@?$allocator@U?$_List_node@PAVEnemyObject@@PAX@std@@@std@@QAEXQAU?$_List_node@PAVEnemyObject@@PAX@2@I@Z 0044f510 f i StateRunning.obj
 0001:0004e540       ?drawForegroundOval@BaseEngine@@QAEXHHHHI@Z 0044f540 f i StateRunning.obj
 0001:0004e580       ?front@?$list@PAVEnemyObject@@V?$allocator@PAVEnemyObject@@@std@@@std@@QAEAAPAVEnemyObject@@XZ 0044f580 f i StateRunning.obj
 0001:0004e610       ?getZoomX@FilterPointsScaling@@QAEMXZ 0044f610 f i StateRunning.obj
 0001:0004e680       ?insert@?$basic_string@DU?$char_traits@D@std@@V?$allocator@D@2@@std@@QAEAAV12@IABV12@@Z 0044f680 f i StateRunning.obj
 0001:0004e6c0       ?max_size@?$_Default_allocator_traits@V?$allocator@U?$_List_node@PAVEnemyObject@@PAX@std@@@std@@@std@@SAIABV?$allocator@U?$_List_node@PAVEnemyObject@@PAX@std@@@2@@Z 0044f6c0 f i StateRunning.obj
 0001:0004e6d0       ?max_size@?$list@PAVEnemyObject@@V?$allocator@PAVEnemyObject@@@std@@@std@@QBEIXZ 0044f6d0 f i StateRunning.obj
 0001:0004e720       ?pop_front@?$list@PAVEnemyObject@@V?$allocator@PAVEnemyObject@@@std@@@std@@QAEXXZ 0044f720 f i StateRunning.obj
 0001:0004e7c0       ?push_back@?$list@PAVEnemyObject@@V?$allocator@PAVEnemyObject@@@std@@@std@@QAEXABQAVEnemyObject@@@Z 0044f7c0 f i StateRunning.obj
 0001:0004e7f0       ?size@?$list@PAVEnemyObject@@V?$allocator@PAVEnemyObject@@@std@@@std@@QBEIXZ 0044f7f0 f i StateRunning.obj
 0001:0004e810       ??0StateStart@@QAE@PAVGameEngine@@@Z 0044f810 f   StateStart.obj
 0001:0004e840       ?virtSetupBackgroundBuffer@StateStart@@UAEXXZ 0044f840 f   StateStart.obj
 0001:0004f1c0       ?onStateEnter@StateStart@@UAEXXZ 004501c0 f   StateStart.obj
 0001:0004f1d0       ?onStateExit@StateStart@@UAEXXZ 004501d0 f   StateStart.obj
 0001:0004f450       ??0?$shared_ptr@VWeapon@@@std@@QAE@$$T@Z 00450450 f i StateStart.obj
 0001:0004f470       ?drawAllTiles@TileManager@@QBEXPAVBaseEngine@@PAVDrawingSurface@@@Z 00450470 f   TileManager.obj
 0001:0004f510       ?drawSomeTiles@TileManager@@QBEXPAVBaseEngine@@PAVDrawingSurface@@HHHH@Z 00450510 f   TileManager.obj
 0001:0004f5b0       ?virtDrawTileAt@TileManager@@UBEXPAVBaseEngine@@PAVDrawingSurface@@HHHH@Z 004505b0 f   TileManager.obj
 0001:0004f6a0       ??0BouncingBall@@QAE@PAVBouncingBallMain@@HHHHPBDHH@Z 004506a0 f   BouncingBall.obj
 0001:0004f770       ??1BouncingBall@@UAE@XZ    00450770 f   BouncingBall.obj
 0001:0004f790       ?virtDraw@BouncingBall@@UAEXXZ 00450790 f   BouncingBall.obj
 0001:0004fa60       ?virtDoUpdate@BouncingBall@@UAEXH@Z 00450a60 f   BouncingBall.obj
 0001:0004fa80       ??0BouncingBall1@@QAE@PAVBouncingBallMain@@HHHHPBDHHPAVTileManager@@@Z 00450a80 f   BouncingBall.obj
 0001:0004fb20       ?setMovement@BouncingBall1@@QAEXHHHHHHH@Z 00450b20 f   BouncingBall.obj
 0001:0004fb90       ?virtDoUpdate@BouncingBall1@@UAEXH@Z 00450b90 f   BouncingBall.obj
 0001:0004fd00       ??0BouncingBall2@@QAE@PAVBouncingBallMain@@HHHHPBDHH@Z 00450d00 f   BouncingBall.obj
 0001:0004fd80       ?setPosition@BouncingBall2@@QAEXNN@Z 00450d80 f   BouncingBall.obj
 0001:0004fdb0       ?setSpeed@BouncingBall2@@QAEXNN@Z 00450db0 f   BouncingBall.obj
 0001:0004fde0       ?virtDoUpdate@BouncingBall2@@UAEXH@Z 00450de0 f   BouncingBall.obj
 0001:000503d0       ??1BouncingBall1@@UAE@XZ   004513d0 f i BouncingBall.obj
 0001:000503f0       ??1BouncingBall2@@UAE@XZ   004513f0 f i BouncingBall.obj
 0001:00050410       ??_EBouncingBall1@@UAEPAXI@Z 00451410 f i BouncingBall.obj
 0001:00050410       ??_GBouncingBall1@@UAEPAXI@Z 00451410 f i BouncingBall.obj
 0001:00050450       ??_GBouncingBall2@@UAEPAXI@Z 00451450 f i BouncingBall.obj
 0001:00050450       ??_EBouncingBall2@@UAEPAXI@Z 00451450 f i BouncingBall.obj
 0001:00050490       ??_EBouncingBall@@UAEPAXI@Z 00451490 f i BouncingBall.obj
 0001:00050490       ??_GBouncingBall@@UAEPAXI@Z 00451490 f i BouncingBall.obj
 0001:000504d0       ?reverse@MovementPosition@@QAEXXZ 004514d0 f i BouncingBall.obj
 0001:00050560       ?virtMouseDown@BouncingBall@@UAEXHHH@Z 00451560 f i BouncingBall.obj
 0001:000505a0       ?virtSetupBackgroundBuffer@BouncingBallMain@@UAEXXZ 004515a0 f   BouncingBallMain.obj
 0001:00050f90       ?virtInitialiseObjects@BouncingBallMain@@UAEHXZ 00451f90 f   BouncingBallMain.obj
 0001:00051260       ?virtDrawStringsUnderneath@BouncingBallMain@@UAEXXZ 00452260 f   BouncingBallMain.obj
 0001:000512a0       ?virtMouseDown@BouncingBallMain@@UAEXHHH@Z 004522a0 f   BouncingBallMain.obj
 0001:000512e0       ?virtKeyDown@BouncingBallMain@@UAEXH@Z 004522e0 f   BouncingBallMain.obj
 0001:00051660       ??$?HDU?$char_traits@D@std@@V?$allocator@D@1@@std@@YA?AV?$basic_string@DU?$char_traits@D@std@@V?$allocator@D@2@@0@$$QAV10@ABV10@@Z 00452660 f i BouncingBallMain.obj
 0001:000516b0       ??0SimpleImage@@QAE@ABV0@@Z 004526b0 f i BouncingBallMain.obj
 0001:00051700       ?drawBackgroundLine@BaseEngine@@QAEXHHHHI@Z 00452700 f i BouncingBallMain.obj
 0001:00051770       ?drawBackgroundPolygon@BaseEngine@@QAEXNNNNNNNNI@Z 00452770 f i BouncingBallMain.obj
 0001:00051830       ?drawBackgroundPolygon@BaseEngine@@QAEXNNNNNNNNNNI@Z 00452830 f i BouncingBallMain.obj
 0001:00051900       ?drawBackgroundPolygon@BaseEngine@@QAEXNNNNNNNNNNNNI@Z 00452900 f i BouncingBallMain.obj
 0001:000519f0       ?drawBackgroundPolygon@BaseEngine@@QAEXNNNNNNNNNNNNNNI@Z 004529f0 f i BouncingBallMain.obj
 0001:00051af0       ?drawBackgroundPolygon@BaseEngine@@QAEXNNNNNNNNNNNNNNNNI@Z 00452af0 f i BouncingBallMain.obj
 0001:00051c30       ?drawBackgroundTriangle@BaseEngine@@QAEXHHHHHHI@Z 00452c30 f i BouncingBallMain.obj
 0001:00051cc0       ?drawBackgroundVerticalSidedRegion@BaseEngine@@QAEXNNNNNNI@Z 00452cc0 f i BouncingBallMain.obj
 0001:00051d50       ?getImageURL@RawImageData@@QAEABV?$basic_string@DU?$char_traits@D@std@@V?$allocator@D@2@@std@@XZ 00452d50 f i BouncingBallMain.obj
 0001:00051d70       ?getImageURL@SimpleImage@@QAE?BV?$basic_string@DU?$char_traits@D@std@@V?$allocator@D@2@@std@@XZ 00452d70 f i BouncingBallMain.obj
 0001:00051e00       ?resizeTo@ImageManager@@QAE?AVSimpleImage@@V2@HH@Z 00452e00 f i BouncingBallMain.obj
 0001:00052340       ?shrinkBy@ImageManager@@QAE?AVSimpleImage@@V2@H@Z 00453340 f i BouncingBallMain.obj
 0001:00052790       ??0Weapon@@QAE@PAVGameEngine@@HV?$basic_string@DU?$char_traits@D@std@@V?$allocator@D@2@@std@@1HHW4WepType@0@PBD@Z 00453790 f   Weapon.obj
 0001:00052860       ??1Weapon@@QAE@XZ          00453860 f   Weapon.obj
 0001:00052880       ?virtItemUse@Weapon@@UAEXXZ 00453880 f   Weapon.obj
 0001:00052890       ?attack@Weapon@@UAEXPAVCharObject@@0@Z 00453890 f   Weapon.obj
 0001:000528a0       ?attack@Bow@@UAEXPAVCharObject@@0@Z 004538a0 f   Weapon.obj
 0001:000529b0       ?virtInitialise@ZoomingDemo@@UAEHXZ 004539b0 f   ZoomingDemo.obj
 0001:00052a00       ?virtSetupBackgroundBuffer@ZoomingDemo@@UAEXXZ 00453a00 f   ZoomingDemo.obj
 0001:00052a20       ?virtInitialiseObjects@ZoomingDemo@@UAEHXZ 00453a20 f   ZoomingDemo.obj
 0001:00052be0       ?virtDrawStringsUnderneath@ZoomingDemo@@UAEXXZ 00453be0 f   ZoomingDemo.obj
 0001:00052c90       ?virtDrawStringsOnTop@ZoomingDemo@@UAEXXZ 00453c90 f   ZoomingDemo.obj
 0001:00052d10       ?virtMouseDown@ZoomingDemo@@UAEXHHH@Z 00453d10 f   ZoomingDemo.obj
 0001:00052d60       ?virtKeyDown@ZoomingDemo@@UAEXH@Z 00453d60 f   ZoomingDemo.obj
 0001:00052e60       ?virtMouseWheel@ZoomingDemo@@UAEXHHHH@Z 00453e60 f   ZoomingDemo.obj
 0001:00053060       ??0SimpleFlashingDragableImageObject@@QAE@HHPAVBaseEngine@@V?$basic_string@DU?$char_traits@D@std@@V?$allocator@D@2@@std@@1_N2@Z 00454060 f i ZoomingDemo.obj
 0001:00053260       ??1SimpleFlashingDragableImageObject@@UAE@XZ 00454260 f i ZoomingDemo.obj
 0001:000532a0       ??_GSimpleFlashingDragableImageObject@@UAEPAXI@Z 004542a0 f i ZoomingDemo.obj
 0001:000532a0       ??_ESimpleFlashingDragableImageObject@@UAEPAXI@Z 004542a0 f i ZoomingDemo.obj
 0001:000532e0       ?virtDoUpdate@SimpleFlashingDragableImageObject@@UAEXH@Z 004542e0 f i ZoomingDemo.obj
 0001:00053340       ?virtDraw@SimpleFlashingDragableImageObject@@UAEXXZ 00454340 f i ZoomingDemo.obj
 0001:00053430       ?virtMouseDown@SimpleFlashingDragableImageObject@@UAEXHHH@Z 00454430 f i ZoomingDemo.obj
 0001:000534a0       ?virtMouseMoved@SimpleFlashingDragableImageObject@@UAEXHH@Z 004544a0 f i ZoomingDemo.obj
 0001:00053500       ?virtMouseUp@SimpleFlashingDragableImageObject@@UAEXHHH@Z 00454500 f i ZoomingDemo.obj
 0001:00053520       ??0MazeDemoMain@@QAE@XZ    00454520 f   MazeDemoMain.obj
 0001:000535a0       ??1MazeDemoMain@@UAE@XZ    004545a0 f   MazeDemoMain.obj
 0001:000535e0       ?virtSetupBackgroundBuffer@MazeDemoMain@@UAEXXZ 004545e0 f   MazeDemoMain.obj
 0001:000537d0       ?virtInitialiseObjects@MazeDemoMain@@UAEHXZ 004547d0 f   MazeDemoMain.obj
 0001:000539d0       ?virtDrawStringsUnderneath@MazeDemoMain@@UAEXXZ 004549d0 f   MazeDemoMain.obj
 0001:00053a60       ?virtMouseDown@MazeDemoMain@@UAEXHHH@Z 00454a60 f   MazeDemoMain.obj
 0001:00053a70       ?virtKeyDown@MazeDemoMain@@UAEXH@Z 00454a70 f   MazeDemoMain.obj
 0001:00053cc0       ??0MazeDemoTileManager@@QAE@XZ 00454cc0 f i MazeDemoMain.obj
 0001:00053cf0       ??1MazeDemoTileManager@@UAE@XZ 00454cf0 f i MazeDemoMain.obj
 0001:00053d20       ??_EMazeDemoMain@@UAEPAXI@Z 00454d20 f i MazeDemoMain.obj
 0001:00053d20       ??_GMazeDemoMain@@UAEPAXI@Z 00454d20 f i MazeDemoMain.obj
 0001:00053d60       ??_GMazeDemoTileManager@@UAEPAXI@Z 00454d60 f i MazeDemoMain.obj
 0001:00053d60       ??_EMazeDemoTileManager@@UAEPAXI@Z 00454d60 f i MazeDemoMain.obj
 0001:00053da0       ??0MazeDemoObject@@QAE@PAVMazeDemoMain@@HH@Z 00454da0 f   MazeDemoObject.obj
 0001:00053e80       ??1MazeDemoObject@@UAE@XZ  00454e80 f   MazeDemoObject.obj
 0001:00053ea0       ?virtDraw@MazeDemoObject@@UAEXXZ 00454ea0 f   MazeDemoObject.obj
 0001:00053f50       ?virtDoUpdate@MazeDemoObject@@UAEXH@Z 00454f50 f   MazeDemoObject.obj
 0001:000545c0       ??_EMazeDemoObject@@UAEPAXI@Z 004555c0 f i MazeDemoObject.obj
 0001:000545c0       ??_GMazeDemoObject@@UAEPAXI@Z 004555c0 f i MazeDemoObject.obj
 0001:00054600       ?GetTileManager@MazeDemoMain@@QAEAAVMazeDemoTileManager@@XZ 00455600 f i MazeDemoObject.obj
 0001:00054620       ?checkCircles@CollisionDetection@@SA_NHHHHH@Z 00455620 f i MazeDemoObject.obj
 0001:00054680       ?getXDiffForDirection@MazeDemoObject@@QAEHH@Z 00455680 f i MazeDemoObject.obj
 0001:000546f0       ?getYDiffForDirection@MazeDemoObject@@QAEHH@Z 004556f0 f i MazeDemoObject.obj
 0001:00054760       ?virtDrawTileAt@MazeDemoTileManager@@UBEXPAVBaseEngine@@PAVDrawingSurface@@HHHH@Z 00455760 f   MazeDemoTileManager.obj
 0001:00054937       _SDL_FreeSurface           00455937 f   SDL2:SDL2.dll
 0001:0005493d       _SDL_GetError              0045593d f   SDL2:SDL2.dll
 0001:00054943       _SDL_RWFromFile            00455943 f   SDL2:SDL2.dll
 0001:00054949       _SDL_Init                  00455949 f   SDL2:SDL2.dll
 0001:0005494f       _SDL_CreateRGBSurface      0045594f f   SDL2:SDL2.dll
 0001:00054955       _SDL_UpperBlit             00455955 f   SDL2:SDL2.dll
 0001:0005495b       _SDL_LockSurface           0045595b f   SDL2:SDL2.dll
 0001:00054961       _SDL_UnlockSurface         00455961 f   SDL2:SDL2.dll
 0001:00054967       _SDL_FillRect              00455967 f   SDL2:SDL2.dll
 0001:0005496d       _SDL_CreateWindow          0045596d f   SDL2:SDL2.dll
 0001:00054973       _SDL_PollEvent             00455973 f   SDL2:SDL2.dll
 0001:00054979       _SDL_WaitEvent             00455979 f   SDL2:SDL2.dll
 0001:0005497f       _SDL_CreateRenderer        0045597f f   SDL2:SDL2.dll
 0001:00054985       _SDL_CreateTexture         00455985 f   SDL2:SDL2.dll
 0001:0005498b       _SDL_UpdateTexture         0045598b f   SDL2:SDL2.dll
 0001:00054991       _SDL_RenderCopy            00455991 f   SDL2:SDL2.dll
 0001:00054997       _SDL_RenderPresent         00455997 f   SDL2:SDL2.dll
 0001:0005499d       _SDL_GetTicks              0045599d f   SDL2:SDL2.dll
 0001:000549a3       _SDL_Quit                  004559a3 f   SDL2:SDL2.dll
 0001:000549a9       _SDL_SetClipRect           004559a9 f   SDL2:SDL2.dll
 0001:000549af       _SDL_UpperBlitScaled       004559af f   SDL2:SDL2.dll
 0001:000549b5       _IMG_Load                  004559b5 f   SDL2_image:SDL2_image.dll
 0001:000549bb       _TTF_RenderText_Solid      004559bb f   SDL2_ttf:SDL2_ttf.dll
 0001:000549c1       _TTF_Init                  004559c1 f   SDL2_ttf:SDL2_ttf.dll
 0001:000549c7       _TTF_Quit                  004559c7 f   SDL2_ttf:SDL2_ttf.dll
 0001:000549cd       _TTF_OpenFont              004559cd f   SDL2_ttf:SDL2_ttf.dll
 0001:000549d3       _TTF_CloseFont             004559d3 f   SDL2_ttf:SDL2_ttf.dll
 0001:000549d9       _Mix_Quit                  004559d9 f   SDL2_mixer:SDL2_mixer.dll
 0001:000549df       _Mix_OpenAudio             004559df f   SDL2_mixer:SDL2_mixer.dll
 0001:000549e5       _Mix_LoadWAV_RW            004559e5 f   SDL2_mixer:SDL2_mixer.dll
 0001:000549eb       _Mix_LoadMUS               004559eb f   SDL2_mixer:SDL2_mixer.dll
 0001:000549f1       _Mix_FreeChunk             004559f1 f   SDL2_mixer:SDL2_mixer.dll
 0001:000549f7       _Mix_FreeMusic             004559f7 f   SDL2_mixer:SDL2_mixer.dll
 0001:000549fd       _Mix_PlayChannelTimed      004559fd f   SDL2_mixer:SDL2_mixer.dll
 0001:00054a03       _Mix_PlayMusic             00455a03 f   SDL2_mixer:SDL2_mixer.dll
 0001:00054a09       _Mix_VolumeMusic           00455a09 f   SDL2_mixer:SDL2_mixer.dll
 0001:00054a0f       _Mix_HaltMusic             00455a0f f   SDL2_mixer:SDL2_mixer.dll
 0001:00054a15       _Mix_PlayingMusic          00455a15 f   SDL2_mixer:SDL2_mixer.dll
 0001:00054a1b       ??0_Lockit@std@@QAE@H@Z    00455a1b f   msvcprtd:MSVCP140D.dll
 0001:00054a21       ??1_Lockit@std@@QAE@XZ     00455a21 f   msvcprtd:MSVCP140D.dll
 0001:00054a27       ?_Xlength_error@std@@YAXPBD@Z 00455a27 f   msvcprtd:MSVCP140D.dll
 0001:00054a2d       ?_Xout_of_range@std@@YAXPBD@Z 00455a2d f   msvcprtd:MSVCP140D.dll
 0001:00054a33       ?_Xinvalid_argument@std@@YAXPBD@Z 00455a33 f   msvcprtd:MSVCP140D.dll
 0001:00054a39       ?uncaught_exception@std@@YA_NXZ 00455a39 f   msvcprtd:MSVCP140D.dll
 0001:00054a3f       ?good@ios_base@std@@QBE_NXZ 00455a3f f   msvcprtd:MSVCP140D.dll
 0001:00054a45       ?flags@ios_base@std@@QBEHXZ 00455a45 f   msvcprtd:MSVCP140D.dll
 0001:00054a4b       ?width@ios_base@std@@QBE_JXZ 00455a4b f   msvcprtd:MSVCP140D.dll
 0001:00054a51       ?width@ios_base@std@@QAE_J_J@Z 00455a51 f   msvcprtd:MSVCP140D.dll
 0001:00054a57       ?sputc@?$basic_streambuf@DU?$char_traits@D@std@@@std@@QAEHD@Z 00455a57 f   msvcprtd:MSVCP140D.dll
 0001:00054a5d       ?sputn@?$basic_streambuf@DU?$char_traits@D@std@@@std@@QAE_JPBD_J@Z 00455a5d f   msvcprtd:MSVCP140D.dll
 0001:00054a63       ?setstate@?$basic_ios@DU?$char_traits@D@std@@@std@@QAEXH_N@Z 00455a63 f   msvcprtd:MSVCP140D.dll
 0001:00054a69       ?tie@?$basic_ios@DU?$char_traits@D@std@@@std@@QBEPAV?$basic_ostream@DU?$char_traits@D@std@@@2@XZ 00455a69 f   msvcprtd:MSVCP140D.dll
 0001:00054a6f       ?rdbuf@?$basic_ios@DU?$char_traits@D@std@@@std@@QBEPAV?$basic_streambuf@DU?$char_traits@D@std@@@2@XZ 00455a6f f   msvcprtd:MSVCP140D.dll
 0001:00054a75       ?fill@?$basic_ios@DU?$char_traits@D@std@@@std@@QBEDXZ 00455a75 f   msvcprtd:MSVCP140D.dll
 0001:00054a7b       ?_Osfx@?$basic_ostream@DU?$char_traits@D@std@@@std@@QAEXXZ 00455a7b f   msvcprtd:MSVCP140D.dll
 0001:00054a81       ?flush@?$basic_ostream@DU?$char_traits@D@std@@@std@@QAEAAV12@XZ 00455a81 f   msvcprtd:MSVCP140D.dll
 0001:00054a87       ?widen@?$basic_ios@DU?$char_traits@D@std@@@std@@QBEDD@Z 00455a87 f   msvcprtd:MSVCP140D.dll
 0001:00054a8d       ??6?$basic_ostream@DU?$char_traits@D@std@@@std@@QAEAAV01@P6AAAV01@AAV01@@Z@Z 00455a8d f   msvcprtd:MSVCP140D.dll
 0001:00054a93       ?put@?$basic_ostream@DU?$char_traits@D@std@@@std@@QAEAAV12@D@Z 00455a93 f   msvcprtd:MSVCP140D.dll
 0001:00054a99       ??6?$basic_ostream@DU?$char_traits@D@std@@@std@@QAEAAV01@H@Z 00455a99 f   msvcprtd:MSVCP140D.dll
 0001:00054a9f       ?_Xbad_function_call@std@@YAXXZ 00455a9f f   msvcprtd:MSVCP140D.dll
 0001:00054ab0       ??0_Fac_node@std@@QAE@PAU01@PAV_Facet_base@1@@Z 00455ab0 f i msvcprtd:locale0_implib.obj
 0001:00054ae0       ??1_Fac_node@std@@QAE@XZ   00455ae0 f i msvcprtd:locale0_implib.obj
 0001:00054b60       ??1_Fac_tidy_reg_t@std@@QAE@XZ 00455b60 f i msvcprtd:locale0_implib.obj
 0001:00054bc0       ??2_Fac_node@std@@SAPAXI@Z 00455bc0 f i msvcprtd:locale0_implib.obj
 0001:00054c20       ??3_Fac_node@std@@SAXPAX@Z 00455c20 f i msvcprtd:locale0_implib.obj
 0001:00054c40       ??_G_Fac_node@std@@QAEPAXI@Z 00455c40 f i msvcprtd:locale0_implib.obj
 0001:00054ca0       ?_Facet_Register@std@@YAXPAV_Facet_base@1@@Z 00455ca0 f   msvcprtd:locale0_implib.obj
 0001:00054d50       ?__empty_global_delete@@YAXPAXIW4align_val_t@std@@@Z 00455d50 f i msvcprtd:locale0_implib.obj
 0001:00054d60       ?__empty_global_delete@@YAXPAXW4align_val_t@std@@@Z 00455d60 f i msvcprtd:locale0_implib.obj
 0001:00054d65       ??Bid@locale@std@@QAEIXZ   00455d65 f   msvcprtd:MSVCP140D.dll
 0001:00054d6b       ?_Getgloballocale@locale@std@@CAPAV_Locimp@12@XZ 00455d6b f   msvcprtd:MSVCP140D.dll
 0001:00054d71       ?always_noconv@codecvt_base@std@@QBE_NXZ 00455d71 f   msvcprtd:MSVCP140D.dll
 0001:00054d77       ?in@?$codecvt@DDU_Mbstatet@@@std@@QBEHAAU_Mbstatet@@PBD1AAPBDPAD3AAPAD@Z 00455d77 f   msvcprtd:MSVCP140D.dll
 0001:00054d7d       ?out@?$codecvt@DDU_Mbstatet@@@std@@QBEHAAU_Mbstatet@@PBD1AAPBDPAD3AAPAD@Z 00455d7d f   msvcprtd:MSVCP140D.dll
 0001:00054d83       ?unshift@?$codecvt@DDU_Mbstatet@@@std@@QBEHAAU_Mbstatet@@PAD1AAPAD@Z 00455d83 f   msvcprtd:MSVCP140D.dll
 0001:00054d89       ?_Getcat@?$codecvt@DDU_Mbstatet@@@std@@SAIPAPBVfacet@locale@2@PBV42@@Z 00455d89 f   msvcprtd:MSVCP140D.dll
 0001:00054d8f       ??Bios_base@std@@QBE_NXZ   00455d8f f   msvcprtd:MSVCP140D.dll
 0001:00054d95       ??7ios_base@std@@QBE_NXZ   00455d95 f   msvcprtd:MSVCP140D.dll
 0001:00054d9b       ??0?$basic_streambuf@DU?$char_traits@D@std@@@std@@IAE@XZ 00455d9b f   msvcprtd:MSVCP140D.dll
 0001:00054da1       ??1?$basic_streambuf@DU?$char_traits@D@std@@@std@@UAE@XZ 00455da1 f   msvcprtd:MSVCP140D.dll
 0001:00054da7       ?getloc@?$basic_streambuf@DU?$char_traits@D@std@@@std@@QBE?AVlocale@2@XZ 00455da7 f   msvcprtd:MSVCP140D.dll
 0001:00054dad       ?eback@?$basic_streambuf@DU?$char_traits@D@std@@@std@@IBEPADXZ 00455dad f   msvcprtd:MSVCP140D.dll
 0001:00054db3       ?gptr@?$basic_streambuf@DU?$char_traits@D@std@@@std@@IBEPADXZ 00455db3 f   msvcprtd:MSVCP140D.dll
 0001:00054db9       ?pptr@?$basic_streambuf@DU?$char_traits@D@std@@@std@@IBEPADXZ 00455db9 f   msvcprtd:MSVCP140D.dll
 0001:00054dbf       ?egptr@?$basic_streambuf@DU?$char_traits@D@std@@@std@@IBEPADXZ 00455dbf f   msvcprtd:MSVCP140D.dll
 0001:00054dc5       ?gbump@?$basic_streambuf@DU?$char_traits@D@std@@@std@@IAEXH@Z 00455dc5 f   msvcprtd:MSVCP140D.dll
 0001:00054dcb       ?setg@?$basic_streambuf@DU?$char_traits@D@std@@@std@@IAEXPAD00@Z 00455dcb f   msvcprtd:MSVCP140D.dll
 0001:00054dd1       ?epptr@?$basic_streambuf@DU?$char_traits@D@std@@@std@@IBEPADXZ 00455dd1 f   msvcprtd:MSVCP140D.dll
 0001:00054dd7       ?_Gndec@?$basic_streambuf@DU?$char_traits@D@std@@@std@@IAEPADXZ 00455dd7 f   msvcprtd:MSVCP140D.dll
 0001:00054ddd       ?_Gninc@?$basic_streambuf@DU?$char_traits@D@std@@@std@@IAEPADXZ 00455ddd f   msvcprtd:MSVCP140D.dll
 0001:00054de3       ?_Gnavail@?$basic_streambuf@DU?$char_traits@D@std@@@std@@IBE_JXZ 00455de3 f   msvcprtd:MSVCP140D.dll
 0001:00054de9       ?pbump@?$basic_streambuf@DU?$char_traits@D@std@@@std@@IAEXH@Z 00455de9 f   msvcprtd:MSVCP140D.dll
 0001:00054def       ?_Pninc@?$basic_streambuf@DU?$char_traits@D@std@@@std@@IAEPADXZ 00455def f   msvcprtd:MSVCP140D.dll
 0001:00054df5       ?_Pnavail@?$basic_streambuf@DU?$char_traits@D@std@@@std@@IBE_JXZ 00455df5 f   msvcprtd:MSVCP140D.dll
 0001:00054dfb       ?_Init@?$basic_streambuf@DU?$char_traits@D@std@@@std@@IAEXXZ 00455dfb f   msvcprtd:MSVCP140D.dll
 0001:00054e01       ?_Init@?$basic_streambuf@DU?$char_traits@D@std@@@std@@IAEXPAPAD0PAH001@Z 00455e01 f   msvcprtd:MSVCP140D.dll
 0001:00054e07       ?xsgetn@?$basic_streambuf@DU?$char_traits@D@std@@@std@@MAE_JPAD_J@Z 00455e07 f   msvcprtd:MSVCP140D.dll
 0001:00054e0d       ?xsputn@?$basic_streambuf@DU?$char_traits@D@std@@@std@@MAE_JPBD_J@Z 00455e0d f   msvcprtd:MSVCP140D.dll
 0001:00054e13       ??1?$basic_ios@DU?$char_traits@D@std@@@std@@UAE@XZ 00455e13 f   msvcprtd:MSVCP140D.dll
 0001:00054e19       ?clear@?$basic_ios@DU?$char_traits@D@std@@@std@@QAEXH_N@Z 00455e19 f   msvcprtd:MSVCP140D.dll
 0001:00054e1f       ??0?$basic_ios@DU?$char_traits@D@std@@@std@@IAE@XZ 00455e1f f   msvcprtd:MSVCP140D.dll
 0001:00054e25       ??0?$basic_ostream@DU?$char_traits@D@std@@@std@@QAE@PAV?$basic_streambuf@DU?$char_traits@D@std@@@1@_N@Z 00455e25 f   msvcprtd:MSVCP140D.dll
 0001:00054e2b       ??1?$basic_ostream@DU?$char_traits@D@std@@@std@@UAE@XZ 00455e2b f   msvcprtd:MSVCP140D.dll
 0001:00054e31       ??0?$basic_istream@DU?$char_traits@D@std@@@std@@QAE@PAV?$basic_streambuf@DU?$char_traits@D@std@@@1@_N@Z 00455e31 f   msvcprtd:MSVCP140D.dll
 0001:00054e37       ??1?$basic_istream@DU?$char_traits@D@std@@@std@@UAE@XZ 00455e37 f   msvcprtd:MSVCP140D.dll
 0001:00054e3d       ?get@?$basic_istream@DU?$char_traits@D@std@@@std@@QAEAAV12@AAD@Z 00455e3d f   msvcprtd:MSVCP140D.dll
 0001:00054e43       ?_Fiopen@std@@YAPAU_iobuf@@PBDHH@Z 00455e43 f   msvcprtd:MSVCP140D.dll
 0001:00054e49       ?showmanyc@?$basic_streambuf@DU?$char_traits@D@std@@@std@@MAE_JXZ 00455e49 f   msvcprtd:MSVCP140D.dll
 0001:00054e4f       ?_Xbad_alloc@std@@YAXXZ    00455e4f f   msvcprtd:MSVCP140D.dll
 0001:00055230       ?configure_argv@__scrt_narrow_argv_policy@@SAHXZ 00456230 f i MSVCRTD:exe_main.obj
 0001:00055250       ?initialize_environment@__scrt_narrow_environment_policy@@SAHXZ 00456250 f i MSVCRTD:exe_main.obj
 0001:000552b0       ?set_app_type@__scrt_main_policy@@SAXXZ 004562b0 f i MSVCRTD:exe_main.obj
 0001:000552d0       ?set_commode@__scrt_file_policy@@SAXXZ 004562d0 f i MSVCRTD:exe_main.obj
 0001:000552f0       ?set_fmode@__scrt_file_policy@@SAXXZ 004562f0 f i MSVCRTD:exe_main.obj
 0001:00055310       _mainCRTStartup            00456310 f   MSVCRTD:exe_main.obj
 0001:00055320       ??3@YAXPAXI@Z              00456320 f   MSVCRTD:delete_scalar_size.obj
 0001:00055340       @__security_check_cookie@4 00456340 f   MSVCRTD:secchk.obj
 0001:00055360       ??1type_info@@UAE@XZ       00456360 f   MSVCRTD:std_type_info_static.obj
 0001:00055380       ??_Etype_info@@UAEPAXI@Z   00456380 f i MSVCRTD:std_type_info_static.obj
 0001:00055380       ??_Gtype_info@@UAEPAXI@Z   00456380 f i MSVCRTD:std_type_info_static.obj
 0001:000553c0       ??2@YAPAXI@Z               004563c0 f   MSVCRTD:new_scalar.obj
 0001:00055420       ??_U@YAPAXI@Z              00456420 f   MSVCRTD:new_array.obj
 0001:00055440       ??_V@YAXPAX@Z              00456440 f   MSVCRTD:delete_array.obj
 0001:000555a0       _NtCurrentTeb              004565a0 f i MSVCRTD:utility.obj
 0001:000555b0       ___scrt_acquire_startup_lock 004565b0 f   MSVCRTD:utility.obj
 0001:00055610       ___scrt_dllmain_after_initialize_c 00456610 f   MSVCRTD:utility.obj
 0001:00055650       ___scrt_dllmain_before_initialize_c 00456650 f   MSVCRTD:utility.obj
 0001:00055680       ___scrt_dllmain_crt_thread_attach 00456680 f   MSVCRTD:utility.obj
 0001:000556c0       ___scrt_dllmain_crt_thread_detach 004566c0 f   MSVCRTD:utility.obj
 0001:000556e0       ___scrt_dllmain_exception_filter 004566e0 f   MSVCRTD:utility.obj
 0001:00055740       ___scrt_dllmain_uninitialize_c 00456740 f   MSVCRTD:utility.obj
 0001:00055780       ___scrt_dllmain_uninitialize_critical 00456780 f   MSVCRTD:utility.obj
 0001:000557a0       ___scrt_initialize_crt     004567a0 f   MSVCRTD:utility.obj
 0001:00055800       ___scrt_initialize_onexit_tables 00456800 f   MSVCRTD:utility.obj
 0001:00055910       ___scrt_is_nonwritable_in_current_image 00456910 f   MSVCRTD:utility.obj
 0001:00055a90       ___scrt_release_startup_lock 00456a90 f   MSVCRTD:utility.obj
 0001:00055ac0       ___scrt_uninitialize_crt   00456ac0 f   MSVCRTD:utility.obj
 0001:00055b10       __onexit                   00456b10 f   MSVCRTD:utility.obj
 0001:00055b90       _at_quick_exit             00456b90 f   MSVCRTD:utility.obj
 0001:00055be0       _atexit                    00456be0 f   MSVCRTD:utility.obj
 0001:00055c20       ??_M@YGXPAXIHP6EX0@Z@Z     00456c20 f   MSVCRTD:ehvecdtr.obj
 0001:00055c50       ??_M@YGXPAXIIP6EX0@Z@Z     00456c50 f   MSVCRTD:ehvecdtr.obj
 0001:00055db0       ?__ArrayUnwind@@YGXPAXIIP6EX0@Z@Z 00456db0 f   MSVCRTD:ehvecdtr.obj
 0001:00055e90       @_guard_check_icall_nop@4  00456e90 f i MSVCRTD:guard_support.obj
 0001:00055ea0       _ReadNoFence               00456ea0 f i MSVCRTD:guard_support.obj
 0001:00055ec0       _ReadPointerNoFence        00456ec0 f i MSVCRTD:guard_support.obj
 0001:00055ee0       __guard_icall_checks_enforced 00456ee0 f i MSVCRTD:guard_support.obj
 0001:00055fb0       ___security_init_cookie    00456fb0 f   MSVCRTD:gs_support.obj
 0001:00056050       __matherr                  00457050 f   MSVCRTD:matherr.obj
 0001:00056060       __get_startup_argv_mode    00457060 f   MSVCRTD:argv_mode.obj
 0001:00056070       __get_startup_commit_mode  00457070 f   MSVCRTD:commit_mode.obj
 0001:00056080       __get_startup_file_mode    00457080 f   MSVCRTD:file_mode.obj
 0001:00056090       __get_startup_new_mode     00457090 f   MSVCRTD:new_mode.obj
 0001:000560a0       __get_startup_thread_locale_mode 004570a0 f   MSVCRTD:thread_locale.obj
 0001:000560b0       ?__scrt_initialize_type_info@@YAXXZ 004570b0 f   MSVCRTD:tncleanup.obj
 0001:000560d0       ?__scrt_uninitialize_type_info@@YAXXZ 004570d0 f   MSVCRTD:tncleanup.obj
 0001:000560f0       __should_initialize_environment 004570f0 f   MSVCRTD:env_mode.obj
 0001:00056100       __initialize_default_precision 00457100 f   MSVCRTD:default_precision.obj
 0001:00056130       __initialize_invalid_parameter_handler 00457130 f   MSVCRTD:invalid_parameter_handler.obj
 0001:00056140       __initialize_denormal_control 00457140 f   MSVCRTD:denormal_control.obj
 0001:00056150       ___local_stdio_scanf_options 00457150 f i MSVCRTD:default_local_stdio_options.obj
 0001:00056160       ___scrt_initialize_default_local_stdio_options 00457160 f   MSVCRTD:default_local_stdio_options.obj
 0001:000561b0       ___scrt_is_user_matherr_present 004571b0 f   MSVCRTD:matherr_detection.obj
 0001:000561e0       ___scrt_get_dyn_tls_init_callback 004571e0 f   MSVCRTD:dyn_tls_init.obj
 0001:000561f0       ___scrt_get_dyn_tls_dtor_callback 004571f0 f   MSVCRTD:dyn_tls_dtor.obj
 0001:00056200       ___scrt_fastfail           00457200 f   MSVCRTD:utility_desktop.obj
 0001:00056390       ___scrt_get_show_window_mode 00457390 f   MSVCRTD:utility_desktop.obj
 0001:000563e0       ___scrt_initialize_mta     004573e0 f   MSVCRTD:utility_desktop.obj
 0001:000563f0       ___scrt_initialize_winrt   004573f0 f   MSVCRTD:utility_desktop.obj
 0001:00056400       ___scrt_is_managed_app     00457400 f   MSVCRTD:utility_desktop.obj
 0001:000564b0       ___scrt_set_unhandled_exception_filter 004574b0 f   MSVCRTD:utility_desktop.obj
 0001:000564d0       ___scrt_exe_initialize_mta 004574d0 f   MSVCRTD:utility_desktop.obj
 0001:000564d0       ___scrt_stub_for_initialize_mta 004574d0 f   MSVCRTD:utility_desktop.obj
 0001:000564e0       ___scrt_unhandled_exception_filter@4 004574e0 f   MSVCRTD:utility_desktop.obj
 0001:00056580       __crt_debugger_hook        00457580 f   MSVCRTD:utility_desktop.obj
 0001:000565a0       __RTC_Initialize           004575a0 f   MSVCRTD:initsect.obj
 0001:000565e0       __RTC_Terminate            004575e0 f   MSVCRTD:initsect.obj
 0001:00056620       __except_handler4          00457620 f   MSVCRTD:chandler4gs.obj
 0001:00056670       ??3@YAXPAX@Z               00457670 f   MSVCRTD:delete_scalar.obj
 0001:00056690       ___raise_securityfailure   00457690 f   MSVCRTD:gs_report.obj
 0001:000566d0       ___report_gsfailure        004576d0 f   MSVCRTD:gs_report.obj
 0001:00056820       ___report_rangecheckfailure 00457820 f   MSVCRTD:gs_report.obj
 0001:00056830       ___report_securityfailure  00457830 f   MSVCRTD:gs_report.obj
 0001:00056940       ___report_securityfailureEx 00457940 f   MSVCRTD:gs_report.obj
 0001:00056ab0       ??0bad_alloc@std@@QAE@XZ   00457ab0 f i MSVCRTD:throw_bad_alloc.obj
 0001:00056ae0       ?__scrt_throw_std_bad_alloc@@YAXXZ 00457ae0 f   MSVCRTD:throw_bad_alloc.obj
 0001:00056b10       ?__scrt_throw_std_bad_array_new_length@@YAXXZ 00457b10 f   MSVCRTD:throw_bad_alloc.obj
 0001:00056b40       ___isa_available_init      00457b40 f   MSVCRTD:cpu_disp.obj
 0001:00056f40       ___scrt_is_ucrt_dll_in_use 00457f40 f   MSVCRTD:ucrt_detection.obj
 0001:00056f6d       __purecall                 00457f6d f   vcruntimed:VCRUNTIME140D.dll
 0001:00056f73       ___CxxFrameHandler3        00457f73 f   vcruntimed:VCRUNTIME140D.dll
 0001:00056f79       _memcmp                    00457f79 f   vcruntimed:VCRUNTIME140D.dll
 0001:00056f7f       _memcpy                    00457f7f f   vcruntimed:VCRUNTIME140D.dll
 0001:00056f85       _memmove                   00457f85 f   vcruntimed:VCRUNTIME140D.dll
 0001:00056f8b       ___std_exception_copy      00457f8b f   vcruntimed:VCRUNTIME140D.dll
 0001:00056f91       ___std_exception_destroy   00457f91 f   vcruntimed:VCRUNTIME140D.dll
 0001:00056f97       __CxxThrowException@8      00457f97 f   vcruntimed:VCRUNTIME140D.dll
 0001:00056f9d       _memset                    00457f9d f   vcruntimed:VCRUNTIME140D.dll
 0001:00056fa3       ___RTDynamicCast           00457fa3 f   vcruntimed:VCRUNTIME140D.dll
 0001:00056fa9       _memchr                    00457fa9 f   vcruntimed:VCRUNTIME140D.dll
 0001:00056faf       ___current_exception       00457faf f   vcruntimed:VCRUNTIME140D.dll
 0001:00056fb5       ___current_exception_context 00457fb5 f   vcruntimed:VCRUNTIME140D.dll
 0001:00056fbb       ___std_type_info_destroy_list 00457fbb f   vcruntimed:VCRUNTIME140D.dll
 0001:00056fc1       __except_handler4_common   00457fc1 f   vcruntimed:VCRUNTIME140D.dll
 0001:00056fc7       __invalid_parameter        00457fc7 f   ucrtd:ucrtbased.dll
 0001:00056fcd       __CrtDbgReport             00457fcd f   ucrtd:ucrtbased.dll
 0001:00056fd3       ___acrt_iob_func           00457fd3 f   ucrtd:ucrtbased.dll
 0001:00056fd9       ___stdio_common_vfprintf   00457fd9 f   ucrtd:ucrtbased.dll
 0001:00056fdf       _strlen                    00457fdf f   ucrtd:ucrtbased.dll
 0001:00056fe5       __errno                    00457fe5 f   ucrtd:ucrtbased.dll
 0001:00056feb       _strtol                    00457feb f   ucrtd:ucrtbased.dll
 0001:00056ff1       _rand                      00457ff1 f   ucrtd:ucrtbased.dll
 0001:00056ff7       _atan                      00457ff7 f   ucrtd:ucrtbased.dll
 0001:00056ffd       _cos                       00457ffd f   ucrtd:ucrtbased.dll
 0001:00057003       _sin                       00458003 f   ucrtd:ucrtbased.dll
 0001:00057009       _abs                       00458009 f   ucrtd:ucrtbased.dll
 0001:0005700f       _round                     0045800f f   ucrtd:ucrtbased.dll
 0001:00057015       ___stdio_common_vsprintf   00458015 f   ucrtd:ucrtbased.dll
 0001:0005701b       _atoi                      0045801b f   ucrtd:ucrtbased.dll
 0001:00057021       _fclose                    00458021 f   ucrtd:ucrtbased.dll
 0001:00057027       _fgets                     00458027 f   ucrtd:ucrtbased.dll
 0001:0005702d       _fopen                     0045802d f   ucrtd:ucrtbased.dll
 0001:00057033       __CrtDumpMemoryLeaks       00458033 f   ucrtd:ucrtbased.dll
 0001:00057039       _srand                     00458039 f   ucrtd:ucrtbased.dll
 0001:0005703f       __time64                   0045803f f   ucrtd:ucrtbased.dll
 0001:00057045       _puts                      00458045 f   ucrtd:ucrtbased.dll
 0001:0005704b       _strcmp                    0045804b f   ucrtd:ucrtbased.dll
 0001:00057051       _strcpy                    00458051 f   ucrtd:ucrtbased.dll
 0001:00057057       _acos                      00458057 f   ucrtd:ucrtbased.dll
 0001:0005705d       _sqrt                      0045805d f   ucrtd:ucrtbased.dll
 0001:00057063       _floor                     00458063 f   ucrtd:ucrtbased.dll
 0001:00057069       _exit                      00458069 f   ucrtd:ucrtbased.dll
 0001:0005706f       __get_stream_buffer_pointers 0045806f f   ucrtd:ucrtbased.dll
 0001:00057075       _fflush                    00458075 f   ucrtd:ucrtbased.dll
 0001:0005707b       _fgetc                     0045807b f   ucrtd:ucrtbased.dll
 0001:00057081       _fgetpos                   00458081 f   ucrtd:ucrtbased.dll
 0001:00057087       _fputc                     00458087 f   ucrtd:ucrtbased.dll
 0001:0005708d       _fread                     0045808d f   ucrtd:ucrtbased.dll
 0001:00057093       _fsetpos                   00458093 f   ucrtd:ucrtbased.dll
 0001:00057099       __fseeki64                 00458099 f   ucrtd:ucrtbased.dll
 0001:0005709f       _fwrite                    0045809f f   ucrtd:ucrtbased.dll
 0001:000570a5       _setvbuf                   004580a5 f   ucrtd:ucrtbased.dll
 0001:000570ab       _ungetc                    004580ab f   ucrtd:ucrtbased.dll
 0001:000570b1       __lock_file                004580b1 f   ucrtd:ucrtbased.dll
 0001:000570b7       __unlock_file              004580b7 f   ucrtd:ucrtbased.dll
 0001:000570bd       _tolower                   004580bd f   ucrtd:ucrtbased.dll
 0001:000570c3       __free_dbg                 004580c3 f   ucrtd:ucrtbased.dll
 0001:000570c9       __malloc_dbg               004580c9 f   ucrtd:ucrtbased.dll
 0001:000570cf       __seh_filter_exe           004580cf f   ucrtd:ucrtbased.dll
 0001:000570d5       __set_app_type             004580d5 f   ucrtd:ucrtbased.dll
 0001:000570db       ___setusermatherr          004580db f   ucrtd:ucrtbased.dll
 0001:000570e1       __configure_narrow_argv    004580e1 f   ucrtd:ucrtbased.dll
 0001:000570e7       __initialize_narrow_environment 004580e7 f   ucrtd:ucrtbased.dll
 0001:000570ed       __get_initial_narrow_environment 004580ed f   ucrtd:ucrtbased.dll
 0001:000570f3       __initterm                 004580f3 f   ucrtd:ucrtbased.dll
 0001:000570f9       __initterm_e               004580f9 f   ucrtd:ucrtbased.dll
 0001:000570ff       __exit                     004580ff f   ucrtd:ucrtbased.dll
 0001:00057105       __set_fmode                00458105 f   ucrtd:ucrtbased.dll
 0001:0005710b       ___p___argc                0045810b f   ucrtd:ucrtbased.dll
 0001:00057111       ___p___argv                00458111 f   ucrtd:ucrtbased.dll
 0001:00057117       __cexit                    00458117 f   ucrtd:ucrtbased.dll
 0001:0005711d       __c_exit                   0045811d f   ucrtd:ucrtbased.dll
 0001:00057123       __register_thread_local_exe_atexit_callback 00458123 f   ucrtd:ucrtbased.dll
 0001:00057129       __configthreadlocale       00458129 f   ucrtd:ucrtbased.dll
 0001:0005712f       __set_new_mode             0045812f f   ucrtd:ucrtbased.dll
 0001:00057135       ___p__commode              00458135 f   ucrtd:ucrtbased.dll
 0001:0005713b       __callnewh                 0045813b f   ucrtd:ucrtbased.dll
 0001:00057141       _malloc                    00458141 f   ucrtd:ucrtbased.dll
 0001:00057147       __seh_filter_dll           00458147 f   ucrtd:ucrtbased.dll
 0001:0005714d       __initialize_onexit_table  0045814d f   ucrtd:ucrtbased.dll
 0001:00057153       __register_onexit_function 00458153 f   ucrtd:ucrtbased.dll
 0001:00057159       __execute_onexit_table     00458159 f   ucrtd:ucrtbased.dll
 0001:0005715f       __crt_atexit               0045815f f   ucrtd:ucrtbased.dll
 0001:00057165       __crt_at_quick_exit        00458165 f   ucrtd:ucrtbased.dll
 0001:0005716b       _terminate                 0045816b f   ucrtd:ucrtbased.dll
 0001:00057171       __controlfp_s              00458171 f   ucrtd:ucrtbased.dll
 0001:000572c0       _WinMain@16                004582c0 f   SDL2main:SDL_windows_main.obj
 0001:000572d0       _main                      004582d0 f   SDL2main:SDL_windows_main.obj
 0001:00057420       _wmain                     00458420 f   SDL2main:SDL_windows_main.obj
 0001:00057425       _QueryPerformanceCounter@4 00458425 f   kernel32:KERNEL32.dll
 0001:0005742b       _GetCurrentProcessId@0     0045842b f   kernel32:KERNEL32.dll
 0001:00057431       _GetCurrentThreadId@0      00458431 f   kernel32:KERNEL32.dll
 0001:00057437       _GetSystemTimeAsFileTime@4 00458437 f   kernel32:KERNEL32.dll
 0001:0005743d       _InitializeSListHead@4     0045843d f   kernel32:KERNEL32.dll
 0001:00057443       _IsDebuggerPresent@0       00458443 f   kernel32:KERNEL32.dll
 0001:00057449       _UnhandledExceptionFilter@4 00458449 f   kernel32:KERNEL32.dll
 0001:0005744f       _SetUnhandledExceptionFilter@4 0045844f f   kernel32:KERNEL32.dll
 0001:00057455       _GetStartupInfoW@4         00458455 f   kernel32:KERNEL32.dll
 0001:0005745b       _IsProcessorFeaturePresent@4 0045845b f   kernel32:KERNEL32.dll
 0001:00057461       _GetModuleHandleW@4        00458461 f   kernel32:KERNEL32.dll
 0001:00057467       _GetCurrentProcess@0       00458467 f   kernel32:KERNEL32.dll
 0001:0005746d       _TerminateProcess@8        0045846d f   kernel32:KERNEL32.dll
 0001:00057473       _GetCommandLineW@0         00458473 f   kernel32:KERNEL32.dll
 0001:00057479       _VirtualAlloc@16           00458479 f   kernel32:KERNEL32.dll
 0001:0005747f       _VirtualFree@12            0045847f f   kernel32:KERNEL32.dll
 0001:00057485       _WideCharToMultiByte@32    00458485 f   kernel32:KERNEL32.dll
 0001:0005748b       _SDL_SetMainReady          0045848b f   SDL2:SDL2.dll
 0001:00057491       _SDL_ShowSimpleMessageBox  00458491 f   SDL2:SDL2.dll
 0001:000574a0       ___scrt_stub_for_acrt_initialize 004584a0 f   MSVCRTD:ucrt_stubs.obj
 0001:000574a0       ___acrt_initialize         004584a0 f   MSVCRTD:ucrt_stubs.obj
 0001:000574a0       ___vcrt_initialize         004584a0 f   MSVCRTD:ucrt_stubs.obj
 0001:000574b0       ___scrt_stub_for_acrt_thread_attach 004584b0 f   MSVCRTD:ucrt_stubs.obj
 0001:000574b0       ___acrt_thread_attach      004584b0 f   MSVCRTD:ucrt_stubs.obj
 0001:000574b0       ___vcrt_thread_attach      004584b0 f   MSVCRTD:ucrt_stubs.obj
 0001:000574c0       ___acrt_thread_detach      004584c0 f   MSVCRTD:ucrt_stubs.obj
 0001:000574c0       ___scrt_stub_for_acrt_thread_detach 004584c0 f   MSVCRTD:ucrt_stubs.obj
 0001:000574c0       ___vcrt_thread_detach      004584c0 f   MSVCRTD:ucrt_stubs.obj
 0001:000574d0       ___scrt_stub_for_acrt_uninitialize 004584d0 f   MSVCRTD:ucrt_stubs.obj
 0001:000574d0       ___vcrt_uninitialize       004584d0 f   MSVCRTD:ucrt_stubs.obj
 0001:000574d0       ___acrt_uninitialize       004584d0 f   MSVCRTD:ucrt_stubs.obj
 0001:000574e0       ___acrt_uninitialize_critical 004584e0 f   MSVCRTD:ucrt_stubs.obj
 0001:000574e0       ___vcrt_uninitialize_critical 004584e0 f   MSVCRTD:ucrt_stubs.obj
 0001:000574e0       ___scrt_stub_for_acrt_uninitialize_critical 004584e0 f   MSVCRTD:ucrt_stubs.obj
 0001:000574f0       ___scrt_stub_for_is_c_termination_complete 004584f0 f   MSVCRTD:ucrt_stubs.obj
 0001:000574f0       __is_c_termination_complete 004584f0 f   MSVCRTD:ucrt_stubs.obj
 0001:00057500       __filter_x86_sse2_floating_point_exception_default 00458500 f   MSVCRTD:x86_exception_filter.obj
 0001:00057500       __filter_x86_sse2_floating_point_exception 00458500 f   MSVCRTD:x86_exception_filter.obj
 0002:00000000       ___xc_a                    00462000     MSVCRTD:initializers.obj
 0002:00000410       ___xc_z                    00462410     MSVCRTD:initializers.obj
 0002:00000514       ___xi_a                    00462514     MSVCRTD:initializers.obj
 0002:00000820       ___xi_z                    00462820     MSVCRTD:initializers.obj
 0002:00000924       ___xp_a                    00462924     MSVCRTD:initializers.obj
 0002:00000a28       ___xp_z                    00462a28     MSVCRTD:initializers.obj
 0002:00000b2c       ___xt_a                    00462b2c     MSVCRTD:initializers.obj
 0002:00000c30       ___xt_z                    00462c30     MSVCRTD:initializers.obj
 0002:00001138       __real@400921fb53c8d4f1    00463138     ProjectileObject.obj
 0002:00001204       ??_7CoordinateMapping@@6B@ 00463204     AnimatedObject.obj
 0002:00001214       ??_7CoordinateMappingFlipSheet@@6B@ 00463214     AnimatedObject.obj
 0002:00001224       ??_7AnimatedObject@@6B@    00463224     AnimatedObject.obj
 0002:00001268       __real@3fe0000000000000    00463268     AnimatedObject.obj
 0002:00001568       ??_7exception@std@@6B@     00463568     AudioPlayer.obj
 0002:00001574       ??_C@_0BC@EOODALEL@Unknown?5exception@ 00463574     AudioPlayer.obj
 0002:00001590       ??_7bad_alloc@std@@6B@     00463590     AudioPlayer.obj
 0002:000015a0       ??_7bad_array_new_length@std@@6B@ 004635a0     AudioPlayer.obj
 0002:000015ac       ??_C@_0BF@KINCDENJ@bad?5array?5new?5length@ 004635ac     AudioPlayer.obj
 0002:000015c8       ??_C@_0BB@FCMFBGOM@invalid?5argument@ 004635c8     AudioPlayer.obj
 0002:000015dc       ??_C@_02DKCKIIND@?$CFs@    004635dc     AudioPlayer.obj
 0002:000015e0       ??_C@_0GI@JKOMEBKC@C?3?2Program?5Files?5?$CIx86?$CJ?2Microsof@ 004635e0     AudioPlayer.obj
 0002:00001660       ??_C@_1NA@OANNLGA@?$AAC?$AA?3?$AA?2?$AAP?$AAr?$AAo?$AAg?$AAr?$AAa?$AAm?$AA?5?$AAF?$AAi?$AAl?$AAe@ 00463660     AudioPlayer.obj
 0002:00001760       ??_C@_1EK@NIFDJFDG@?$AAs?$AAt?$AAd?$AA?3?$AA?3?$AA_?$AAA?$AAd?$AAj?$AAu?$AAs?$AAt?$AA_?$AAm?$AAa@ 00463760     AudioPlayer.obj
 0002:000017b8       ??_C@_1CG@JNLFBNGN@?$AA?$CC?$AAi?$AAn?$AAv?$AAa?$AAl?$AAi?$AAd?$AA?5?$AAa?$AAr?$AAg?$AAu?$AAm?$AAe@ 004637b8     AudioPlayer.obj
 0002:000017e8       ??_C@_0BJ@LFDBABJJ@ITERATOR?5LIST?5CORRUPTED?$CB@ 004637e8     AudioPlayer.obj
 0002:00001808       ??_C@_1EE@KLDMFDFL@?$AAs?$AAt?$AAd?$AA?3?$AA?3?$AA_?$AAI?$AAt?$AAe?$AAr?$AAa?$AAt?$AAo?$AAr?$AA_@ 00463808     AudioPlayer.obj
 0002:0000185c       ??_C@_1DG@PLBPCAEM@?$AA?$CC?$AAI?$AAT?$AAE?$AAR?$AAA?$AAT?$AAO?$AAR?$AA?5?$AAL?$AAI?$AAS?$AAT?$AA?5@ 0046385c     AudioPlayer.obj
 0002:0000189c       ??_C@_0BB@GCADKGJO@map?1set?5too?5long@ 0046389c     AudioPlayer.obj
 0002:000018b0       ??_C@_0BG@BBKNOMOH@invalid?5map?$DMK?0?5T?$DO?5key@ 004638b0     AudioPlayer.obj
 0002:000018d0       ??_C@_0GJ@PLLJCKNF@C?3?2Program?5Files?5?$CIx86?$CJ?2Microsof@ 004638d0     AudioPlayer.obj
 0002:00001950       ??_C@_0BP@OLDKBHLM@map?1set?5iterators?5incompatible@ 00463950     AudioPlayer.obj
 0002:00001978       ??_C@_0GG@KLEOICHM@C?3?2Program?5Files?5?$CIx86?$CJ?2Microsof@ 00463978     AudioPlayer.obj
 0002:000019f8       ??_C@_1MM@IHGBDNJN@?$AAC?$AA?3?$AA?2?$AAP?$AAr?$AAo?$AAg?$AAr?$AAa?$AAm?$AA?5?$AAF?$AAi?$AAl?$AAe@ 004639f8     AudioPlayer.obj
 0002:00001af0       ??_C@_1BMM@KADEEBMA@?$AAs?$AAt?$AAd?$AA?3?$AA?3?$AA_?$AAT?$AAr?$AAe?$AAe?$AA_?$AAc?$AAo?$AAn?$AAs@ 00463af0     AudioPlayer.obj
 0002:00001d18       ??_C@_1EC@JLIDLCDH@?$AA?$CC?$AAm?$AAa?$AAp?$AA?1?$AAs?$AAe?$AAt?$AA?5?$AAi?$AAt?$AAe?$AAr?$AAa?$AAt@ 00463d18     AudioPlayer.obj
 0002:00001d68       ??_C@_0DE@DMNPKCGM@cannot?5increment?5value?9initiali@ 00463d68     AudioPlayer.obj
 0002:00001da8       ??_C@_1BMM@MJKIAF@?$AAs?$AAt?$AAd?$AA?3?$AA?3?$AA_?$AAT?$AAr?$AAe?$AAe?$AA_?$AAc?$AAo?$AAn?$AAs@ 00463da8     AudioPlayer.obj
 0002:00001fd0       ??_C@_1GM@BJMCGEGI@?$AA?$CC?$AAc?$AAa?$AAn?$AAn?$AAo?$AAt?$AA?5?$AAi?$AAn?$AAc?$AAr?$AAe?$AAm?$AAe@ 00463fd0     AudioPlayer.obj
 0002:00002054       ??_C@_0CG@NLEHEOHN@cannot?5increment?5end?5map?1set?5it@ 00464054     AudioPlayer.obj
 0002:00002088       ??_C@_1FA@KLFCDGNE@?$AA?$CC?$AAc?$AAa?$AAn?$AAn?$AAo?$AAt?$AA?5?$AAi?$AAn?$AAc?$AAr?$AAe?$AAm?$AAe@ 00464088     AudioPlayer.obj
 0002:000020e8       ??_C@_1BMK@GGJFANE@?$AAs?$AAt?$AAd?$AA?3?$AA?3?$AA_?$AAT?$AAr?$AAe?$AAe?$AA_?$AAc?$AAo?$AAn?$AAs@ 004640e8     AudioPlayer.obj
 0002:00002310       ??_C@_1BMK@KGJELJBB@?$AAs?$AAt?$AAd?$AA?3?$AA?3?$AA_?$AAT?$AAr?$AAe?$AAe?$AA_?$AAc?$AAo?$AAn?$AAs@ 00464310     AudioPlayer.obj
 0002:00002538       ??_C@_0DG@LCFNIIPB@cannot?5dereference?5value?9initia@ 00464538     AudioPlayer.obj
 0002:00002578       ??_C@_1BMK@GKOJBMHP@?$AAs?$AAt?$AAd?$AA?3?$AA?3?$AA_?$AAT?$AAr?$AAe?$AAe?$AA_?$AAc?$AAo?$AAn?$AAs@ 00464578     AudioPlayer.obj
 0002:000027a0       ??_C@_1HA@ILGCNILF@?$AA?$CC?$AAc?$AAa?$AAn?$AAn?$AAo?$AAt?$AA?5?$AAd?$AAe?$AAr?$AAe?$AAf?$AAe?$AAr@ 004647a0     AudioPlayer.obj
 0002:00002828       ??_C@_0CI@OKFEHCEB@cannot?5dereference?5end?5map?1set?5@ 00464828     AudioPlayer.obj
 0002:00002858       ??_C@_1FE@NKHAAGMB@?$AA?$CC?$AAc?$AAa?$AAn?$AAn?$AAo?$AAt?$AA?5?$AAd?$AAe?$AAr?$AAe?$AAf?$AAe?$AAr@ 00464858     AudioPlayer.obj
 0002:000028c0       ??_C@_1BMI@CCACKBDE@?$AAs?$AAt?$AAd?$AA?3?$AA?3?$AA_?$AAT?$AAr?$AAe?$AAe?$AA_?$AAc?$AAo?$AAn?$AAs@ 004648c0     AudioPlayer.obj
 0002:00002ae4       ??_C@_0BA@JFNIOLAK@string?5too?5long@ 00464ae4     AudioPlayer.obj
 0002:00002af8       ??_C@_1NC@HJDMEDPE@?$AAC?$AA?3?$AA?2?$AAP?$AAr?$AAo?$AAg?$AAr?$AAa?$AAm?$AA?5?$AAF?$AAi?$AAl?$AAe@ 00464af8     AudioPlayer.obj
 0002:00002bf4       ??_C@_0BD@FEEMDEPI@invalid?5comparator@ 00464bf4     AudioPlayer.obj
 0002:00002c0c       ??_C@_1CI@JONCLBEJ@?$AAs?$AAt?$AAd?$AA?3?$AA?3?$AA_?$AAD?$AAe?$AAb?$AAu?$AAg?$AA_?$AAl?$AAt?$AA_@ 00464c0c     AudioPlayer.obj
 0002:00002c3c       ??_C@_1CK@NDNHPKPI@?$AA?$CC?$AAi?$AAn?$AAv?$AAa?$AAl?$AAi?$AAd?$AA?5?$AAc?$AAo?$AAm?$AAp?$AAa?$AAr@ 00464c3c     AudioPlayer.obj
 0002:000031ec       ??_C@_0BG@HGEDEDEC@invalid?5stoi?5argument@ 004651ec     Button.obj
 0002:00003208       ??_C@_0BL@MFFNMGGC@stoi?5argument?5out?5of?5range@ 00465208     Button.obj
 0002:0000322c       ??_7Button@@6B@            0046522c     Button.obj
 0002:00003734       ??_7CharObject@@6B@        00465734     CharObject.obj
 0002:00003784       ??_C@_0BM@BALDKKHE@list?5iterators?5incompatible@ 00465784     CharObject.obj
 0002:000037a8       ??_C@_0GF@MHGPEHNP@C?3?2Program?5Files?5?$CIx86?$CJ?2Microsof@ 004657a8     CharObject.obj
 0002:00003828       ??_C@_1MK@GKAFBGEG@?$AAC?$AA?3?$AA?2?$AAP?$AAr?$AAo?$AAg?$AAr?$AAa?$AAm?$AA?5?$AAF?$AAi?$AAl?$AAe@ 00465828     CharObject.obj
 0002:00003920       ??_C@_1PG@OGKFMJMM@?$AAs?$AAt?$AAd?$AA?3?$AA?3?$AA_?$AAL?$AAi?$AAs?$AAt?$AA_?$AAc?$AAo?$AAn?$AAs@ 00465920     CharObject.obj
 0002:00003a48       ??_C@_1DM@KDLJAKOP@?$AA?$CC?$AAl?$AAi?$AAs?$AAt?$AA?5?$AAi?$AAt?$AAe?$AAr?$AAa?$AAt?$AAo?$AAr?$AAs@ 00465a48     CharObject.obj
 0002:00003a90       ??_C@_0DB@ENBCPNKO@cannot?5increment?5value?9initiali@ 00465a90     CharObject.obj
 0002:00003ad0       ??_C@_1PG@EGFICAAJ@?$AAs?$AAt?$AAd?$AA?3?$AA?3?$AA_?$AAL?$AAi?$AAs?$AAt?$AA_?$AAc?$AAo?$AAn?$AAs@ 00465ad0     CharObject.obj
 0002:00003bf8       ??_C@_1GG@JLMAGPNK@?$AA?$CC?$AAc?$AAa?$AAn?$AAn?$AAo?$AAt?$AA?5?$AAi?$AAn?$AAc?$AAr?$AAe?$AAm?$AAe@ 00465bf8     CharObject.obj
 0002:00003c74       ??_C@_0CD@PMFMCEG@cannot?5increment?5end?5list?5itera@ 00465c74     CharObject.obj
 0002:00003ca0       ??_C@_1EK@OKKCFDJN@?$AA?$CC?$AAc?$AAa?$AAn?$AAn?$AAo?$AAt?$AA?5?$AAi?$AAn?$AAc?$AAr?$AAe?$AAm?$AAe@ 00465ca0     CharObject.obj
 0002:00003cf8       ??_C@_0DD@MBIHGLJE@cannot?5dereference?5value?9initia@ 00465cf8     CharObject.obj
 0002:00003d38       ??_C@_1PE@DODCNKKC@?$AAs?$AAt?$AAd?$AA?3?$AA?3?$AA_?$AAL?$AAi?$AAs?$AAt?$AA_?$AAc?$AAo?$AAn?$AAs@ 00465d38     CharObject.obj
 0002:00003e60       ??_C@_1GK@NKIMOCIG@?$AA?$CC?$AAc?$AAa?$AAn?$AAn?$AAo?$AAt?$AA?5?$AAd?$AAe?$AAr?$AAe?$AAf?$AAe?$AAr@ 00465e60     CharObject.obj
 0002:00003ee0       ??_C@_0CF@JCBFHMPL@cannot?5dereference?5end?5list?5ite@ 00465ee0     CharObject.obj
 0002:00003f10       ??_C@_1EO@CNEFBDCF@?$AA?$CC?$AAc?$AAa?$AAn?$AAn?$AAo?$AAt?$AA?5?$AAd?$AAe?$AAr?$AAe?$AAf?$AAe?$AAr@ 00465f10     CharObject.obj
 0002:00003f70       ??_C@_0O@NKNMEGII@list?5too?5long@ 00465f70     CharObject.obj
 0002:0000445c       ??_C@_0CN@GHCLOPHF@Error?5in?5setting?5pixel?9?5should?5@ 0046645c     DraggingDemo.obj
 0002:00004498       ??_C@_0JM@GIEKPEHN@WARNING?3?5Attempted?5write?5to?5sur@ 00466498     DraggingDemo.obj
 0002:00004554       ??_C@_0DC@BNOGMHFL@Error?5creating?5surface?5in?5RawIm@ 00466554     DraggingDemo.obj
 0002:00004590       ??_C@_0BD@IFIGDDIC@?7?7?$CL?$CL?$CL?5Load?5image?3?5@ 00466590     DraggingDemo.obj
 0002:000045a8       ??_C@_0DJ@OJEPJEDH@ImageManager?3?3getImagePtrbyURL?$CI@ 004665a8     DraggingDemo.obj
 0002:000045ec       ??_C@_0BJ@LOCNEGOL@Failed?5to?5load?5image?5?$CFs?6@ 004665ec     DraggingDemo.obj
 0002:00004610       ??_7DragableBaseClassObject@@6B@ 00466610     DraggingDemo.obj
 0002:00004668       ??_7DragableObject@@6B@    00466668     DraggingDemo.obj
 0002:000046c0       ??_7ImageObject@@6B@       004666c0     DraggingDemo.obj
 0002:00004704       ??_7DragableImageObject@@6B@ 00466704     DraggingDemo.obj
 0002:00004758       ??_C@_0GH@GEBGMJJM@C?3?2Program?5Files?5?$CIx86?$CJ?2Microsof@ 00466758     DraggingDemo.obj
 0002:000047d8       ??_C@_1MO@NIHBFLCG@?$AAC?$AA?3?$AA?2?$AAP?$AAr?$AAo?$AAg?$AAr?$AAa?$AAm?$AA?5?$AAF?$AAi?$AAl?$AAe@ 004667d8     DraggingDemo.obj
 0002:000048d0       ??_C@_0BO@PFKOHNJC@vector?5subscript?5out?5of?5range@ 004668d0     DraggingDemo.obj
 0002:000048f8       ??_C@_1MK@PODALHBD@?$AAs?$AAt?$AAd?$AA?3?$AA?3?$AAv?$AAe?$AAc?$AAt?$AAo?$AAr?$AA?$DM?$AAc?$AAl?$AAa@ 004668f8     DraggingDemo.obj
 0002:000049f0       ??_C@_1EA@LEKOKFNB@?$AA?$CC?$AAv?$AAe?$AAc?$AAt?$AAo?$AAr?$AA?5?$AAs?$AAu?$AAb?$AAs?$AAc?$AAr?$AAi@ 004669f0     DraggingDemo.obj
 0002:00004a40       ??_C@_1BPG@KHABJGCD@?$AAs?$AAt?$AAd?$AA?3?$AA?3?$AA_?$AAT?$AAr?$AAe?$AAe?$AA_?$AAc?$AAo?$AAn?$AAs@ 00466a40     DraggingDemo.obj
 0002:00004ca0       ??_C@_1BPE@BBFPAJEC@?$AAs?$AAt?$AAd?$AA?3?$AA?3?$AA_?$AAT?$AAr?$AAe?$AAe?$AA_?$AAc?$AAo?$AAn?$AAs@ 00466ca0     DraggingDemo.obj
 0002:00004efc       ??_7?$_Ref_count@VRawImageData@@@std@@6B@ 00466efc     DraggingDemo.obj
 0002:00004f10       ??_C@_0DA@GGPHOHEL@map?1set?5erase?5iterator?5from?5inc@ 00466f10     DraggingDemo.obj
 0002:00004f50       ??_C@_1DJG@KIJFPGMB@?$AAs?$AAt?$AAd?$AA?3?$AA?3?$AA_?$AAT?$AAr?$AAe?$AAe?$AA?$DM?$AAc?$AAl?$AAa?$AAs@ 00466f50     DraggingDemo.obj
 0002:000053a0       ??_C@_1GE@FENJBJJO@?$AA?$CC?$AAm?$AAa?$AAp?$AA?1?$AAs?$AAe?$AAt?$AA?5?$AAe?$AAr?$AAa?$AAs?$AAe?$AA?5@ 004673a0     DraggingDemo.obj
 0002:00005418       ??_C@_0CE@JAJNKOFK@cannot?5erase?5map?1set?5end?$CI?$CJ?5iter@ 00467418     DraggingDemo.obj
 0002:00005448       ??_C@_1EM@MEAEPHLP@?$AA?$CC?$AAc?$AAa?$AAn?$AAn?$AAo?$AAt?$AA?5?$AAe?$AAr?$AAa?$AAs?$AAe?$AA?5?$AAm@ 00467448     DraggingDemo.obj
 0002:000054a4       ??_C@_0BA@FOIKENOD@vector?5too?5long@ 004674a4     DraggingDemo.obj
 0002:000054b8       ?MY_PI@DrawingSurface@@2NB 004674b8     DrawingSurface.obj
 0002:00005980       ??_C@_0LN@HOLHFHJI@WARNING?3?5Attempted?5blit?5to?5lock@ 00467980     DrawingSurface.obj
 0002:00005a68       __real@3fe0c152382d7365    00467a68     DrawingSurface.obj
 0002:00005a78       __real@3ff0000000000000    00467a78     DrawingSurface.obj
 0002:00005a88       __real@3ff8000000000000    00467a88     DrawingSurface.obj
 0002:00005a98       __real@3ff921fb54442d18    00467a98     DrawingSurface.obj
 0002:00005aa8       __real@4000000000000000    00467aa8     DrawingSurface.obj
 0002:00005ab8       __real@4008000000000000    00467ab8     DrawingSurface.obj
 0002:00005ac8       __real@400921fb54442d18    00467ac8     DrawingSurface.obj
 0002:00005ad8       __real@400f6a7a2955385e    00467ad8     DrawingSurface.obj
 0002:00005ae8       __real@4010000000000000    00467ae8     DrawingSurface.obj
 0002:00005af8       __real@401921fb54442d18    00467af8     DrawingSurface.obj
 0002:00006044       ??_C@_0BG@IMAGMALK@sfx?1combat?1Slash2?4ogg@ 00468044     EnemyCultist.obj
 0002:00006064       ??_7Bow@@6B@               00468064     EnemyCultist.obj
 0002:00006078       ??_C@_0DN@DNDEIGPG@A?5bent?5twig?5with?5a?5string?5attac@ 00468078     EnemyCultist.obj
 0002:000060c4       ??_C@_03MMFDNDHJ@Bow@      004680c4     EnemyCultist.obj
 0002:000060cc       ??_7EnemyCultist@@6B@      004680cc     EnemyCultist.obj
 0002:0000612c       ??_7?$_Ref_count@VBow@@@std@@6B@ 0046812c     EnemyCultist.obj
 0002:000066a8       ??_7WoodSword@@6B@         004686a8     EnemyDragon.obj
 0002:000066bc       ??_C@_0BB@FNNEAKAH@A?5sword?5of?5wood?4@ 004686bc     EnemyDragon.obj
 0002:000066d0       ??_C@_0N@CNPFEBGJ@Wooden?5Sword@ 004686d0     EnemyDragon.obj
 0002:000066e4       ??_7EnemyDragon@@6B@       004686e4     EnemyDragon.obj
 0002:00006744       ??_7?$_Ref_count@VWoodSword@@@std@@6B@ 00468744     EnemyDragon.obj
 0002:00006c84       ??_7EnemyElf@@6B@          00468c84     EnemyElf.obj
 0002:000072b0       ??_7EnemyObject@@6B@       004692b0     EnemyObject.obj
 0002:0000730c       ??_C@_0BP@IEHBKPNI@pop_front?5called?5on?5empty?5list@ 0046930c     EnemyObject.obj
 0002:00007338       ??_C@_1OE@KHGEECHG@?$AAs?$AAt?$AAd?$AA?3?$AA?3?$AAl?$AAi?$AAs?$AAt?$AA?$DM?$AAc?$AAl?$AAa?$AAs?$AAs@ 00469338     EnemyObject.obj
 0002:00007450       ??_C@_1EC@POEKFLJM@?$AA?$CC?$AAp?$AAo?$AAp?$AA_?$AAf?$AAr?$AAo?$AAn?$AAt?$AA?5?$AAc?$AAa?$AAl?$AAl@ 00469450     EnemyObject.obj
 0002:000074a0       ??_C@_0BN@GOIPFJJH@front?$CI?$CJ?5called?5on?5empty?5list@ 004694a0     EnemyObject.obj
 0002:000074c8       ??_C@_1NM@LMPMDDMP@?$AAs?$AAt?$AAd?$AA?3?$AA?3?$AAl?$AAi?$AAs?$AAt?$AA?$DM?$AAc?$AAl?$AAa?$AAs?$AAs@ 004694c8     EnemyObject.obj
 0002:000075d0       ??_C@_1DO@HIOMABHK@?$AA?$CC?$AAf?$AAr?$AAo?$AAn?$AAt?$AA?$CI?$AA?$CJ?$AA?5?$AAc?$AAa?$AAl?$AAl?$AAe?$AAd@ 004695d0     EnemyObject.obj
 0002:0000761c       ??_C@_0CE@EAMOGAIE@vector?5erase?5iterator?5outside?5r@ 0046961c     EnemyObject.obj
 0002:00007648       ??_C@_1LO@PHHLNKEP@?$AAs?$AAt?$AAd?$AA?3?$AA?3?$AAv?$AAe?$AAc?$AAt?$AAo?$AAr?$AA?$DM?$AAc?$AAl?$AAa@ 00469648     EnemyObject.obj
 0002:00007730       ??_C@_1EM@BEMPOGMM@?$AA?$CC?$AAv?$AAe?$AAc?$AAt?$AAo?$AAr?$AA?5?$AAe?$AAr?$AAa?$AAs?$AAe?$AA?5?$AAi@ 00469730     EnemyObject.obj
 0002:0000778c       ??_C@_0BH@EDKEEENI@deque?5empty?5before?5pop@ 0046978c     EnemyObject.obj
 0002:000077a8       ??_C@_0GG@IMEJPCDA@C?3?2Program?5Files?5?$CIx86?$CJ?2Microsof@ 004697a8     EnemyObject.obj
 0002:00007828       ??_C@_1MM@MLEGHCEO@?$AAC?$AA?3?$AA?2?$AAP?$AAr?$AAo?$AAg?$AAr?$AAa?$AAm?$AA?5?$AAF?$AAi?$AAl?$AAe@ 00469828     EnemyObject.obj
 0002:00007920       ??_C@_1OG@CKAOEKBJ@?$AAs?$AAt?$AAd?$AA?3?$AA?3?$AAd?$AAe?$AAq?$AAu?$AAe?$AA?$DM?$AAc?$AAl?$AAa?$AAs@ 00469920     EnemyObject.obj
 0002:00007a34       ??_C@_1DC@NJAACHCD@?$AA?$CC?$AAd?$AAe?$AAq?$AAu?$AAe?$AA?5?$AAe?$AAm?$AAp?$AAt?$AAy?$AA?5?$AAb?$AAe@ 00469a34     EnemyObject.obj
 0002:00007a70       ??_C@_0BO@PEOHNLIM@front?$CI?$CJ?5called?5on?5empty?5deque@ 00469a70     EnemyObject.obj
 0002:00007a98       ??_C@_1NO@NOLGINNO@?$AAs?$AAt?$AAd?$AA?3?$AA?3?$AAd?$AAe?$AAq?$AAu?$AAe?$AA?$DM?$AAc?$AAl?$AAa?$AAs@ 00469a98     EnemyObject.obj
 0002:00007ba8       ??_C@_1EA@EELNAHHD@?$AA?$CC?$AAf?$AAr?$AAo?$AAn?$AAt?$AA?$CI?$AA?$CJ?$AA?5?$AAc?$AAa?$AAl?$AAl?$AAe?$AAd@ 00469ba8     EnemyObject.obj
 0002:00007bf8       ??_C@_1BAG@ELNIMNFK@?$AAs?$AAt?$AAd?$AA?3?$AA?3?$AA_?$AAL?$AAi?$AAs?$AAt?$AA_?$AAc?$AAo?$AAn?$AAs@ 00469bf8     EnemyObject.obj
 0002:00007d38       ??_C@_1BAG@OLCFCEJP@?$AAs?$AAt?$AAd?$AA?3?$AA?3?$AA_?$AAL?$AAi?$AAs?$AAt?$AA_?$AAc?$AAo?$AAn?$AAs@ 00469d38     EnemyObject.obj
 0002:00007e78       ??_C@_1BAE@GIDGMNLG@?$AAs?$AAt?$AAd?$AA?3?$AA?3?$AA_?$AAL?$AAi?$AAs?$AAt?$AA_?$AAc?$AAo?$AAn?$AAs@ 00469e78     EnemyObject.obj
 0002:00007fb0       ??_C@_1OE@PKOCDCNH@?$AAs?$AAt?$AAd?$AA?3?$AA?3?$AAd?$AAe?$AAq?$AAu?$AAe?$AA?$DM?$AAc?$AAl?$AAa?$AAs@ 00469fb0     EnemyObject.obj
 0002:000080c4       ??_C@_0BO@CAOBBIOC@vector?5iterators?5incompatible@ 0046a0c4     EnemyObject.obj
 0002:000080e8       ??_C@_1OK@EOCJDFAL@?$AAs?$AAt?$AAd?$AA?3?$AA?3?$AA_?$AAV?$AAe?$AAc?$AAt?$AAo?$AAr?$AA_?$AAc?$AAo@ 0046a0e8     EnemyObject.obj
 0002:00008200       ??_C@_1EA@DJDGNIII@?$AA?$CC?$AAv?$AAe?$AAc?$AAt?$AAo?$AAr?$AA?5?$AAi?$AAt?$AAe?$AAr?$AAa?$AAt?$AAo@ 0046a200     EnemyObject.obj
 0002:00008250       ??_7?$_Ref_count@VNode@@@std@@6B@ 0046a250     EnemyObject.obj
 0002:00008264       ??_C@_0BC@KBDMBKEH@deque?$DMT?$DO?5too?5long@ 0046a264     EnemyObject.obj
 0002:0000827c       ??_C@_0BJ@HAJGEHKO@transposed?5pointer?5range@ 0046a27c     EnemyObject.obj
 0002:0000829c       ??_C@_1CG@LJCPDKEJ@?$AAs?$AAt?$AAd?$AA?3?$AA?3?$AA_?$AAV?$AAe?$AAr?$AAi?$AAf?$AAy?$AA_?$AAr?$AAa@ 0046a29c     EnemyObject.obj
 0002:000082cc       ??_C@_1DG@FJIKMGFD@?$AA?$CC?$AAt?$AAr?$AAa?$AAn?$AAs?$AAp?$AAo?$AAs?$AAe?$AAd?$AA?5?$AAp?$AAo?$AAi@ 0046a2cc     EnemyObject.obj
 0002:0000830c       ??_C@_0DI@PBEELKIF@vector?5iterators?5in?5range?5are?5f@ 0046a30c     EnemyObject.obj
 0002:00008350       ??_C@_1HE@KBMFDAFB@?$AA?$CC?$AAv?$AAe?$AAc?$AAt?$AAo?$AAr?$AA?5?$AAi?$AAt?$AAe?$AAr?$AAa?$AAt?$AAo@ 0046a350     EnemyObject.obj
 0002:000083dc       ??_C@_0CB@LIAHLBAO@vector?5iterator?5range?5transpose@ 0046a3dc     EnemyObject.obj
 0002:00008408       ??_C@_1EG@ODKBEHFN@?$AA?$CC?$AAv?$AAe?$AAc?$AAt?$AAo?$AAr?$AA?5?$AAi?$AAt?$AAe?$AAr?$AAa?$AAt?$AAo@ 0046a408     EnemyObject.obj
 0002:00008460       __real@4050000000000000    0046a460     EnemyObject.obj
 0002:000089a8       ??_7EnemyZombie@@6B@       0046a9a8     EnemyZombie.obj
 0002:00008ee4       ??_7FireballObject@@6B@    0046aee4     FireballObject.obj
 0002:000093ec       ??_7FlashingDemo@@6BDisplayableObjectContainer@@@ 0046b3ec     FlashingDemo.obj
 0002:00009498       ??_7FlashingDemo@@6BFilterPoints@@@ 0046b498     FlashingDemo.obj
 0002:00009a0c       ??_7BouncingObject@@6B@    0046ba0c     ImageObjectDemo.obj
 0002:00009a50       ??_7BouncingImageObject@@6B@ 0046ba50     ImageObjectDemo.obj
 0002:00009a90       __real@0000000000000000    0046ba90     ImageObjectDemo.obj
 0002:00009aa0       __real@3f747ae147ae147b    0046baa0     ImageObjectDemo.obj
 0002:00009ab0       __real@4004000000000000    0046bab0     ImageObjectDemo.obj
 0002:00009ac0       __xmm@80000000000000008000000000000000 0046bac0     ImageObjectDemo.obj
 0002:00009f9c       ??_7Item@@6B@              0046bf9c     Item.obj
 0002:0000a9ac       ??_7JigsawPiece@@6BDragableImageObject@@@ 0046c9ac     JigsawDemo.obj
 0002:0000aa08       ??_7JigsawPiece@@6BCoordinateMapping@@@ 0046ca08     JigsawDemo.obj
 0002:0000aa14       ??_C@_0CA@ONKMLLKE@?$CF05dx?$CF07dy?$CF07dr?$CF02dc?$CF07dr?$CF07d?$AN?6@ 0046ca14     JigsawDemo.obj
 0002:0000aa3c       ??_C@_0BI@OPENOKOK@checkJoinBottom?5success@ 0046ca3c     JigsawDemo.obj
 0002:0000aa58       ??_C@_0BF@IKBLDNLD@checkJoinTop?5success@ 0046ca58     JigsawDemo.obj
 0002:0000aa74       ??_C@_0BH@OIGOFELM@checkJoinRight?5success@ 0046ca74     JigsawDemo.obj
 0002:0000aa90       ??_C@_0BG@NHPDEGHB@checkJoinLeft?5success@ 0046ca90     JigsawDemo.obj
 0002:0000aab0       ??_7?$_Func_impl_no_alloc@V<lambda_2870de01b601283699da779de20905fc>@@XPAVDisplayableObject@@@std@@6B@ 0046cab0     JigsawDemo.obj
 0002:0000aad4       ??_7?$_Func_impl_no_alloc@V<lambda_4d3c514b9e5ad6cc29096aa3b57f98f2>@@XPAVDisplayableObject@@@std@@6B@ 0046cad4     JigsawDemo.obj
 0002:0000aaf8       ??_7?$_Func_impl_no_alloc@V<lambda_369f3aee610e50bbd15c3a78d9c8686f>@@XPAVDisplayableObject@@@std@@6B@ 0046caf8     JigsawDemo.obj
 0002:0000ab1c       ??_7?$_Func_impl_no_alloc@V<lambda_817584b2460f1bcab806f46a25c321a8>@@XPAVDisplayableObject@@@std@@6B@ 0046cb1c     JigsawDemo.obj
 0002:0000ab40       ??_7?$_Func_impl_no_alloc@V<lambda_341a6657abb2758c42a6873833e6116f>@@XPAVDisplayableObject@@@std@@6B@ 0046cb40     JigsawDemo.obj
 0002:0000abd0       __real@4051800000000000    0046cbd0     JigsawDemo.obj
 0002:0000b610       ??_7FilterPoints@@6B@      0046d610     BaseEngine.obj
 0002:0000b62c       ??_7DisplayableObjectContainer@@6B@ 0046d62c     BaseEngine.obj
 0002:0000b63c       ??_7BaseEngine@@6BDisplayableObjectContainer@@@ 0046d63c     BaseEngine.obj
 0002:0000b6e8       ??_7BaseEngine@@6BFilterPoints@@@ 0046d6e8     BaseEngine.obj
 0002:0000b700       ??_C@_0DE@CHADHGFF@can?8t?5dereference?5value?9initial@ 0046d700     BaseEngine.obj
 0002:0000b740       ??_C@_1PA@DMJFJEGO@?$AAs?$AAt?$AAd?$AA?3?$AA?3?$AA_?$AAV?$AAe?$AAc?$AAt?$AAo?$AAr?$AA_?$AAc?$AAo@ 0046d740     BaseEngine.obj
 0002:0000b860       ??_C@_1GM@FNBFNBEL@?$AA?$CC?$AAc?$AAa?$AAn?$AA?8?$AAt?$AA?5?$AAd?$AAe?$AAr?$AAe?$AAf?$AAe?$AAr?$AAe@ 0046d860     BaseEngine.obj
 0002:0000b8e4       ??_C@_0CP@MDHADBHN@can?8t?5dereference?5out?5of?5range?5@ 0046d8e4     BaseEngine.obj
 0002:0000b920       ??_C@_1GC@JDCKOLAC@?$AA?$CC?$AAc?$AAa?$AAn?$AA?8?$AAt?$AA?5?$AAd?$AAe?$AAr?$AAe?$AAf?$AAe?$AAr?$AAe@ 0046d920     BaseEngine.obj
 0002:0000b998       ??_C@_0DC@KEKNBAEB@can?8t?5increment?5value?9initializ@ 0046d998     BaseEngine.obj
 0002:0000b9d8       ??_C@_1PC@LAHDNGHL@?$AAs?$AAt?$AAd?$AA?3?$AA?3?$AA_?$AAV?$AAe?$AAc?$AAt?$AAo?$AAr?$AA_?$AAc?$AAo@ 0046d9d8     BaseEngine.obj
 0002:0000bb00       ??_C@_1GI@EDCILPL@?$AA?$CC?$AAc?$AAa?$AAn?$AA?8?$AAt?$AA?5?$AAi?$AAn?$AAc?$AAr?$AAe?$AAm?$AAe?$AAn@ 0046db00     BaseEngine.obj
 0002:0000bb7c       ??_C@_0CJ@OAAAAGPM@can?8t?5increment?5vector?5iterator@ 0046db7c     BaseEngine.obj
 0002:0000bbb0       ??_C@_1FG@LDPPKMGP@?$AA?$CC?$AAc?$AAa?$AAn?$AA?8?$AAt?$AA?5?$AAi?$AAn?$AAc?$AAr?$AAe?$AAm?$AAe?$AAn@ 0046dbb0     BaseEngine.obj
 0002:0000c0dc       ??_7DisplayableObject@@6B@ 0046e0dc     DisplayableObject.obj
 0002:0000c404       ??_C@_0BI@GMOFELCF@Free?5font?3?5?$CFd?5point?5?$CFs?6@ 0046e404     FontManager.obj
 0002:0000c930       ??_7MappableImageObject@@6B@ 0046e930     ImageMappingDemo.obj
 0002:0000c988       __real@c059000000000000    0046e988     ImageMappingDemo.obj
 0002:0000ced0       ??_7PlayerObject@@6B@      0046eed0     PlayerObject.obj
 0002:0000cf20       __real@3ff0a3d70a3d70a4    0046ef20     PlayerObject.obj
 0002:0000d414       ??_7CoordinateMappingRotateTransparent@@6B@ 0046f414     ProjectileObject.obj
 0002:0000d424       ??_7ProjectileObject@@6B@  0046f424     ProjectileObject.obj
 0002:0000d468       __real@3f1a36e2eb1c432d    0046f468     ProjectileObject.obj
 0002:0000d938       ??_C@_1OM@JGHOOGMH@?$AAs?$AAt?$AAd?$AA?3?$AA?3?$AAv?$AAe?$AAc?$AAt?$AAo?$AAr?$AA?$DM?$AAc?$AAl?$AAa@ 0046f938     Psybc5TileManager.obj
 0002:0000dd10       ??_7bad_cast@std@@6B@      0046fd10     SaveManager.obj
 0002:0000dd1c       ??_C@_08EPJLHIJG@bad?5cast@ 0046fd1c     SaveManager.obj
 0002:0000dd2c       ??_7?$basic_filebuf@DU?$char_traits@D@std@@@std@@6B@ 0046fd2c     SaveManager.obj
 0002:0000dd78       ??_7?$basic_ofstream@DU?$char_traits@D@std@@@std@@6B@ 0046fd78     SaveManager.obj
 0002:0000dd80       ??_8?$basic_ofstream@DU?$char_traits@D@std@@@std@@7B@ 0046fd80     SaveManager.obj
 0002:0000dd90       ??_7?$basic_ifstream@DU?$char_traits@D@std@@@std@@6B@ 0046fd90     SaveManager.obj
 0002:0000dd98       ??_8?$basic_ifstream@DU?$char_traits@D@std@@@std@@7B@ 0046fd98     SaveManager.obj
 0002:0000dda8       ??_C@_0GI@GDCBENEL@C?3?2Program?5Files?5?$CIx86?$CJ?2Microsof@ 0046fda8     SaveManager.obj
 0002:0000de28       ??_C@_1NA@OAIBCCLB@?$AAC?$AA?3?$AA?2?$AAP?$AAr?$AAo?$AAg?$AAr?$AAa?$AAm?$AA?5?$AAF?$AAi?$AAl?$AAe@ 0046fe28     SaveManager.obj
 0002:0000df24       ??_C@_0BP@PFIPNLNI@front?$CI?$CJ?5called?5on?5empty?5string@ 0046ff24     SaveManager.obj
 0002:0000df50       ??_C@_1LC@BJDDPGPA@?$AAs?$AAt?$AAd?$AA?3?$AA?3?$AAb?$AAa?$AAs?$AAi?$AAc?$AA_?$AAs?$AAt?$AAr?$AAi@ 0046ff50     SaveManager.obj
 0002:0000e028       ??_C@_1EC@DINNLDHA@?$AA?$CC?$AAf?$AAr?$AAo?$AAn?$AAt?$AA?$CI?$AA?$CJ?$AA?5?$AAc?$AAa?$AAl?$AAl?$AAe?$AAd@ 00470028     SaveManager.obj
 0002:0000e078       ??_C@_0BI@CFPLBAOH@invalid?5string?5position@ 00470078     SaveManager.obj
 0002:0000e55c       ??_7CroppedCoordinateMapping@@6B@ 0047055c     SimpleImage.obj
 0002:0000ea5c       ??_7JasonsDemoA@@6BDisplayableObjectContainer@@@ 00470a5c     JasonsDemoA.obj
 0002:0000eb08       ??_7JasonsDemoA@@6BFilterPoints@@@ 00470b08     JasonsDemoA.obj
 0002:0000efe4       ??_7JasonsObjectA@@6B@     00470fe4     JasonsObjectA.obj
 0002:0000f4ec       ??_7TileManager@@6B@       004714ec     JasonsTileManager.obj
 0002:0000f4fc       ??_7JasonsTileManager@@6B@ 004714fc     JasonsTileManager.obj
 0002:0000fa40       ??_7DragableTokenContainer@@6BDragableBaseClassObject@@@ 00471a40     PlayingCardsDemo.obj
 0002:0000fa9c       ??_7DragableTokenContainer@@6BDisplayableObjectContainer@@@ 00471a9c     PlayingCardsDemo.obj
 0002:0000faa8       ??_C@_0BI@NHFDFHOB@Cornerstone?5Regular?4ttf@ 00471aa8     PlayingCardsDemo.obj
 0002:0000fac4       ??_C@_05JLAFMLMB@Token@    00471ac4     PlayingCardsDemo.obj
 0002:0000facc       ??_C@_05FKOOCFCH@Cntnr@    00471acc     PlayingCardsDemo.obj
 0002:0000fad8       ??_7DragableToken@@6B@     00471ad8     PlayingCardsDemo.obj
 0002:0000fb20       ??_7TokenTray@@6BDragableBaseClassObject@@@ 00471b20     PlayingCardsDemo.obj
 0002:0000fb7c       ??_7TokenTray@@6BDisplayableObjectContainer@@@ 00471b7c     PlayingCardsDemo.obj
 0002:0000fb88       ??_C@_06OIOKNNNI@Tokens@   00471b88     PlayingCardsDemo.obj
 0002:0000fb94       ??_7CardContainer@@6BDragableBaseClassObject@@@ 00471b94     PlayingCardsDemo.obj
 0002:0000fbf0       ??_7CardContainer@@6BDisplayableObjectContainer@@@ 00471bf0     PlayingCardsDemo.obj
 0002:0000fbfc       ??_C@_07PDLKMNNH@Shuffle@  00471bfc     PlayingCardsDemo.obj
 0002:0000fc08       ??_C@_04HMPDNAFK@Draw@     00471c08     PlayingCardsDemo.obj
 0002:0000fc10       ??_C@_07KLFFMLGM@DISCARD@  00471c10     PlayingCardsDemo.obj
 0002:0000fc1c       ??_C@_04FJDFPLDD@DECK@     00471c1c     PlayingCardsDemo.obj
 0002:0000fc28       ??_7CoordinateMappingRotate@@6B@ 00471c28     PlayingCardsDemo.obj
 0002:0000fc38       ??_7CoordinateMappingRotateAndColour@@6B@ 00471c38     PlayingCardsDemo.obj
 0002:0000fc4c       ??_7CardOrTile@@6BDragableBaseClassObject@@@ 00471c4c     PlayingCardsDemo.obj
 0002:0000fca8       ??_7CardOrTile@@6BDisplayableObjectContainer@@@ 00471ca8     PlayingCardsDemo.obj
 0002:0000fcb4       ??_C@_04IPBPFFEL@Load@     00471cb4     PlayingCardsDemo.obj
 0002:0000fcbc       ??_C@_06CMLPEGNC@Failed@   00471cbc     PlayingCardsDemo.obj
 0002:0000fcc8       __real@4059000000000000    00471cc8     PlayingCardsDemo.obj
 0002:0000fcd8       __real@406fe00000000000    00471cd8     PlayingCardsDemo.obj
 0002:00010ba4       ??_7StarfieldDemo@@6BDisplayableObjectContainer@@@ 00472ba4     StarfieldDemo.obj
 0002:00010c50       ??_7StarfieldDemo@@6BFilterPoints@@@ 00472c50     StarfieldDemo.obj
 0002:000111dc       ??_7FilterPointsScaling@@6B@ 004731dc     GameEngine.obj
 0002:000111f8       ??_7FilterPointsTranslation@@6B@ 004731f8     GameEngine.obj
 0002:00011214       ??_7Psybc5TileManager@@6B@ 00473214     GameEngine.obj
 0002:00011224       ??_7BackgroundTileManager@@6B@ 00473224     GameEngine.obj
 0002:00011230       ??_C@_0BD@FNPHBFCD@sprites?1chests?4png@ 00473230     GameEngine.obj
 0002:00011248       ??_C@_0BI@LNLKOFFP@sprites?1tiles_floor?4png@ 00473248     GameEngine.obj
 0002:00011268       ??_7SolidTileManager@@6B@  00473268     GameEngine.obj
 0002:00011274       ??_C@_0BC@LELOJPGM@sprites?1tiles?4png@ 00473274     GameEngine.obj
 0002:00011290       ??_7InventoryTileManager@@6B@ 00473290     GameEngine.obj
 0002:0001129c       ??_C@_0BE@FOGNHMFB@sprites?1invSlot?4png@ 0047329c     GameEngine.obj
 0002:000112b4       ??_C@_0BC@BHMBGFFO@sprites?1items?4png@ 004732b4     GameEngine.obj
 0002:000112cc       ??_C@_0M@JDECPFHK@A?5test?5item@ 004732cc     GameEngine.obj
 0002:000112dc       ??_C@_04OFFCAMCD@Test@     004732dc     GameEngine.obj
 0002:000112e8       ??_7GameEngine@@6BDisplayableObjectContainer@@@ 004732e8     GameEngine.obj
 0002:00011394       ??_7GameEngine@@6BFilterPoints@@@ 00473394     GameEngine.obj
 0002:000113b0       ??_7?$_Ref_count@VItem@@@std@@6B@ 004733b0     GameEngine.obj
 0002:000113c4       ??_C@_01MNNFJEPP@?$DM@     004733c4     GameEngine.obj
 0002:000113c8       ??_C@_01KMDKNFGN@?1@       004733c8     GameEngine.obj
 0002:00011894       ??_7BaseState@@6B@         00473894     BaseState.obj
 0002:000118d0       ??_C@_1BFO@LADEKIIC@?$AAs?$AAt?$AAd?$AA?3?$AA?3?$AA_?$AAL?$AAi?$AAs?$AAt?$AA_?$AAc?$AAo?$AAn?$AAs@ 004738d0     BaseState.obj
 0002:00011a78       ??_C@_1BFO@BAMJEBEH@?$AAs?$AAt?$AAd?$AA?3?$AA?3?$AA_?$AAL?$AAi?$AAs?$AAt?$AA_?$AAc?$AAo?$AAn?$AAs@ 00473a78     BaseState.obj
 0002:00011c20       ??_C@_1BFM@JJEJFGBE@?$AAs?$AAt?$AAd?$AA?3?$AA?3?$AA_?$AAL?$AAi?$AAs?$AAt?$AA_?$AAc?$AAo?$AAn?$AAs@ 00473c20     BaseState.obj
 0002:000122ac       ??_7EditorTileManager@@6B@ 004742ac     StateEditor.obj
 0002:000122b8       ??_C@_0BK@DGEMIDMD@sprites?1tiles_special?4png@ 004742b8     StateEditor.obj
 0002:000122dc       ??_7StateEditor@@6B@       004742dc     StateEditor.obj
 0002:00012948       ??_7ButtonCharCreator@@6B@ 00474948     StateMenu.obj
 0002:00012958       ??_7ButtonNewGame@@6B@     00474958     StateMenu.obj
 0002:00012968       ??_7ButtonContinue@@6B@    00474968     StateMenu.obj
 0002:00012978       ??_7ButtonEditor@@6B@      00474978     StateMenu.obj
 0002:00012988       ??_7ButtonExit@@6B@        00474988     StateMenu.obj
 0002:00012998       ??_7CoordinateMappingShiftXY@@6B@ 00474998     StateMenu.obj
 0002:000129a8       ??_7StateMenu@@6B@         004749a8     StateMenu.obj
 0002:000129e8       ??_7StateCharCreate@@6B@   004749e8     StateMenu.obj
 0002:00012a28       ??_7?$ButtonValueChange@H@@6B@ 00474a28     StateMenu.obj
 0002:00012a38       ??_7?$ButtonAllocateSkill@H@@6B@ 00474a38     StateMenu.obj
 0002:00012a48       ??_C@_1HC@HBCEAHKD@?$AAs?$AAt?$AAd?$AA?3?$AA?3?$AAv?$AAe?$AAc?$AAt?$AAo?$AAr?$AA?$DM?$AAi?$AAn?$AAt@ 00474a48     StateMenu.obj
 0002:00012ad0       ??_C@_1BCM@BMJMJMGN@?$AAs?$AAt?$AAd?$AA?3?$AA?3?$AAv?$AAe?$AAc?$AAt?$AAo?$AAr?$AA?$DM?$AAc?$AAl?$AAa@ 00474ad0     StateMenu.obj
 0002:00012c38       ??_C@_0CB@EJBNKHHC@invalid?5to?5pop_back?5empty?5strin@ 00474c38     StateMenu.obj
 0002:00012c60       ??_C@_1LI@HCBEBID@?$AAs?$AAt?$AAd?$AA?3?$AA?3?$AAb?$AAa?$AAs?$AAi?$AAc?$AA_?$AAs?$AAt?$AAr?$AAi@ 00474c60     StateMenu.obj
 0002:00012d40       ??_C@_1EG@GNALHNOG@?$AA?$CC?$AAi?$AAn?$AAv?$AAa?$AAl?$AAi?$AAd?$AA?5?$AAt?$AAo?$AA?5?$AAp?$AAo?$AAp@ 00474d40     StateMenu.obj
 0002:00012d98       ??_C@_1PE@IAFMBAMO@?$AAs?$AAt?$AAd?$AA?3?$AA?3?$AA_?$AAV?$AAe?$AAc?$AAt?$AAo?$AAr?$AA_?$AAc?$AAo@ 00474d98     StateMenu.obj
 0002:00012ec0       ??_C@_1PC@LKHKMNOP@?$AAs?$AAt?$AAd?$AA?3?$AA?3?$AA_?$AAV?$AAe?$AAc?$AAt?$AAo?$AAr?$AA_?$AAc?$AAo@ 00474ec0     StateMenu.obj
 0002:00012fe8       ??_C@_1OM@GLGMMPHM@?$AAs?$AAt?$AAd?$AA?3?$AA?3?$AA_?$AAV?$AAe?$AAc?$AAt?$AAo?$AAr?$AA_?$AAc?$AAo@ 00474fe8     StateMenu.obj
 0002:0001365c       ??_7StateRunning@@6B@      0047565c     StateRunning.obj
 0002:0001369c       ??_7StatePaused@@6B@       0047569c     StateRunning.obj
 0002:000136dc       ??_7StateEnemyTurn@@6B@    004756dc     StateRunning.obj
 0002:00013718       ??_C@_1KK@PCGNNDDH@?$AAs?$AAt?$AAd?$AA?3?$AA?3?$AAl?$AAi?$AAs?$AAt?$AA?$DM?$AAc?$AAl?$AAa?$AAs?$AAs@ 00475718     StateRunning.obj
 0002:000137e8       ??_C@_1KC@IMGPCPKG@?$AAs?$AAt?$AAd?$AA?3?$AA?3?$AAl?$AAi?$AAs?$AAt?$AA?$DM?$AAc?$AAl?$AAa?$AAs?$AAs@ 004757e8     StateRunning.obj
 0002:00013d74       ??_7StateStart@@6B@        00475d74     StateStart.obj
 0002:00014734       ??_7BouncingBall@@6B@      00476734     BouncingBall.obj
 0002:00014778       ??_7BouncingBall1@@6B@     00476778     BouncingBall.obj
 0002:000147bc       ??_7BouncingBall2@@6B@     004767bc     BouncingBall.obj
 0002:00014800       __real@3f847ae147ae147b    00476800     BouncingBall.obj
 0002:00014d1b       ??_C@_00CNPNBAHC@@         00476d1b     BouncingBallMain.obj
 0002:00014d1c       ??_C@_01IPJKGB@?$CD@       00476d1c     BouncingBallMain.obj
 0002:00014d20       ??_C@_02KLCDNAMD@?$CDS@    00476d20     BouncingBallMain.obj
 0002:00014d24       ??_C@_02LCDIOBIC@?$CDR@    00476d24     BouncingBallMain.obj
 0002:00014d28       __real@3fe999999999999a    00476d28     BouncingBallMain.obj
 0002:00014d38       __real@3ff199999999999a    00476d38     BouncingBallMain.obj
 0002:00014d48       __real@3ff3333333333333    00476d48     BouncingBallMain.obj
 0002:00014d58       __real@4049000000000000    00476d58     BouncingBallMain.obj
 0002:00014d68       __real@4062c00000000000    00476d68     BouncingBallMain.obj
 0002:00014d78       __real@4066800000000000    00476d78     BouncingBallMain.obj
 0002:00014d88       __real@4069000000000000    00476d88     BouncingBallMain.obj
 0002:00014d98       __real@406f400000000000    00476d98     BouncingBallMain.obj
 0002:00014da8       __real@4071300000000000    00476da8     BouncingBallMain.obj
 0002:00014db8       __real@4072c00000000000    00476db8     BouncingBallMain.obj
 0002:00014dc8       __real@4074500000000000    00476dc8     BouncingBallMain.obj
 0002:00014dd8       __real@4075e00000000000    00476dd8     BouncingBallMain.obj
 0002:00014de8       __real@4077700000000000    00476de8     BouncingBallMain.obj
 0002:00014df8       __real@4079000000000000    00476df8     BouncingBallMain.obj
 0002:00014e08       __real@4079a00000000000    00476e08     BouncingBallMain.obj
 0002:00014e18       __real@407c200000000000    00476e18     BouncingBallMain.obj
 0002:00014e28       __real@407f400000000000    00476e28     BouncingBallMain.obj
 0002:00014e38       __real@4081300000000000    00476e38     BouncingBallMain.obj
 0002:00014e48       __real@4082c00000000000    00476e48     BouncingBallMain.obj
 0002:00014e58       __real@4084500000000000    00476e58     BouncingBallMain.obj
 0002:00014e68       __real@4087700000000000    00476e68     BouncingBallMain.obj
 0002:0001533c       ??_7Weapon@@6B@            0047733c     Weapon.obj
 0002:000158b8       ??_7SimpleFlashingDragableImageObject@@6B@ 004778b8     ZoomingDemo.obj
 0002:00015ef0       ??_7MazeDemoTileManager@@6B@ 00477ef0     MazeDemoMain.obj
 0002:00015f00       ??_7MazeDemoMain@@6BDisplayableObjectContainer@@@ 00477f00     MazeDemoMain.obj
 0002:00015fac       ??_7MazeDemoMain@@6BFilterPoints@@@ 00477fac     MazeDemoMain.obj
 0002:0001648c       ??_7MazeDemoObject@@6B@    0047848c     MazeDemoObject.obj
 0002:00016990       ??_C@_0DO@NPDCNJGL@d?3?2agent?2_work?26?2s?2src?2vctools?2@ 00478990     msvcprtd:locale0_implib.obj
 0002:000169e0       ??_7type_info@@6B@         004789e0     MSVCRTD:std_type_info_static.obj
 0002:000169f4       ??_C@_0P@GHFPNOJB@bad?5allocation@ 004789f4     MSVCRTD:throw_bad_alloc.obj
 0002:00016a08       ??_C@_0BJ@HFNMHALN@Out?5of?5memory?5?9?5aborting@ 00478a08     SDL2main:SDL_windows_main.obj
 0002:00016a28       ??_C@_0M@HFFOIJBL@Fatal?5Error@ 00478a28     SDL2main:SDL_windows_main.obj
 0002:00016a78       __load_config_used         00478a78     MSVCRTD:loadcfg.obj
 0002:00016db8       ??_R4CoordinateMapping@@6B@ 00478db8     AnimatedObject.obj
 0002:00016dd0       ??_R3CoordinateMapping@@8  00478dd0     AnimatedObject.obj
 0002:00016de4       ??_R2CoordinateMapping@@8  00478de4     AnimatedObject.obj
 0002:00016dec       ??_R1A@?0A@EA@CoordinateMapping@@8 00478dec     AnimatedObject.obj
 0002:00016e10       ??_R4CoordinateMappingFlipSheet@@6B@ 00478e10     AnimatedObject.obj
 0002:00016e28       ??_R3CoordinateMappingFlipSheet@@8 00478e28     AnimatedObject.obj
 0002:00016e3c       ??_R2CoordinateMappingFlipSheet@@8 00478e3c     AnimatedObject.obj
 0002:00016e48       ??_R1A@?0A@EA@CoordinateMappingFlipSheet@@8 00478e48     AnimatedObject.obj
 0002:00016e6c       ??_R4AnimatedObject@@6B@   00478e6c     AnimatedObject.obj
 0002:00016e84       ??_R3AnimatedObject@@8     00478e84     AnimatedObject.obj
 0002:00016e98       ??_R2AnimatedObject@@8     00478e98     AnimatedObject.obj
 0002:00016ea4       ??_R1A@?0A@EA@AnimatedObject@@8 00478ea4     AnimatedObject.obj
 0002:00016ec8       ??_R1A@?0A@EA@DisplayableObject@@8 00478ec8     AnimatedObject.obj
 0002:00016eec       ??_R3DisplayableObject@@8  00478eec     AnimatedObject.obj
 0002:00016f00       ??_R2DisplayableObject@@8  00478f00     AnimatedObject.obj
 0002:00016f08       ??_R4exception@std@@6B@    00478f08     AudioPlayer.obj
 0002:00016f20       ??_R3exception@std@@8      00478f20     AudioPlayer.obj
 0002:00016f34       ??_R2exception@std@@8      00478f34     AudioPlayer.obj
 0002:00016f3c       ??_R1A@?0A@EA@exception@std@@8 00478f3c     AudioPlayer.obj
 0002:00016f60       ??_R4bad_alloc@std@@6B@    00478f60     AudioPlayer.obj
 0002:00016f78       ??_R3bad_alloc@std@@8      00478f78     AudioPlayer.obj
 0002:00016f8c       ??_R2bad_alloc@std@@8      00478f8c     AudioPlayer.obj
 0002:00016f98       ??_R1A@?0A@EA@bad_alloc@std@@8 00478f98     AudioPlayer.obj
